
 Start         Length     Name                   Class
 0001:00401000 0005403CH .text                   CODE
 0002:00456000 00000750H .itext                  ICODE
 0003:00457000 00001ABCH .data                   DATA
 0004:00459000 000035B0H .bss                    BSS
 0005:00000000 00000034H .tls                    TLS


Detailed map of segments

 0001:00000000 00005811 C=CODE     S=.text    G=(none)   M=System   ACBP=A9
 0001:00005814 00000105 C=CODE     S=.text    G=(none)   M=SysInit  ACBP=A9
 0001:0000591C 00000058 C=CODE     S=.text    G=(none)   M=Types    ACBP=A9
 0001:00005974 00000B80 C=CODE     S=.text    G=(none)   M=Windows  ACBP=A9
 0001:000064F4 000002D8 C=CODE     S=.text    G=(none)   M=SysConst ACBP=A9
 0001:000067CC 0000677D C=CODE     S=.text    G=(none)   M=SysUtils ACBP=A9
 0001:0000CF4C 000007EE C=CODE     S=.text    G=(none)   M=VarUtils ACBP=A9
 0001:0000D73C 00002990 C=CODE     S=.text    G=(none)   M=Variants ACBP=A9
 0001:000100CC 000000F8 C=CODE     S=.text    G=(none)   M=RTLConsts ACBP=A9
 0001:000101C4 0000090F C=CODE     S=.text    G=(none)   M=TypInfo  ACBP=A9
 0001:00010AD4 00009D25 C=CODE     S=.text    G=(none)   M=Classes  ACBP=A9
 0001:0001A7FC 0000005D C=CODE     S=.text    G=(none)   M=IniFiles ACBP=A9
 0001:0001A85C 000005AD C=CODE     S=.text    G=(none)   M=Registry ACBP=A9
 0001:0001AE0C 00000210 C=CODE     S=.text    G=(none)   M=Consts   ACBP=A9
 0001:0001B01C 00007506 C=CODE     S=.text    G=(none)   M=Graphics ACBP=A9
 0001:00022524 00000275 C=CODE     S=.text    G=(none)   M=Contnrs  ACBP=A9
 0001:0002279C 0000009E C=CODE     S=.text    G=(none)   M=CommCtrl ACBP=A9
 0001:0002283C 00000772 C=CODE     S=.text    G=(none)   M=MultiMon ACBP=A9
 0001:00022FB0 00001100 C=CODE     S=.text    G=(none)   M=HelpIntfs ACBP=A9
 0001:000240B0 0000003A C=CODE     S=.text    G=(none)   M=Printers ACBP=A9
 0001:000240EC 0000030E C=CODE     S=.text    G=(none)   M=FlatSB   ACBP=A9
 0001:000243FC 0000016A C=CODE     S=.text    G=(none)   M=SyncObjs ACBP=A9
 0001:00024568 0000099D C=CODE     S=.text    G=(none)   M=UxTheme  ACBP=A9
 0001:00024F08 00000AD2 C=CODE     S=.text    G=(none)   M=Themes   ACBP=A9
 0001:000259DC 00001CD8 C=CODE     S=.text    G=(none)   M=StdCtrls ACBP=A9
 0001:000276B4 00000D59 C=CODE     S=.text    G=(none)   M=GraphUtil ACBP=A9
 0001:00028410 00000316 C=CODE     S=.text    G=(none)   M=ExtCtrls ACBP=A9
 0001:00028728 00000674 C=CODE     S=.text    G=(none)   M=Dialogs  ACBP=A9
 0001:00028D9C 0000003A C=CODE     S=.text    G=(none)   M=Clipbrd  ACBP=A9
 0001:00028DD8 0000012D C=CODE     S=.text    G=(none)   M=StdActns ACBP=A9
 0001:00028F08 0000DF60 C=CODE     S=.text    G=(none)   M=Forms    ACBP=A9
 0001:00036E68 0001326C C=CODE     S=.text    G=(none)   M=Controls ACBP=A9
 0001:0004A0D4 00006A81 C=CODE     S=.text    G=(none)   M=Menus    ACBP=A9
 0001:00050B58 00001332 C=CODE     S=.text    G=(none)   M=ActnList ACBP=A9
 0001:00051E8C 000016B5 C=CODE     S=.text    G=(none)   M=ImgList  ACBP=A9
 0001:00053544 00000026 C=CODE     S=.text    G=(none)   M=WinSvc   ACBP=A9
 0001:0005356C 00000674 C=CODE     S=.text    G=(none)   M=KeyboardLED_D90 ACBP=A9
 0001:00053BE0 00000282 C=CODE     S=.text    G=(none)   M=Unit1    ACBP=A9
 0001:00053E64 000001D8 C=CODE     S=.text    G=(none)   M=KeybLEDDemo_D90 ACBP=A9
 0002:00000000 00000095 C=ICODE    S=.itext   G=(none)   M=System   ACBP=A9
 0002:00000098 00000011 C=ICODE    S=.itext   G=(none)   M=Windows  ACBP=A9
 0002:000000AC 00000088 C=ICODE    S=.itext   G=(none)   M=SysUtils ACBP=A9
 0002:00000134 0000000F C=ICODE    S=.itext   G=(none)   M=VarUtils ACBP=A9
 0002:00000144 000000AA C=ICODE    S=.itext   G=(none)   M=Variants ACBP=A9
 0002:000001F0 00000008 C=ICODE    S=.itext   G=(none)   M=TypInfo  ACBP=A9
 0002:000001F8 00000092 C=ICODE    S=.itext   G=(none)   M=Classes  ACBP=A9
 0002:0000028C 00000008 C=ICODE    S=.itext   G=(none)   M=IniFiles ACBP=A9
 0002:00000294 00000008 C=ICODE    S=.itext   G=(none)   M=Registry ACBP=A9
 0002:0000029C 000000FB C=ICODE    S=.itext   G=(none)   M=Graphics ACBP=A9
 0002:00000398 0000000F C=ICODE    S=.itext   G=(none)   M=MultiMon ACBP=A9
 0002:000003A8 00000008 C=ICODE    S=.itext   G=(none)   M=HelpIntfs ACBP=A9
 0002:000003B0 00000008 C=ICODE    S=.itext   G=(none)   M=Printers ACBP=A9
 0002:000003B8 0000000F C=ICODE    S=.itext   G=(none)   M=FlatSB   ACBP=A9
 0002:000003C8 0000001B C=ICODE    S=.itext   G=(none)   M=UxTheme  ACBP=A9
 0002:000003E4 00000008 C=ICODE    S=.itext   G=(none)   M=Themes   ACBP=A9
 0002:000003EC 0000007F C=ICODE    S=.itext   G=(none)   M=GraphUtil ACBP=A9
 0002:0000046C 00000044 C=ICODE    S=.itext   G=(none)   M=ExtCtrls ACBP=A9
 0002:000004B0 0000003D C=ICODE    S=.itext   G=(none)   M=Dialogs  ACBP=A9
 0002:000004F0 00000058 C=ICODE    S=.itext   G=(none)   M=Clipbrd  ACBP=A9
 0002:00000548 0000004C C=ICODE    S=.itext   G=(none)   M=Forms    ACBP=A9
 0002:00000594 0000008F C=ICODE    S=.itext   G=(none)   M=Controls ACBP=A9
 0002:00000624 00000085 C=ICODE    S=.itext   G=(none)   M=Menus    ACBP=A9
 0002:000006AC 0000002A C=ICODE    S=.itext   G=(none)   M=ActnList ACBP=A9
 0002:000006D8 00000025 C=ICODE    S=.itext   G=(none)   M=KeyboardLED_D90 ACBP=A9
 0002:00000700 0000004D C=ICODE    S=.itext   G=(none)   M=KeybLEDDemo_D90 ACBP=A9
 0003:00000000 0000078C C=DATA     S=.data    G=DGROUP   M=System   ACBP=A9
 0003:0000078C 00000020 C=DATA     S=.data    G=DGROUP   M=SysInit  ACBP=A9
 0003:000007AC 00000250 C=DATA     S=.data    G=DGROUP   M=SysUtils ACBP=A9
 0003:000009FC 00000008 C=DATA     S=.data    G=DGROUP   M=VarUtils ACBP=A9
 0003:00000A04 0000008E C=DATA     S=.data    G=DGROUP   M=Variants ACBP=A9
 0003:00000A94 0000000C C=DATA     S=.data    G=DGROUP   M=TypInfo  ACBP=A9
 0003:00000AA0 00000064 C=DATA     S=.data    G=DGROUP   M=Classes  ACBP=A9
 0003:00000B04 00000008 C=DATA     S=.data    G=DGROUP   M=IniFiles ACBP=A9
 0003:00000B0C 00000008 C=DATA     S=.data    G=DGROUP   M=Registry ACBP=A9
 0003:00000B14 0000030C C=DATA     S=.data    G=DGROUP   M=Graphics ACBP=A9
 0003:00000E20 00000004 C=DATA     S=.data    G=DGROUP   M=Printers ACBP=A9
 0003:00000E24 00000068 C=DATA     S=.data    G=DGROUP   M=Themes   ACBP=A9
 0003:00000E8C 00000018 C=DATA     S=.data    G=DGROUP   M=StdCtrls ACBP=A9
 0003:00000EA4 00000450 C=DATA     S=.data    G=DGROUP   M=GraphUtil ACBP=A9
 0003:000012F4 00000074 C=DATA     S=.data    G=DGROUP   M=Dialogs  ACBP=A9
 0003:00001368 00000128 C=DATA     S=.data    G=DGROUP   M=Forms    ACBP=A9
 0003:00001490 0000013C C=DATA     S=.data    G=DGROUP   M=Controls ACBP=A9
 0003:000015CC 000000F4 C=DATA     S=.data    G=DGROUP   M=Menus    ACBP=A9
 0003:000016C0 00000020 C=DATA     S=.data    G=DGROUP   M=ImgList  ACBP=A9
 0004:00000000 000027F0 C=BSS      S=.bss     G=DGROUP   M=System   ACBP=A9
 0004:000027F0 0000000C C=BSS      S=.bss     G=DGROUP   M=SysInit  ACBP=A9
 0004:000027FC 00000008 C=BSS      S=.bss     G=DGROUP   M=Windows  ACBP=A9
 0004:00002804 00000A20 C=BSS      S=.bss     G=DGROUP   M=SysUtils ACBP=A9
 0004:00003224 0000005C C=BSS      S=.bss     G=DGROUP   M=VarUtils ACBP=A9
 0004:00003280 00000040 C=BSS      S=.bss     G=DGROUP   M=Variants ACBP=A9
 0004:000032C0 00000004 C=BSS      S=.bss     G=DGROUP   M=TypInfo  ACBP=A9
 0004:000032C4 00000040 C=BSS      S=.bss     G=DGROUP   M=Classes  ACBP=A9
 0004:00003304 00000004 C=BSS      S=.bss     G=DGROUP   M=IniFiles ACBP=A9
 0004:00003308 00000004 C=BSS      S=.bss     G=DGROUP   M=Registry ACBP=A9
 0004:0000330C 00000060 C=BSS      S=.bss     G=DGROUP   M=Graphics ACBP=A9
 0004:0000336C 00000031 C=BSS      S=.bss     G=DGROUP   M=MultiMon ACBP=A9
 0004:000033A0 00000008 C=BSS      S=.bss     G=DGROUP   M=HelpIntfs ACBP=A9
 0004:000033A8 00000004 C=BSS      S=.bss     G=DGROUP   M=Printers ACBP=A9
 0004:000033AC 00000034 C=BSS      S=.bss     G=DGROUP   M=FlatSB   ACBP=A9
 0004:000033E0 000000CC C=BSS      S=.bss     G=DGROUP   M=UxTheme  ACBP=A9
 0004:000034AC 00000008 C=BSS      S=.bss     G=DGROUP   M=Themes   ACBP=A9
 0004:000034B4 00000004 C=BSS      S=.bss     G=DGROUP   M=GraphUtil ACBP=A9
 0004:000034B8 00000008 C=BSS      S=.bss     G=DGROUP   M=ExtCtrls ACBP=A9
 0004:000034C0 0000000C C=BSS      S=.bss     G=DGROUP   M=Dialogs  ACBP=A9
 0004:000034CC 0000000C C=BSS      S=.bss     G=DGROUP   M=Clipbrd  ACBP=A9
 0004:000034D8 00000024 C=BSS      S=.bss     G=DGROUP   M=Forms    ACBP=A9
 0004:000034FC 00000088 C=BSS      S=.bss     G=DGROUP   M=Controls ACBP=A9
 0004:00003584 00000010 C=BSS      S=.bss     G=DGROUP   M=Menus    ACBP=A9
 0004:00003594 00000004 C=BSS      S=.bss     G=DGROUP   M=ActnList ACBP=A9
 0004:00003598 00000008 C=BSS      S=.bss     G=DGROUP   M=ImgList  ACBP=A9
 0004:000035A0 0000000C C=BSS      S=.bss     G=DGROUP   M=KeyboardLED_D90 ACBP=A9
 0004:000035AC 00000004 C=BSS      S=.bss     G=DGROUP   M=Unit1    ACBP=A9
 0005:00000000 00000008 C=TLS      S=.tls     G=(none)   M=System   ACBP=A9
 0005:00000008 00000008 C=TLS      S=.tls     G=(none)   M=Classes  ACBP=A9
 0005:00000010 00000024 C=TLS      S=.tls     G=(none)   M=GraphUtil ACBP=A9


  Address             Publics by Name

 0004:00003594       ActnList..9
 0001:00050F80       ActnList..TActionLink
 0001:00050B58       ActnList..TContainedAction
 0001:00050E78       ActnList..TCustomAction
 0001:00050C7C       ActnList..TCustomActionList
 0001:00050D5C       ActnList..TShortCutList
 0002:000006AC       ActnList.ActnList
 0001:00051E5C       ActnList.Finalization
 0001:00051670       ActnList.TActionLink.IsCaptionLinked
 0001:00051684       ActnList.TActionLink.IsCheckedLinked
 0001:00051698       ActnList.TActionLink.IsEnabledLinked
 0001:000516AC       ActnList.TActionLink.IsGroupIndexLinked
 0001:000516C0       ActnList.TActionLink.IsHelpContextLinked
 0001:000516D4       ActnList.TActionLink.IsHelpLinked
 0001:000516E8       ActnList.TActionLink.IsHintLinked
 0001:000516FC       ActnList.TActionLink.IsImageIndexLinked
 0001:00051710       ActnList.TActionLink.IsShortCutLinked
 0001:00051724       ActnList.TActionLink.IsVisibleLinked
 0001:00051738       ActnList.TActionLink.SetAutoCheck
 0001:0005173C       ActnList.TActionLink.SetCaption
 0001:00051740       ActnList.TActionLink.SetChecked
 0001:00051744       ActnList.TActionLink.SetEnabled
 0001:00051748       ActnList.TActionLink.SetGroupIndex
 0001:0005174C       ActnList.TActionLink.SetHelpContext
 0001:00051750       ActnList.TActionLink.SetHelpKeyword
 0001:00051754       ActnList.TActionLink.SetHelpType
 0001:00051758       ActnList.TActionLink.SetHint
 0001:0005175C       ActnList.TActionLink.SetImageIndex
 0001:00051760       ActnList.TActionLink.SetShortCut
 0001:00051764       ActnList.TActionLink.SetVisible
 0001:00051050       ActnList.TContainedAction.Destroy
 0001:000511BC       ActnList.TContainedAction.Execute
 0001:00051084       ActnList.TContainedAction.GetIndex
 0001:000510A0       ActnList.TContainedAction.GetParentComponent
 0001:000510B0       ActnList.TContainedAction.HasParent
 0001:0005109C       ActnList.TContainedAction.IsCategoryStored
 0001:000510C0       ActnList.TContainedAction.ReadState
 0001:00051168       ActnList.TContainedAction.SetActionList
 0001:0005113C       ActnList.TContainedAction.SetCategory
 0001:000510F4       ActnList.TContainedAction.SetIndex
 0001:00051190       ActnList.TContainedAction.SetParentComponent
 0001:00051214       ActnList.TContainedAction.Update
 0001:0005180C       ActnList.TCustomAction.AssignTo
 0001:00051768       ActnList.TCustomAction.Create
 0001:000517BC       ActnList.TCustomAction.Destroy
 0001:00051D2C       ActnList.TCustomAction.DoHint
 0001:00051D54       ActnList.TCustomAction.Execute
 0001:00051DB8       ActnList.TCustomAction.GetSecondaryShortCuts
 0001:00051DE0       ActnList.TCustomAction.HandleShortCut
 0001:000518BC       ActnList.TCustomAction.SetCaption
 0001:0005191C       ActnList.TCustomAction.SetChecked
 0001:00051A24       ActnList.TCustomAction.SetEnabled
 0001:00051B08       ActnList.TCustomAction.SetHelpContext
 0001:00051AA0       ActnList.TCustomAction.SetHelpKeyword
 0001:00051B60       ActnList.TCustomAction.SetHint
 0001:00051BC0       ActnList.TCustomAction.SetImageIndex
 0001:00051CE0       ActnList.TCustomAction.SetName
 0001:00051C1C       ActnList.TCustomAction.SetShortCut
 0001:00051C80       ActnList.TCustomAction.SetVisible
 0001:00051444       ActnList.TCustomActionList.AddAction
 0001:00051480       ActnList.TCustomActionList.Change
 0001:0005126C       ActnList.TCustomActionList.Create
 0001:000512D8       ActnList.TCustomActionList.Destroy
 0001:0005158C       ActnList.TCustomActionList.ExecuteAction
 0001:000513A0       ActnList.TCustomActionList.GetAction
 0001:000513B4       ActnList.TCustomActionList.GetActionCount
 0001:00051328       ActnList.TCustomActionList.GetChildren
 0001:000513F0       ActnList.TCustomActionList.ImageListChange
 0001:000514E8       ActnList.TCustomActionList.IsShortCut
 0001:000513FC       ActnList.TCustomActionList.Notification
 0001:00051464       ActnList.TCustomActionList.RemoveAction
 0001:00051370       ActnList.TCustomActionList.SetChildOrder
 0001:000513BC       ActnList.TCustomActionList.SetImages
 0001:000515CC       ActnList.TCustomActionList.SetState
 0001:000515AC       ActnList.TCustomActionList.UpdateAction
 0001:00051DEC       ActnList.TShortCutList.Add
 0001:00051E18       ActnList.TShortCutList.IndexOfShortCut
 0004:000032D0       Classes..95
 0001:00011044       Classes..EBitsError
 0001:00010F34       Classes..EClassNotFound
 0001:000110FC       Classes..EComponentError
 0001:00010D78       Classes..EFCreateError
 0001:00010E2C       Classes..EFilerError
 0001:00010D18       Classes..EFileStreamError
 0001:00010DD4       Classes..EFOpenError
 0001:000111B4       Classes..EInvalidOperation
 0001:00010FEC       Classes..EListError
 0001:00011158       Classes..EOutOfResources
 0001:00010E84       Classes..EReadError
 0001:00010F90       Classes..EResNotFound
 0001:00010CBC       Classes..EStreamError
 0001:0001109C       Classes..EStringListError
 0001:00011D20       Classes..EThread
 0001:00010EDC       Classes..EWriteError
 0001:00012048       Classes..TBasicAction
 0001:00011FC8       Classes..TBasicActionLink
 0001:000112D0       Classes..TBits
 0001:00011BCC       Classes..TClassFinder
 0001:00011E68       Classes..TComponent
 0001:000118C0       Classes..TCustomMemoryStream
 0001:00011C28       Classes..TFiler
 0001:00011838       Classes..TFileStream
 0001:000117C0       Classes..THandleStream
 0001:00012EF0       Classes..TIntConst
 0001:00011414       Classes..TInterfacedPersistent
 0001:00011214       Classes..TList
 0001:0001193C       Classes..TMemoryStream
 0001:00011324       Classes..TPersistent
 0001:00015F00       Classes..TPropFixup
 0001:00015F78       Classes..TPropIntfFixup
 0001:00011C8C       Classes..TReader
 0001:000121CC       Classes..TRegGroup
 0001:00012224       Classes..TRegGroups
 0001:000119B8       Classes..TResourceStream
 0001:00011750       Classes..TStream
 0001:00011B44       Classes..TStreamAdapter
 0001:00011638       Classes..TStringList
 0001:00011500       Classes..TStrings
 0001:00011278       Classes..TThreadList
 0001:00012E94       Classes.ActivateClassGroup
 0003:00000AA0       Classes.AddDataModule
 0001:000161D8       Classes.AddFinished
 0001:00016210       Classes.AddNotFinished
 0001:00016D84       Classes.AddSubComponentsToLoaded
 0001:0001A670       Classes.AllocateHWnd
 0003:00000AB0       Classes.ApplicationHandleException
 0003:00000AB8       Classes.ApplicationShowException
 0001:000131EC       Classes.BeginGlobalLoading
 0003:00000AD8       Classes.BlockCode
 0001:00012190       Classes.Bounds
 0001:0001A5AC       Classes.CalcJmpOffset
 0001:00016DC0       Classes.CheckSubComponents
 0001:00019240       Classes.CheckSynchronize
 0002:000001F8       Classes.Classes
 0001:00012C58       Classes.ClassNotFound
 0001:00016EA0       Classes.ComponentCreated
 0001:00016F20       Classes.CreateComponent
 0001:0001A724       Classes.DeallocateHWnd
 0001:00019200       Classes.DoneThreadSynchronization
 0001:0001404C       Classes.DoWrite
 0001:00013274       Classes.EndGlobalLoading
 0001:000127F8       Classes.Error
 0001:00015D38       Classes.Error
 0003:00000AC8       Classes.FilerSignature
 0001:0001A74C       Classes.Finalization
 0001:00012D18       Classes.FindClass
 0001:000170D0       Classes.FindExistingComponent
 0001:00013104       Classes.FindGlobalComponent
 0004:000032DC       Classes.FindGlobalComponentProcs
 0001:00012FAC       Classes.FindIdentToInt
 0001:0001610C       Classes.FindNestedComponent
 0001:00018020       Classes.FindUniqueName
 0001:0001A518       Classes.FreeIntConstList
 0001:0001A64C       Classes.FreeObjectInstance
 0001:00012CC4       Classes.GetClass
 0001:00012C4C       Classes.GetFieldClassTable
 0004:000032E0       Classes.GlobalFixupList
 0001:00016258       Classes.GlobalFixupReferences
 0005:0000000C       Classes.GlobalLists
 0005:00000008       Classes.GlobalLoaded
 0004:000032C4       Classes.GlobalNameSpace
 0001:00012E40       Classes.GroupDescendentsWith
 0001:00017844       Classes.HandleException
 0001:00013028       Classes.IdentToInt
 0001:000132D0       Classes.InitComponent
 0001:00013378       Classes.InitInheritedComponent
 0001:000191CC       Classes.InitThreadSynchronization
 0004:000032FC       Classes.InstBlockList
 0004:00003300       Classes.InstFreeList
 0004:000032D4       Classes.IntConstList
 0001:00013168       Classes.InternalReadComponentRes
 0001:00013068       Classes.IntToIdent
 0001:000121B8       Classes.InvalidPoint
 0001:00013144       Classes.IsUniqueGlobalComponentName
 0004:000032C8       Classes.IsUniqueGlobalComponentNameProc
 0001:0001A5B4       Classes.MakeObjectInstance
 0001:000139E8       Classes.Min
 0001:0001A584       Classes.ModuleUnload
 0003:00000ACC       Classes.NilMethod
 0001:00013244       Classes.NotifyGlobalLoading
 0001:00012140       Classes.Point
 0001:00012584       Classes.PointerInModule
 0001:00016578       Classes.PropertyNotFound
 0001:00017944       Classes.PropPathError
 0001:0001656C       Classes.PropValueError
 0001:00015528       Classes.RaiseException
 0001:00018BD4       Classes.ReadCustomVariant
 0001:00016554       Classes.ReadError
 0001:00016EC0       Classes.Recover
 0001:00012168       Classes.Rect
 0004:000032D8       Classes.RegGroups
 0001:00012D38       Classes.RegisterClass
 0001:000130AC       Classes.RegisterFindGlobalComponentProc
 0001:00012F80       Classes.RegisterIntegerConsts
 0003:00000AA8       Classes.RemoveDataModule
 0001:00016424       Classes.RemoveFixupReferences
 0001:000164D0       Classes.RemoveFixups
 0001:00016868       Classes.RemoveGlobalFixup
 0001:00019218       Classes.ResetSyncEvent
 0001:000141AC       Classes.ReturnAddr
 0001:00013510       Classes.ReturnAddr
 0001:00017030       Classes.SetCompName
 0001:000165A4       Classes.SetElementValue
 0001:00017C48       Classes.SetInterfaceReference
 0001:00017B64       Classes.SetIntIdent
 0001:00017BAC       Classes.SetObjectIdent
 0001:00016E38       Classes.SetSubComponentState
 0001:00017BEC       Classes.SetVariantReference
 0001:000186F4       Classes.SkipBinary
 0001:00018724       Classes.SkipCollection
 0001:000186CC       Classes.SkipList
 0001:00012158       Classes.SmallPoint
 0001:00012DF4       Classes.StartClassGroup
 0001:0001A58C       Classes.StdWndProc
 0001:00015350       Classes.StringListCompareStrings
 0004:000032CC       Classes.SyncEvent
 0003:00000AD4       Classes.SyncList
 0001:00019F84       Classes.TBasicAction.Change
 0001:00019E18       Classes.TBasicAction.Create
 0001:00019E5C       Classes.TBasicAction.Destroy
 0001:00019EF0       Classes.TBasicAction.Execute
 0001:00019EC0       Classes.TBasicAction.ExecuteTarget
 0001:00019EBC       Classes.TBasicAction.HandlesTarget
 0001:00019EC4       Classes.TBasicAction.Notification
 0001:00019F98       Classes.TBasicAction.RegisterChanges
 0001:00019FE4       Classes.TBasicAction.SetActionComponent
 0001:00019F28       Classes.TBasicAction.SetOnExecute
 0001:00019FA4       Classes.TBasicAction.UnRegisterChanges
 0001:00019F0C       Classes.TBasicAction.Update
 0001:00019EEC       Classes.TBasicAction.UpdateTarget
 0001:00019D68       Classes.TBasicActionLink.AssignClient
 0001:00019DA0       Classes.TBasicActionLink.Change
 0001:00019D24       Classes.TBasicActionLink.Create
 0001:00019D6C       Classes.TBasicActionLink.Destroy
 0001:00019DB8       Classes.TBasicActionLink.Execute
 0001:00019E00       Classes.TBasicActionLink.IsOnExecuteLinked
 0001:00019DD4       Classes.TBasicActionLink.SetAction
 0001:00019E04       Classes.TBasicActionLink.SetOnExecute
 0001:00019E0C       Classes.TBasicActionLink.Update
 0001:000139A0       Classes.TBits.Destroy
 0001:000139D0       Classes.TBits.Error
 0001:00013AC4       Classes.TBits.OpenBit
 0001:00013A98       Classes.TBits.SetBit
 0001:000139F4       Classes.TBits.SetSize
 0001:00012A68       Classes.TClassFinder.Create
 0001:00012B94       Classes.TClassFinder.Destroy
 0001:00012BC4       Classes.TClassFinder.GetClass
 0001:00013DC4       Classes.TCollection.Add
 0001:00013DE4       Classes.TCollection.Clear
 0001:000194E0       Classes.TComponent.BeforeDestruction
 0001:00019AF4       Classes.TComponent.ChangeName
 0001:00019418       Classes.TComponent.Create
 0001:00019884       Classes.TComponent.DefineProperties
 0001:00019464       Classes.TComponent.Destroy
 0001:0001974C       Classes.TComponent.DestroyComponents
 0001:000197A8       Classes.TComponent.Destroying
 0001:00019C30       Classes.TComponent.ExecuteAction
 0001:00019A14       Classes.TComponent.FindComponent
 0001:000194EC       Classes.TComponent.FreeNotification
 0001:00019918       Classes.TComponent.GetChildOwner
 0001:0001991C       Classes.TComponent.GetChildParent
 0001:00019910       Classes.TComponent.GetChildren
 0001:00019B08       Classes.TComponent.GetComponent
 0001:00019B34       Classes.TComponent.GetComponentCount
 0001:00019920       Classes.TComponent.GetNamePath
 0001:00019934       Classes.TComponent.GetOwner
 0001:0001993C       Classes.TComponent.GetParentComponent
 0001:0001990C       Classes.TComponent.HasParent
 0001:0001965C       Classes.TComponent.Insert
 0001:000196B0       Classes.TComponent.InsertComponent
 0001:00019D20       Classes.TComponent.IntfGetComponent
 0001:0001995C       Classes.TComponent.Loaded
 0001:00019824       Classes.TComponent.Notification
 0001:00019968       Classes.TComponent.PaletteCreated
 0001:00019CA0       Classes.TComponent.QueryInterface
 0001:0001961C       Classes.TComponent.ReadLeft
 0001:0001996C       Classes.TComponent.ReadState
 0001:00019630       Classes.TComponent.ReadTop
 0001:00019688       Classes.TComponent.Remove
 0001:00019714       Classes.TComponent.RemoveComponent
 0001:00019808       Classes.TComponent.RemoveFreeNotification
 0001:000197E4       Classes.TComponent.RemoveNotification
 0001:00019C80       Classes.TComponent.SafeCallException
 0001:00019938       Classes.TComponent.SetChildOrder
 0001:00019B44       Classes.TComponent.SetComponentIndex
 0001:00019B98       Classes.TComponent.SetDesigning
 0001:00019A64       Classes.TComponent.SetName
 0001:00019940       Classes.TComponent.SetParentComponent
 0001:00019BE8       Classes.TComponent.SetReference
 0001:00019C58       Classes.TComponent.UpdateAction
 0001:00019950       Classes.TComponent.Updated
 0001:00019C98       Classes.TComponent.UpdateRegistry
 0001:00019944       Classes.TComponent.Updating
 0001:000199FC       Classes.TComponent.ValidateContainer
 0001:00019A10       Classes.TComponent.ValidateInsert
 0001:0001997C       Classes.TComponent.ValidateRename
 0001:00019644       Classes.TComponent.WriteLeft
 0001:00019974       Classes.TComponent.WriteState
 0001:00019650       Classes.TComponent.WriteTop
 0001:00019CE0       Classes.TComponent._AddRef
 0001:00019D00       Classes.TComponent._Release
 0001:00015AE4       Classes.TCustomMemoryStream.Read
 0001:00015B1C       Classes.TCustomMemoryStream.Seek
 0001:00015ADC       Classes.TCustomMemoryStream.SetPointer
 0001:00015E8C       Classes.TFiler.Create
 0001:00015ED4       Classes.TFiler.Destroy
 0001:00015EFC       Classes.TFiler.SetRoot
 0001:00015934       Classes.TFileStream.Create
 0001:000158F0       Classes.TFileStream.Create
 0001:00015AA8       Classes.TFileStream.Destroy
 0001:0001582C       Classes.THandleStream.Create
 0001:00015868       Classes.THandleStream.Read
 0001:00015888       Classes.THandleStream.Seek
 0001:000158C8       Classes.THandleStream.SetSize
 0001:000158B4       Classes.THandleStream.SetSize
 0001:00015878       Classes.THandleStream.Write
 0004:000032E4       Classes.ThreadLock
 0001:00012F48       Classes.TIntConst.Create
 0001:00013D0C       Classes.TInterfacedPersistent.AfterConstruction
 0001:00013D9C       Classes.TInterfacedPersistent.QueryInterface
 0001:00013D5C       Classes.TInterfacedPersistent._AddRef
 0001:00013D7C       Classes.TInterfacedPersistent._Release
 0001:00013460       Classes.TList.Add
 0001:00013494       Classes.TList.Clear
 0001:000134AC       Classes.TList.Delete
 0001:00013440       Classes.TList.Destroy
 0001:00013514       Classes.TList.Error
 0001:0001354C       Classes.TList.Error
 0001:000135A0       Classes.TList.Expand
 0001:000135B8       Classes.TList.First
 0001:000135C0       Classes.TList.Get
 0001:000135E8       Classes.TList.Grow
 0001:0001361C       Classes.TList.IndexOf
 0001:0001363C       Classes.TList.Insert
 0001:000136A8       Classes.TList.Last
 0001:000137D4       Classes.TList.Notify
 0001:000136B4       Classes.TList.Put
 0001:00013704       Classes.TList.Remove
 0001:00013724       Classes.TList.SetCapacity
 0001:00013760       Classes.TList.SetCount
 0001:00015B6C       Classes.TMemoryStream.Clear
 0001:00015B40       Classes.TMemoryStream.Destroy
 0001:00015B84       Classes.TMemoryStream.LoadFromStream
 0001:00015C10       Classes.TMemoryStream.Realloc
 0001:00015BBC       Classes.TMemoryStream.SetCapacity
 0001:00015BE4       Classes.TMemoryStream.SetSize
 0001:00015C90       Classes.TMemoryStream.Write
 0001:00013B68       Classes.TPersistent.Assign
 0001:00013B7C       Classes.TPersistent.AssignError
 0001:00013C4C       Classes.TPersistent.AssignTo
 0001:00013C54       Classes.TPersistent.DefineProperties
 0001:00013B3C       Classes.TPersistent.Destroy
 0001:00013C58       Classes.TPersistent.GetNamePath
 0001:00013D08       Classes.TPersistent.GetOwner
 0001:00015FD8       Classes.TPropFixup.Create
 0001:00016030       Classes.TPropFixup.MakeGlobalReference
 0001:00016078       Classes.TPropFixup.ResolveReference
 0001:00016088       Classes.TPropIntfFixup.ResolveReference
 0001:000165F8       Classes.TReader.CheckValue
 0001:00016658       Classes.TReader.DefineBinaryProperty
 0001:0001661C       Classes.TReader.DefineProperty
 0001:000165BC       Classes.TReader.Destroy
 0001:000168E4       Classes.TReader.DoFixupReferences
 0001:00016740       Classes.TReader.EndOfList
 0001:00016754       Classes.TReader.Error
 0001:00018A20       Classes.TReader.FindAncestorComponent
 0001:00018B18       Classes.TReader.FindComponentClass
 0001:00016800       Classes.TReader.FindMethod
 0001:00016778       Classes.TReader.FindMethodInstance
 0001:00016A28       Classes.TReader.FlushBuffer
 0001:00016A4C       Classes.TReader.FreeFixups
 0001:00016A88       Classes.TReader.GetFieldClass
 0001:00016B20       Classes.TReader.GetPosition
 0001:00016B38       Classes.TReader.NextValue
 0001:00016B48       Classes.TReader.PropertyError
 0001:00016B5C       Classes.TReader.Read
 0001:00016BE4       Classes.TReader.ReadBoolean
 0001:00016BA8       Classes.TReader.ReadBuffer
 0001:00016BF8       Classes.TReader.ReadChar
 0001:00016CB4       Classes.TReader.ReadCollection
 0001:00017174       Classes.TReader.ReadComponent
 0001:000175B4       Classes.TReader.ReadCurrency
 0001:000173B4       Classes.TReader.ReadData
 0001:00017424       Classes.TReader.ReadDataInner
 0001:00017604       Classes.TReader.ReadDate
 0001:0001752C       Classes.TReader.ReadDouble
 0001:000174F4       Classes.TReader.ReadFloat
 0001:00017648       Classes.TReader.ReadIdent
 0001:000177B0       Classes.TReader.ReadInt64
 0001:00017744       Classes.TReader.ReadInteger
 0001:000177F4       Classes.TReader.ReadListBegin
 0001:000177FC       Classes.TReader.ReadListEnd
 0001:00017804       Classes.TReader.ReadPrefix
 0001:00017960       Classes.TReader.ReadProperty
 0001:00017D08       Classes.TReader.ReadPropValue
 0001:00018080       Classes.TReader.ReadRootComponent
 0001:000183B4       Classes.TReader.ReadSet
 0001:00018470       Classes.TReader.ReadSignature
 0001:00017570       Classes.TReader.ReadSingle
 0001:00018494       Classes.TReader.ReadStr
 0001:000184D0       Classes.TReader.ReadString
 0001:00018670       Classes.TReader.ReadValue
 0001:00018D9C       Classes.TReader.ReadVariant
 0001:00016C58       Classes.TReader.ReadWideChar
 0001:0001858C       Classes.TReader.ReadWideString
 0001:00018AD8       Classes.TReader.ReferenceName
 0001:00018AF0       Classes.TReader.SetName
 0001:00018B8C       Classes.TReader.SkipBytes
 0001:00018978       Classes.TReader.SkipComponent
 0001:00018930       Classes.TReader.SkipProperty
 0001:00018684       Classes.TReader.SkipSetBody
 0001:00018780       Classes.TReader.SkipValue
 0001:0001227C       Classes.TRegGroup.AddClass
 0001:00012288       Classes.TRegGroup.BestClass
 0001:000122E8       Classes.TRegGroup.BestGroup
 0001:00012358       Classes.TRegGroup.Create
 0001:000123B4       Classes.TRegGroup.Destroy
 0001:000123F4       Classes.TRegGroup.GetClass
 0001:0001245C       Classes.TRegGroup.InGroup
 0001:000124A0       Classes.TRegGroup.RegisterClass
 0001:00012560       Classes.TRegGroup.Registered
 0001:000125A4       Classes.TRegGroup.UnregisterModuleClasses
 0001:00012650       Classes.TRegGroups.Activate
 0001:0001269C       Classes.TRegGroups.Create
 0001:00012710       Classes.TRegGroups.Destroy
 0001:00012770       Classes.TRegGroups.FindGroup
 0001:000127B4       Classes.TRegGroups.GetClass
 0001:00012888       Classes.TRegGroups.GroupWith
 0001:00012954       Classes.TRegGroups.Lock
 0001:00012960       Classes.TRegGroups.RegisterClass
 0001:00012978       Classes.TRegGroups.Registered
 0001:000129BC       Classes.TRegGroups.StartGroup
 0001:00012A0C       Classes.TRegGroups.Unlock
 0001:00012A18       Classes.TRegGroups.UnregisterModuleClasses
 0001:00015CE0       Classes.TResourceStream.Create
 0001:00015E44       Classes.TResourceStream.Destroy
 0001:00015DD8       Classes.TResourceStream.Initialize
 0001:00015E74       Classes.TResourceStream.Write
 0001:000156D8       Classes.TStream.CopyFrom
 0001:0001543C       Classes.TStream.GetPosition
 0001:00015470       Classes.TStream.GetSize
 0001:00015668       Classes.TStream.ReadBuffer
 0001:000157CC       Classes.TStream.ReadComponent
 0001:00015574       Classes.TStream.Seek
 0001:000155F8       Classes.TStream.Seek
 0001:0001545C       Classes.TStream.SetPosition
 0001:000154D4       Classes.TStream.SetSize
 0001:000154BC       Classes.TStream.SetSize
 0001:000154C0       Classes.TStream.SetSize64
 0001:000156A0       Classes.TStream.WriteBuffer
 0001:0001A500       Classes.TStreamAdapter.Clone
 0001:0001A454       Classes.TStreamAdapter.Commit
 0001:0001A24C       Classes.TStreamAdapter.CopyTo
 0001:0001A010       Classes.TStreamAdapter.Create
 0001:0001A05C       Classes.TStreamAdapter.Destroy
 0001:0001A46C       Classes.TStreamAdapter.LockRegion
 0001:0001A094       Classes.TStreamAdapter.Read
 0001:0001A460       Classes.TStreamAdapter.Revert
 0001:0001A164       Classes.TStreamAdapter.Seek
 0001:0001A1E8       Classes.TStreamAdapter.SetSize
 0001:0001A484       Classes.TStreamAdapter.Stat
 0001:0001A478       Classes.TStreamAdapter.UnlockRegion
 0001:0001A0FC       Classes.TStreamAdapter.Write
 0001:00014DBC       Classes.TStringList.Add
 0001:00014DCC       Classes.TStringList.AddObject
 0001:00014E30       Classes.TStringList.Changed
 0001:00014E4C       Classes.TStringList.Changing
 0001:00014E68       Classes.TStringList.Clear
 0001:000153B8       Classes.TStringList.CompareStrings
 0001:00015380       Classes.TStringList.CustomSort
 0001:00014EA8       Classes.TStringList.Delete
 0001:00014D60       Classes.TStringList.Destroy
 0001:00014F14       Classes.TStringList.Exchange
 0001:00014F70       Classes.TStringList.ExchangeItems
 0001:00014F94       Classes.TStringList.Find
 0001:00015018       Classes.TStringList.Get
 0001:0001504C       Classes.TStringList.GetCapacity
 0001:00015050       Classes.TStringList.GetCount
 0001:00015054       Classes.TStringList.GetObject
 0001:0001507C       Classes.TStringList.Grow
 0001:000150B0       Classes.TStringList.IndexOf
 0001:000150EC       Classes.TStringList.Insert
 0001:00015150       Classes.TStringList.InsertItem
 0001:000150FC       Classes.TStringList.InsertObject
 0001:000151CC       Classes.TStringList.Put
 0001:00015228       Classes.TStringList.PutObject
 0001:00015268       Classes.TStringList.QuickSort
 0001:000152FC       Classes.TStringList.SetCapacity
 0001:00015318       Classes.TStringList.SetSorted
 0001:00015338       Classes.TStringList.SetUpdateState
 0001:00015370       Classes.TStringList.Sort
 0001:00013E7C       Classes.TStrings.Add
 0001:00013EA0       Classes.TStrings.AddObject
 0001:00013EC4       Classes.TStrings.AddStrings
 0001:00013F7C       Classes.TStrings.Assign
 0001:00014034       Classes.TStrings.BeginUpdate
 0001:00014CE8       Classes.TStrings.CompareStrings
 0001:000140A4       Classes.TStrings.DefineProperties
 0001:00013E4C       Classes.TStrings.Destroy
 0001:000140F0       Classes.TStrings.EndUpdate
 0001:00014104       Classes.TStrings.Equals
 0001:000141E8       Classes.TStrings.Error
 0001:000141B0       Classes.TStrings.Error
 0001:00014240       Classes.TStrings.Exchange
 0001:0001432C       Classes.TStrings.GetCapacity
 0001:00014C88       Classes.TStrings.GetLineBreak
 0001:00014D2C       Classes.TStrings.GetNameValueSeparator
 0001:00014334       Classes.TStrings.GetObject
 0001:00014338       Classes.TStrings.GetText
 0001:0001438C       Classes.TStrings.GetTextStr
 0001:000144C4       Classes.TStrings.IndexOf
 0001:00014550       Classes.TStrings.IndexOfName
 0001:00014624       Classes.TStrings.IndexOfObject
 0001:00014658       Classes.TStrings.InsertObject
 0001:00014688       Classes.TStrings.LoadFromFile
 0001:000146DC       Classes.TStrings.LoadFromStream
 0001:00014788       Classes.TStrings.Move
 0001:00014838       Classes.TStrings.Put
 0001:00014868       Classes.TStrings.PutObject
 0001:0001486C       Classes.TStrings.ReadData
 0001:0001491C       Classes.TStrings.SaveToFile
 0001:00014974       Classes.TStrings.SaveToStream
 0001:000149D4       Classes.TStrings.SetCapacity
 0001:00014CBC       Classes.TStrings.SetLineBreak
 0001:00014D44       Classes.TStrings.SetNameValueSeparator
 0001:000149D8       Classes.TStrings.SetStringsAdapter
 0001:00014A0C       Classes.TStrings.SetText
 0001:00014A5C       Classes.TStrings.SetTextStr
 0001:00014C00       Classes.TStrings.SetUpdateState
 0001:00014C04       Classes.TStrings.WriteData
 0001:000138A8       Classes.TThreadList.Add
 0001:000137D8       Classes.TThreadList.Create
 0001:0001382C       Classes.TThreadList.Destroy
 0001:00013930       Classes.TThreadList.LockList
 0001:00013944       Classes.TThreadList.Remove
 0001:00013994       Classes.TThreadList.UnlockList
 0001:00018FBC       Classes.TWriter.Write
 0001:00019020       Classes.TWriter.WriteBoolean
 0001:00019008       Classes.TWriter.WriteBuffer
 0001:00019034       Classes.TWriter.WriteInteger
 0001:000190A8       Classes.TWriter.WriteListBegin
 0001:000190B0       Classes.TWriter.WriteListEnd
 0001:000190B8       Classes.TWriter.WriteMinStr
 0001:00019164       Classes.TWriter.WriteString
 0001:000191B8       Classes.TWriter.WriteValue
 0001:000130EC       Classes.UnregisterFindGlobalComponentProc
 0001:00012DA8       Classes.UnRegisterModuleClasses
 0003:00000ADC       Classes.UtilWindowClass
 0001:00019224       Classes.WaitForSyncEvent
 0003:00000AC0       Classes.WakeMainThread
 0004:000034D0       Clipbrd..2
 0004:000034CE       Clipbrd.CF_COMPONENT
 0004:000034CC       Clipbrd.CF_PICTURE
 0002:000004F0       Clipbrd.Clipbrd
 0004:000034D4       Clipbrd.FClipboard
 0001:00028D9C       Clipbrd.Finalization
 0001:000227B4       CommCtrl.ImageList_Add
 0001:000227E4       CommCtrl.ImageList_BeginDrag
 0001:0002279C       CommCtrl.ImageList_Create
 0001:000227A4       CommCtrl.ImageList_Destroy
 0001:000227F4       CommCtrl.ImageList_DragEnter
 0001:000227FC       CommCtrl.ImageList_DragLeave
 0001:00022804       CommCtrl.ImageList_DragMove
 0001:0002280C       CommCtrl.ImageList_DragShowNolock
 0001:000227CC       CommCtrl.ImageList_Draw
 0001:000227D4       CommCtrl.ImageList_DrawEx
 0001:000227EC       CommCtrl.ImageList_EndDrag
 0001:000227C4       CommCtrl.ImageList_GetBkColor
 0001:00022824       CommCtrl.ImageList_GetIconSize
 0001:000227AC       CommCtrl.ImageList_GetImageCount
 0001:00022814       CommCtrl.ImageList_Read
 0001:000227DC       CommCtrl.ImageList_Remove
 0001:000227BC       CommCtrl.ImageList_SetBkColor
 0001:0002282C       CommCtrl.ImageList_SetIconSize
 0001:0002281C       CommCtrl.ImageList_Write
 0001:00022834       CommCtrl._TrackMouseEvent
 0001:00022524       Contnrs..TObjectList
 0001:0002258C       Contnrs..TOrderedList
 0001:000225F4       Contnrs..TStack
 0001:00022654       Contnrs.TObjectList.Create
 0001:00022690       Contnrs.TObjectList.GetItem
 0001:000226A4       Contnrs.TObjectList.Notify
 0001:000226E8       Contnrs.TOrderedList.Create
 0001:0002272C       Contnrs.TOrderedList.Destroy
 0001:0002275C       Contnrs.TOrderedList.PeekItem
 0001:000226D0       Contnrs.TOrderedList.Pop
 0001:00022770       Contnrs.TOrderedList.PopItem
 0001:000226D8       Contnrs.TOrderedList.Push
 0001:00022790       Contnrs.TStack.PushItem
 0004:0000350C       Controls..33
 0001:00036F9C       Controls..TBaseDragControlObject
 0001:00038328       Controls..TControl
 0001:0003746C       Controls..TControlActionLink
 0001:000372E4       Controls..TControlCanvas
 0001:00038E38       Controls..TCustomControl
 0001:00037384       Controls..TCustomControlAction
 0001:00039280       Controls..TDockTree
 0001:00039134       Controls..TDockZone
 0001:00037060       Controls..TDragControlObject
 0001:000370EC       Controls..TDragControlObjectEx
 0001:0003717C       Controls..TDragDockObject
 0001:00037244       Controls..TDragDockObjectEx
 0001:00036EF8       Controls..TDragObject
 0001:00038FA4       Controls..THintWindow
 0001:000378BC       Controls..TMargins
 0001:00039324       Controls..TMouse
 0001:000379D4       Controls..TPadding
 0001:00039874       Controls..TSiteList
 0001:00037770       Controls..TSizeConstraints
 0001:00038A28       Controls..TWinControl
 0001:00038798       Controls..TWinControlActionLink
 0001:00039EE4       Controls.AbsMin
 0004:00003540       Controls.ActiveDrag
 0001:000401E8       Controls.AlignWork
 0003:0000149C       Controls.AnchorAlign
 0003:00001490       Controls.AnimateWindowProc
 0003:00001598       Controls.AnimationStyle
 0001:0003CE34       Controls.BackgroundClipped
 0001:00049240       Controls.CalcSplitterPos
 0001:0003AF88       Controls.CancelDrag
 0004:00003554       Controls.CanvasList
 0003:00001554       Controls.CaptureControl
 0001:0003ABF0       Controls.CheckUndock
 0001:000460C8       Controls.ClientToWindow
 0004:00003512       Controls.ControlAtom
 0004:00003518       Controls.ControlAtomString
 0002:00000594       Controls.Controls
 0003:00001494       Controls.CreationControl
 0003:00001590       Controls.Ctl3DStyles
 0003:000014A4       Controls.Cursors
 0001:0003970C       Controls.CursorToIdent
 0003:00001498       Controls.DefaultDockTreeClass
 0001:00041174       Controls.DestroyChildWindow
 0001:0004005C       Controls.DoAlign
 0001:00044BE0       Controls.DoCalcConstraints
 0004:00003548       Controls.DockSiteList
 0001:00041ED0       Controls.DoControlMsg
 0001:0003A4F8       Controls.DoDragOver
 0001:00046D48       Controls.DoFindControlZone
 0001:00047470       Controls.DoFindZone
 0001:00046DCC       Controls.DoForEach
 0001:00048A14       Controls.DoGetNextLimit
 0001:00049A4C       Controls.DoneControls
 0001:00040014       Controls.DoPosition
 0001:00047F24       Controls.DoPrune
 0001:00048438       Controls.DoSaveZone
 0001:000486FC       Controls.DoSetNewBounds
 0001:00040E20       Controls.DoWriteDesignSize
 0001:0003E1A8       Controls.DoWriteExplicit
 0001:0003E174       Controls.DoWriteIsControl
 0004:0000352C       Controls.DragCapture
 0004:00003520       Controls.DragControl
 0001:0003AC64       Controls.DragDone
 0001:0003A4A8       Controls.DragFindTarget
 0001:0003A47C       Controls.DragFindWindow
 0004:00003544       Controls.DragImageList
 0001:0003A8BC       Controls.DragInit
 0001:0003AA2C       Controls.DragInitControl
 0004:00003528       Controls.DragInternalObject
 0001:0003A3C4       Controls.DragMessage
 0004:00003524       Controls.DragObject
 0004:00003550       Controls.DragSave
 0004:00003538       Controls.DragSaveCursor
 0004:00003530       Controls.DragStartPos
 0004:0000353C       Controls.DragThreshold
 0001:0003A5D4       Controls.DragTo
 0001:000479A8       Controls.DrawCloseButton
 0001:00047A3C       Controls.DrawGrabberLine
 0001:00047AC4       Controls.DrawThemedGrabber
 0003:00001580       Controls.EdgeStyles
 0001:0004A06C       Controls.Finalization
 0001:000394BC       Controls.FindControl
 0001:0003AFD4       Controls.FindDragTarget
 0001:0003AFA0       Controls.FindVCLWindow
 0001:0003B098       Controls.FreeDeviceContext
 0001:0003B154       Controls.FreeDeviceContexts
 0001:00039808       Controls.GetCaptureControl
 0001:0003FE84       Controls.GetClientSize
 0001:00041594       Controls.GetControlAtPos
 0001:00048AF4       Controls.GetDockAlign
 0001:0003A214       Controls.GetDockSiteAtPos
 0001:0003A534       Controls.GetDropCtl
 0001:00046A78       Controls.GetLastChildZone
 0001:00039770       Controls.GetLongHint
 0001:0003972C       Controls.GetShortHint
 0001:00039914       Controls.GetTopParent
 0001:00048B70       Controls.HideZone
 0001:0003971C       Controls.IdentToCursor
 0003:000015C0       Controls.IMM32DLL
 0001:00049A38       Controls.Imm32IsIME
 0001:00049AD4       Controls.InitControls
 0001:000496DC       Controls.InitIMM32
 0001:00039378       Controls.InitWndProc
 0003:00001560       Controls.InnerStyles
 0001:0003FEE4       Controls.InsertBefore
 0001:00039FC8       Controls.IsBeforeTargetWindow
 0001:0003A41C       Controls.IsDelphiHandle
 0001:000464AC       Controls.IsOrientationSet
 0001:0003A1D0       Controls.IsSiteChildOfClient
 0001:00039518       Controls.IsVCLControl
 0004:00003500       Controls.IsVCLControlHook
 0001:0003B020       Controls.ListAdd
 0001:0003B048       Controls.ListRemove
 0003:000015AC       Controls.MakeLast
 0001:0003F26C       Controls.MinVar
 0003:000015C4       Controls.ModeMap
 0004:000034FC       Controls.Mouse
 0001:0003B068       Controls.MoveWindowOrg
 0004:00003508       Controls.NewStyleControls
 0001:00046490       Controls.NextVisibleZone
 0001:00039488       Controls.ObjectFromHWnd
 0003:000015A4       Controls.OrientArray
 0003:00001570       Controls.OuterStyles
 0001:000468A0       Controls.ParentNotLast
 0001:000397B4       Controls.PerformEraseBackground
 0001:00040E0C       Controls.PointsEqual
 0004:0000354C       Controls.QualifyingSites
 0001:0004760C       Controls.ReadControlName
 0001:0003A368       Controls.RegisterDockSite
 0004:0000351C       Controls.RM_GetObjectInstance
 0001:00039548       Controls.SendAppMessage
 0001:00039830       Controls.SetCaptureControl
 0001:00049960       Controls.SetImeMode
 0003:00001558       Controls.ShowFlags
 0001:00048BF0       Controls.ShowZone
 0003:000015B8       Controls.SizeCursors
 0001:00039CE4       Controls.TBaseDragControlObject.Assign
 0001:00039CC0       Controls.TBaseDragControlObject.Create
 0001:00039D10       Controls.TBaseDragControlObject.EndDrag
 0001:00039D34       Controls.TBaseDragControlObject.Finished
 0001:0003EF9C       Controls.TControl.ActionChange
 0001:0003F38C       Controls.TControl.AdjustSize
 0001:0003F1C0       Controls.TControl.AssignTo
 0001:0003D188       Controls.TControl.BeginAutoDrag
 0001:0003D1A4       Controls.TControl.BeginDrag
 0001:0003CCCC       Controls.TControl.BringToFront
 0001:0003DBEC       Controls.TControl.CalcCursorPos
 0001:0003DD54       Controls.TControl.CalcDockSizes
 0001:0003DAEC       Controls.TControl.CanAutoSize
 0001:0003DAF0       Controls.TControl.CanResize
 0001:0003C664       Controls.TControl.Changed
 0001:0003C674       Controls.TControl.ChangeScale
 0001:0003E764       Controls.TControl.CheckNewSize
 0001:0003E558       Controls.TControl.Click
 0001:0003C4EC       Controls.TControl.ClientToScreen
 0001:0003ECF4       Controls.TControl.CMBiDiModeChanged
 0001:0003EC20       Controls.TControl.CMColorChanged
 0001:0003EE24       Controls.TControl.CMDesignHitTest
 0001:0003EC00       Controls.TControl.CMEnabledChanged
 0001:0003EF3C       Controls.TControl.CMFloat
 0001:0003EC10       Controls.TControl.CMFontChanged
 0001:0003F3D8       Controls.TControl.CMHintShow
 0001:0003EDA4       Controls.TControl.CMHitTest
 0001:0003F58C       Controls.TControl.CMMouseActivate
 0001:0003EDAC       Controls.TControl.CMMouseEnter
 0001:0003EDE8       Controls.TControl.CMMouseLeave
 0001:0003EC84       Controls.TControl.CMMouseWheel
 0001:0003EC60       Controls.TControl.CMParentBiDiModeChanged
 0001:0003EC30       Controls.TControl.CMParentColorChanged
 0001:0003ED50       Controls.TControl.CMParentFontChanged
 0001:0003ED14       Controls.TControl.CMParentShowHintChanged
 0001:0003ED80       Controls.TControl.CMSysFontChanged
 0001:0003EBD8       Controls.TControl.CMVisibleChanged
 0001:0003DBBC       Controls.TControl.ConstrainedResize
 0001:0003B8C4       Controls.TControl.Create
 0001:0003EE2C       Controls.TControl.CreateFloatingDockSite
 0001:0003E5C4       Controls.TControl.DblClick
 0001:0003D62C       Controls.TControl.DefaultDockImage
 0001:0003E0CC       Controls.TControl.DefaultHandler
 0001:0003E3C8       Controls.TControl.DefineProperties
 0001:0003DC18       Controls.TControl.DesignWndProc
 0001:0003B9BC       Controls.TControl.Destroy
 0001:0003F09C       Controls.TControl.DoActionChange
 0001:0003DB20       Controls.TControl.DoCanAutoSize
 0001:0003DB8C       Controls.TControl.DoCanResize
 0001:0003C1BC       Controls.TControl.Dock
 0001:0003D428       Controls.TControl.DockTrackNoTarget
 0001:0003DC4C       Controls.TControl.DoConstrainedResize
 0001:0003DADC       Controls.TControl.DoConstraintsChange
 0001:0003F54C       Controls.TControl.DoContextPopup
 0001:0003C2EC       Controls.TControl.DoDock
 0001:0003D778       Controls.TControl.DoDragMsg
 0001:0003D440       Controls.TControl.DoEndDock
 0001:0003D328       Controls.TControl.DoEndDrag
 0001:0003F5B0       Controls.TControl.DoMarginChange
 0001:0003D48C       Controls.TControl.DoMouseActivate
 0001:0003E61C       Controls.TControl.DoMouseDown
 0001:0003E994       Controls.TControl.DoMouseUp
 0001:0003D4C0       Controls.TControl.DoMouseWheel
 0001:0003D594       Controls.TControl.DoMouseWheelDown
 0001:0003D5E0       Controls.TControl.DoMouseWheelUp
 0001:0003D46C       Controls.TControl.DoStartDock
 0001:0003D308       Controls.TControl.DoStartDrag
 0001:0003D290       Controls.TControl.DragCanceled
 0001:0003D2DC       Controls.TControl.DragDrop
 0001:0003D294       Controls.TControl.Dragging
 0001:0003D2A0       Controls.TControl.DragOver
 0001:0003D758       Controls.TControl.DrawDragDockImage
 0001:0003F3AC       Controls.TControl.DrawTextBiDiModeFlagsReadingOnly
 0001:0003D768       Controls.TControl.EraseDragDockImage
 0001:0003CB1C       Controls.TControl.FontChanged
 0001:0003BB44       Controls.TControl.GetAction
 0001:0003F0C0       Controls.TControl.GetActionLinkClass
 0001:0003F5C4       Controls.TControl.GetAlignWithMargins
 0001:0003C37C       Controls.TControl.GetBoundsRect
 0001:0003C41C       Controls.TControl.GetClientHeight
 0001:0003C45C       Controls.TControl.GetClientOrigin
 0001:0003C3C0       Controls.TControl.GetClientRect
 0001:0003C3D8       Controls.TControl.GetClientWidth
 0001:0003D138       Controls.TControl.GetControlsAlignment
 0001:0003CD8C       Controls.TControl.GetDeviceContext
 0001:0003F2A8       Controls.TControl.GetDockEdge
 0001:0003BA84       Controls.TControl.GetDragImages
 0001:0003BA88       Controls.TControl.GetEnabled
 0001:0003F358       Controls.TControl.GetFloating
 0001:0003F384       Controls.TControl.GetFloatingDockSiteClass
 0001:0003CC94       Controls.TControl.GetMouseCapture
 0001:0003BA90       Controls.TControl.GetPalette
 0001:0003BA9C       Controls.TControl.GetParentComponent
 0001:0003E75C       Controls.TControl.GetPopupMenu
 0001:0003CA6C       Controls.TControl.GetText
 0001:0003C9EC       Controls.TControl.GetTextBuf
 0001:0003C9DC       Controls.TControl.GetTextLen
 0001:0003C9F8       Controls.TControl.GetUndockHeight
 0001:0003CA0C       Controls.TControl.GetUndockWidth
 0001:0003BA94       Controls.TControl.HasParent
 0001:0003F3C8       Controls.TControl.InitiateAction
 0001:0003CF4C       Controls.TControl.Invalidate
 0001:0003CEC0       Controls.TControl.InvalidateControl
 0001:0003BC70       Controls.TControl.IsAnchorsStored
 0001:0003CB90       Controls.TControl.IsBiDiModeStored
 0001:0003F0C8       Controls.TControl.IsCaptionStored
 0001:0003CC28       Controls.TControl.IsColorStored
 0001:0003F0E8       Controls.TControl.IsEnabledStored
 0001:0003CB70       Controls.TControl.IsFontStored
 0001:0003F128       Controls.TControl.IsHelpContextStored
 0001:0003F108       Controls.TControl.IsHintStored
 0001:0003F168       Controls.TControl.IsOnClickStored
 0001:0003CB84       Controls.TControl.IsShowHintStored
 0001:0003F148       Controls.TControl.IsVisibleStored
 0001:0003F188       Controls.TControl.Loaded
 0001:0003D868       Controls.TControl.ManualDock
 0001:0003DA48       Controls.TControl.ManualFloat
 0001:0003CF60       Controls.TControl.MouseActivate
 0001:0003E5E4       Controls.TControl.MouseDown
 0001:0003E8B0       Controls.TControl.MouseMove
 0001:0003E95C       Controls.TControl.MouseUp
 0001:0003CFA8       Controls.TControl.MouseWheelHandler
 0001:0003BD88       Controls.TControl.Notification
 0001:0003BAC8       Controls.TControl.PaletteChanged
 0001:0003DD20       Controls.TControl.Perform
 0001:0003D354       Controls.TControl.PositionDockRect
 0001:0003F6A0       Controls.TControl.ReadExplicitHeight
 0001:0003F6B8       Controls.TControl.ReadExplicitLeft
 0001:0003F688       Controls.TControl.ReadExplicitTop
 0001:0003F660       Controls.TControl.ReadExplicitWidth
 0001:0003E154       Controls.TControl.ReadIsControl
 0001:0003BCF4       Controls.TControl.ReadState
 0001:0003D03C       Controls.TControl.Repaint
 0001:0003BCC4       Controls.TControl.RequestAlign
 0001:0003BCD4       Controls.TControl.Resize
 0001:0003C518       Controls.TControl.ScaleConstraints
 0001:0003C59C       Controls.TControl.ScreenToClient
 0001:0003C5C8       Controls.TControl.SendCancelMode
 0001:0003C5F8       Controls.TControl.SendDockNotification
 0001:0003BBF4       Controls.TControl.SetAction
 0001:0003BDE0       Controls.TControl.SetAlign
 0001:0003F5CC       Controls.TControl.SetAlignWithMargins
 0001:0003BB54       Controls.TControl.SetAnchors
 0001:0003C838       Controls.TControl.SetAutoSize
 0001:0003CB00       Controls.TControl.SetBiDiMode
 0001:0003BEC8       Controls.TControl.SetBounds
 0001:0003C39C       Controls.TControl.SetBoundsRect
 0001:0003C434       Controls.TControl.SetClientHeight
 0001:0003C8F8       Controls.TControl.SetClientSize
 0001:0003C3F0       Controls.TControl.SetClientWidth
 0001:0003CC0C       Controls.TControl.SetColor
 0001:0003F580       Controls.TControl.SetConstraints
 0001:0003CC78       Controls.TControl.SetCursor
 0001:0003BC88       Controls.TControl.SetDesignVisible
 0001:0003BCC0       Controls.TControl.SetDragMode
 0001:0003C9C4       Controls.TControl.SetEnabled
 0001:0003CB60       Controls.TControl.SetFont
 0001:0003C188       Controls.TControl.SetHeight
 0001:0003C344       Controls.TControl.SetHelpContext
 0001:0003C358       Controls.TControl.SetHelpKeyword
 0001:0003C0EC       Controls.TControl.SetLeft
 0001:0003F5B8       Controls.TControl.SetMargins
 0001:0003CCA4       Controls.TControl.SetMouseCapture
 0001:0003C854       Controls.TControl.SetName
 0001:0003C940       Controls.TControl.SetParent
 0001:0003CC54       Controls.TControl.SetParentBiDiMode
 0001:0003CC30       Controls.TControl.SetParentColor
 0001:0003BAA0       Controls.TControl.SetParentComponent
 0001:0003CB98       Controls.TControl.SetParentFont
 0001:0003CBE0       Controls.TControl.SetParentShowHint
 0001:0003CA20       Controls.TControl.SetPopupMenu
 0001:0003CBBC       Controls.TControl.SetShowHint
 0001:0003CA9C       Controls.TControl.SetText
 0001:0003CA48       Controls.TControl.SetTextBuf
 0001:0003C120       Controls.TControl.SetTop
 0001:0003C98C       Controls.TControl.SetVisible
 0001:0003C154       Controls.TControl.SetWidth
 0001:0003CD68       Controls.TControl.SetZOrder
 0001:0003CCE0       Controls.TControl.SetZOrderPosition
 0001:0003D028       Controls.TControl.Update
 0001:0003BF68       Controls.TControl.UpdateAnchorRules
 0001:0003DDC8       Controls.TControl.UpdateBoundsRect
 0001:0003F5FC       Controls.TControl.UpdateExplicitBounds
 0001:0003D154       Controls.TControl.UseRightToLeftAlignment
 0001:0003D13C       Controls.TControl.UseRightToLeftReading
 0001:0003D16C       Controls.TControl.UseRightToLeftScrollBar
 0001:0003DDF8       Controls.TControl.VisibleChanging
 0001:0003EAE8       Controls.TControl.WMCancelMode
 0001:0003F408       Controls.TControl.WMContextMenu
 0001:0003E708       Controls.TControl.WMLButtonDblClk
 0001:0003E6A0       Controls.TControl.WMLButtonDown
 0001:0003E9CC       Controls.TControl.WMLButtonUp
 0001:0003E884       Controls.TControl.WMMButtonDblClk
 0001:0003E858       Controls.TControl.WMMButtonDown
 0001:0003EA70       Controls.TControl.WMMButtonUp
 0001:0003E8E4       Controls.TControl.WMMouseMove
 0001:0003EA90       Controls.TControl.WMMouseWheel
 0001:0003E6EC       Controls.TControl.WMNCLButtonDown
 0001:0003E82C       Controls.TControl.WMRButtonDblClk
 0001:0003E800       Controls.TControl.WMRButtonDown
 0001:0003EA50       Controls.TControl.WMRButtonUp
 0001:0003EB28       Controls.TControl.WMWindowPosChanged
 0001:0003DDFC       Controls.TControl.WndProc
 0001:0003F640       Controls.TControl.WriteExplicitHeight
 0001:0003F650       Controls.TControl.WriteExplicitLeft
 0001:0003F630       Controls.TControl.WriteExplicitTop
 0001:0003F678       Controls.TControl.WriteExplicitWidth
 0001:0003E168       Controls.TControl.WriteIsControl
 0001:0003B470       Controls.TControlActionLink.AssignClient
 0001:0003B48C       Controls.TControlActionLink.DoShowHint
 0001:0003B57C       Controls.TControlActionLink.IsCaptionLinked
 0001:0003B5F0       Controls.TControlActionLink.IsDropdownMenuLinked
 0001:0003B604       Controls.TControlActionLink.IsEnabledLinked
 0001:0003B638       Controls.TControlActionLink.IsEnableDropdownLinked
 0001:0003B7D8       Controls.TControlActionLink.IsHelpLinked
 0001:0003B64C       Controls.TControlActionLink.IsHintLinked
 0001:0003B6F8       Controls.TControlActionLink.IsOnExecuteLinked
 0001:0003B684       Controls.TControlActionLink.IsPopupMenuLinked
 0001:0003B6C4       Controls.TControlActionLink.IsVisibleLinked
 0001:0003B720       Controls.TControlActionLink.SetCaption
 0001:0003B740       Controls.TControlActionLink.SetDropdownMenu
 0001:0003B744       Controls.TControlActionLink.SetEnabled
 0001:0003B764       Controls.TControlActionLink.SetEnableDropdown
 0001:0003B860       Controls.TControlActionLink.SetHelpContext
 0001:0003B840       Controls.TControlActionLink.SetHelpKeyword
 0001:0003B880       Controls.TControlActionLink.SetHelpType
 0001:0003B768       Controls.TControlActionLink.SetHint
 0001:0003B7AC       Controls.TControlActionLink.SetOnExecute
 0001:0003B8A0       Controls.TControlActionLink.SetPopupMenu
 0001:0003B78C       Controls.TControlActionLink.SetVisible
 0001:0003B22C       Controls.TControlCanvas.CreateHandle
 0001:0003B200       Controls.TControlCanvas.Destroy
 0001:0003B2D4       Controls.TControlCanvas.FreeHandle
 0001:0003B308       Controls.TControlCanvas.SetControl
 0001:0003B320       Controls.TControlCanvas.UpdateTextFlags
 0001:00046334       Controls.TCustomControl.Create
 0001:00046390       Controls.TCustomControl.Destroy
 0001:0004648C       Controls.TCustomControl.Paint
 0001:000463E0       Controls.TCustomControl.PaintWindow
 0001:000463C0       Controls.TCustomControl.WMPaint
 0001:00049048       Controls.TDockTree.ActualSize
 0001:00046D18       Controls.TDockTree.AdjustDockRect
 0001:000490DC       Controls.TDockTree.AdjustFrameRect
 0001:00046D30       Controls.TDockTree.BeginUpdate
 0001:00048D28       Controls.TDockTree.ControlVisibilityChanged
 0001:00046B5C       Controls.TDockTree.Create
 0001:00046CC4       Controls.TDockTree.Destroy
 0001:00048928       Controls.TDockTree.DrawSizeSplitter
 0001:00046D34       Controls.TDockTree.EndUpdate
 0001:000473E4       Controls.TDockTree.FindControlAtPos
 0001:00046DA0       Controls.TDockTree.FindControlZone
 0001:00046E08       Controls.TDockTree.ForEachAt
 0001:00046E20       Controls.TDockTree.GetControlBounds
 0001:00048AA4       Controls.TDockTree.GetNextLimit
 0001:00046E94       Controls.TDockTree.HitTest
 0001:00046EA4       Controls.TDockTree.InsertControl
 0001:000470C0       Controls.TDockTree.InsertNewParent
 0001:00047268       Controls.TDockTree.InsertSibling
 0001:00047584       Controls.TDockTree.InternalHitTest
 0001:00047654       Controls.TDockTree.LoadFromStream
 0001:0004911C       Controls.TDockTree.MouseDown
 0001:000492D0       Controls.TDockTree.MouseMove
 0001:00049320       Controls.TDockTree.MouseUp
 0001:00047B20       Controls.TDockTree.PaintDockFrame
 0001:00047C74       Controls.TDockTree.PaintSite
 0001:00047DA8       Controls.TDockTree.PositionDockRect
 0001:00047F58       Controls.TDockTree.PruneZone
 0001:000490B0       Controls.TDockTree.ReferenceFromOrient
 0001:00049078       Controls.TDockTree.RelativeSize
 0001:00047FB4       Controls.TDockTree.RemoveControl
 0001:00047FF4       Controls.TDockTree.RemoveZone
 0001:00048294       Controls.TDockTree.ResetBounds
 0001:00048548       Controls.TDockTree.SaveToStream
 0001:0004837C       Controls.TDockTree.ScaleZone
 0001:00048784       Controls.TDockTree.SetNewBounds
 0001:000487B4       Controls.TDockTree.SetReplacingControl
 0001:000487CC       Controls.TDockTree.ShiftZone
 0001:00049394       Controls.TDockTree.ShowHint
 0001:00048800       Controls.TDockTree.SplitterMouseDown
 0001:00048860       Controls.TDockTree.SplitterMouseUp
 0001:000488DC       Controls.TDockTree.UpdateAll
 0001:00048904       Controls.TDockTree.UpdateZone
 0001:00048914       Controls.TDockTree.WindowProc
 0001:00048DB0       Controls.TDockTree.WndProc
 0001:000472E0       Controls.TDockTree.ZoneCaptionHitTest
 0001:000464D0       Controls.TDockZone.Create
 0001:00046A88       Controls.TDockZone.ExpandZoneLimit
 0001:00046B50       Controls.TDockZone.FirstVisibleChild
 0001:000464F4       Controls.TDockZone.GetChildCount
 0001:000467D8       Controls.TDockZone.GetControlName
 0001:00046678       Controls.TDockZone.GetHeightWidth
 0001:00046564       Controls.TDockZone.GetLimitBegin
 0001:000465AC       Controls.TDockZone.GetLimitSize
 0001:000465F4       Controls.TDockZone.GetTopLeft
 0001:0004652C       Controls.TDockZone.GetVisible
 0001:00046508       Controls.TDockZone.GetVisibleChildCount
 0001:00046A4C       Controls.TDockZone.GetZoneLimit
 0001:00046B28       Controls.TDockZone.NextVisible
 0001:00046B34       Controls.TDockZone.PrevVisible
 0001:00046730       Controls.TDockZone.ResetChildren
 0001:00046AC8       Controls.TDockZone.ResetZoneLimits
 0001:0004681C       Controls.TDockZone.SetControlName
 0001:00046A74       Controls.TDockZone.SetZoneLimit
 0001:000468D0       Controls.TDockZone.Update
 0001:00039D68       Controls.TDragControlObject.GetDragCursor
 0001:00039D80       Controls.TDragControlObject.GetDragImages
 0001:00039D8C       Controls.TDragControlObject.HideDragImage
 0001:00039DAC       Controls.TDragControlObject.ShowDragImage
 0001:00039DCC       Controls.TDragControlObjectEx.BeforeDestruction
 0001:00039F08       Controls.TDragDockObject.AdjustDockRect
 0001:00039E68       Controls.TDragDockObject.Assign
 0001:00039DD0       Controls.TDragDockObject.Create
 0001:00039E38       Controls.TDragDockObject.Destroy
 0001:00039F84       Controls.TDragDockObject.DrawDragDockImage
 0001:00039EC8       Controls.TDragDockObject.EndDrag
 0001:00039F98       Controls.TDragDockObject.EraseDragDockImage
 0001:00039FAC       Controls.TDragDockObject.GetDragCursor
 0001:00039FB8       Controls.TDragDockObject.GetEraseWhenMoving
 0001:00039FBC       Controls.TDragDockObject.GetFrameWidth
 0001:00039FC4       Controls.TDragDockObjectEx.BeforeDestruction
 0001:00046174       Controls.TDragImageList.BeginDrag
 0001:000461E8       Controls.TDragImageList.DragLock
 0001:00046270       Controls.TDragImageList.DragMove
 0001:0004624C       Controls.TDragImageList.DragUnlock
 0001:000462E4       Controls.TDragImageList.EndDrag
 0001:000462CC       Controls.TDragImageList.HideDragImage
 0001:00046150       Controls.TDragImageList.SetDragCursor
 0001:00046108       Controls.TDragImageList.SetDragImage
 0001:000462B4       Controls.TDragImageList.ShowDragImage
 0001:00039CB0       Controls.TDragObject.AfterConstruction
 0001:00039A5C       Controls.TDragObject.Assign
 0001:00039CA0       Controls.TDragObject.BeforeDestruction
 0001:00039A9C       Controls.TDragObject.Capture
 0001:00039AB4       Controls.TDragObject.Finished
 0001:00039C2C       Controls.TDragObject.GetDragCursor
 0001:00039C28       Controls.TDragObject.GetDragImages
 0001:00039ABC       Controls.TDragObject.GetName
 0001:00039C44       Controls.TDragObject.HideDragImage
 0001:00039C48       Controls.TDragObject.Instance
 0001:00039C54       Controls.TDragObject.MainWndProc
 0001:00039AE4       Controls.TDragObject.ReleaseCapture
 0001:00039C50       Controls.TDragObject.ShowDragImage
 0001:00039AF8       Controls.TDragObject.WndProc
 0001:00045DBC       Controls.THintWindow.ActivateHint
 0001:00045FB0       Controls.THintWindow.ActivateHintData
 0001:00045FD8       Controls.THintWindow.CalcHintRect
 0001:00045D24       Controls.THintWindow.CMTextChanged
 0001:00045AD0       Controls.THintWindow.Create
 0001:00045B3C       Controls.THintWindow.CreateParams
 0001:00045CB4       Controls.THintWindow.IsHintMsg
 0001:00046034       Controls.THintWindow.NCPaint
 0001:00045C0C       Controls.THintWindow.Paint
 0001:00045D18       Controls.THintWindow.ReleaseHandle
 0001:000460C4       Controls.THintWindow.ShouldHideHint
 0001:00045BA0       Controls.THintWindow.WMNCHitTest
 0001:00045BA8       Controls.THintWindow.WMNCPaint
 0001:000460A0       Controls.THintWindow.WMPrint
 0001:00049CE4       Controls.TMargins.AssignTo
 0001:00049D2C       Controls.TMargins.Change
 0001:00049CA0       Controls.TMargins.Create
 0001:00049EA4       Controls.TMargins.GetControlBound
 0001:00049D40       Controls.TMargins.InitDefaults
 0001:00049DB8       Controls.TMargins.SetControlBounds
 0001:00049D60       Controls.TMargins.SetMargin
 0001:00049488       Controls.TMouse.Create
 0001:00049518       Controls.TMouse.CreatePanningWindow
 0001:00049544       Controls.TMouse.Destroy
 0001:00049574       Controls.TMouse.GetCapture
 0001:0004957C       Controls.TMouse.GetCursorPos
 0001:0004958C       Controls.TMouse.GetIsDragging
 0001:00049598       Controls.TMouse.GetIsPanning
 0001:000495BC       Controls.TMouse.GetMouseData
 0001:000495D8       Controls.TMouse.GetNativeData
 0001:00049608       Controls.TMouse.GetRegisteredData
 0001:00049630       Controls.TMouse.SetCapture
 0001:00049658       Controls.TMouse.SetPanningWindow
 0001:00049678       Controls.TMouse.SettingChanged
 0001:0004A068       Controls.TPadding.InitDefaults
 0001:00043578       Controls.TraverseControls
 0003:000015B4       Controls.TreeStreamEndFlag
 0001:00039940       Controls.TSiteList.AddSite
 0001:000399C4       Controls.TSiteList.Clear
 0001:000398DC       Controls.TSiteList.Find
 0001:000399F8       Controls.TSiteList.GetTopSite
 0001:0003B388       Controls.TSizeConstraints.AssignTo
 0001:0003B45C       Controls.TSizeConstraints.Change
 0001:0003B34C       Controls.TSizeConstraints.Create
 0001:0003B3D0       Controls.TSizeConstraints.SetConstraints
 0001:0004516C       Controls.TWinControl.ActionChange
 0001:000409DC       Controls.TWinControl.AddBiDiModeExStyle
 0001:0003FA74       Controls.TWinControl.AdjustClientRect
 0001:000446D4       Controls.TWinControl.AdjustSize
 0001:00040340       Controls.TWinControl.AlignControl
 0001:0004023C       Controls.TWinControl.AlignControls
 0001:0003FAA4       Controls.TWinControl.ArrangeControl
 0001:000451B4       Controls.TWinControl.AssignTo
 0001:000408D8       Controls.TWinControl.Broadcast
 0001:00044CA4       Controls.TWinControl.CalcConstraints
 0001:000451E4       Controls.TWinControl.CanAutoSize
 0001:00044490       Controls.TWinControl.CanFocus
 0001:00044BD8       Controls.TWinControl.CanResize
 0001:00044054       Controls.TWinControl.ChangeScale
 0001:000438A0       Controls.TWinControl.CMBiDiModeChanged
 0001:00043AFC       Controls.TWinControl.CMBorderChanged
 0001:00043978       Controls.TWinControl.CMChanged
 0001:0004398C       Controls.TWinControl.CMChildKey
 0001:00043A58       Controls.TWinControl.CMColorChanged
 0001:00043C3C       Controls.TWinControl.CMControlListChange
 0001:00043C50       Controls.TWinControl.CMControlListChanging
 0001:00043B3C       Controls.TWinControl.CMCtl3DChanged
 0001:00043ABC       Controls.TWinControl.CMCursorChanged
 0001:00043958       Controls.TWinControl.CMDesignHitTest
 0001:000439A8       Controls.TWinControl.CMDialogChar
 0001:000439A0       Controls.TWinControl.CMDialogKey
 0001:00043134       Controls.TWinControl.CMDockClient
 0001:00043BDC       Controls.TWinControl.CMDrag
 0001:00043A10       Controls.TWinControl.CMEnabledChanged
 0001:000438D8       Controls.TWinControl.CMEnter
 0001:00043948       Controls.TWinControl.CMExit
 0001:0004324C       Controls.TWinControl.CMFloat
 0001:000439B0       Controls.TWinControl.CMFocusChanged
 0001:00043BCC       Controls.TWinControl.CMFontChange
 0001:00043A80       Controls.TWinControl.CMFontChanged
 0001:0004438C       Controls.TWinControl.CMInvalidate
 0001:00043B7C       Controls.TWinControl.CMParentCtl3DChanged
 0001:00041244       Controls.TWinControl.CMRecreateWnd
 0001:00043888       Controls.TWinControl.CMShowHintChanged
 0001:000439E8       Controls.TWinControl.CMShowingChanged
 0001:00043BBC       Controls.TWinControl.CMSysColorChange
 0001:00043C64       Controls.TWinControl.CMSysFontChanged
 0001:000458C8       Controls.TWinControl.CMTextChanged
 0001:00043BD4       Controls.TWinControl.CMTimeChange
 0001:00043224       Controls.TWinControl.CMUnDockClient
 0001:000439B8       Controls.TWinControl.CMVisibleChanged
 0001:00043BC4       Controls.TWinControl.CMWinIniChange
 0001:00043E50       Controls.TWinControl.CNChar
 0001:00043D18       Controls.TWinControl.CNKeyDown
 0001:00043DFC       Controls.TWinControl.CNKeyUp
 0001:00043EFC       Controls.TWinControl.CNSysChar
 0001:00043EA0       Controls.TWinControl.CNSysKeyDown
 0001:00045130       Controls.TWinControl.ConstrainedResize
 0001:00040620       Controls.TWinControl.ContainsControl
 0001:00041660       Controls.TWinControl.ControlAtPos
 0001:00042FD8       Controls.TWinControl.ControlsAligned
 0001:0003F704       Controls.TWinControl.Create
 0001:00042FDC       Controls.TWinControl.CreateDockManager
 0001:00041068       Controls.TWinControl.CreateHandle
 0001:00040A44       Controls.TWinControl.CreateParams
 0001:00040970       Controls.TWinControl.CreateSubClass
 0001:00040D40       Controls.TWinControl.CreateWindowHandle
 0001:00040B70       Controls.TWinControl.CreateWnd
 0001:00041100       Controls.TWinControl.CustomAlignInsertBefore
 0001:00041124       Controls.TWinControl.CustomAlignPosition
 0001:00041DC8       Controls.TWinControl.DefaultHandler
 0001:00040F00       Controls.TWinControl.DefineProperties
 0001:0003F848       Controls.TWinControl.Destroy
 0001:000411B8       Controls.TWinControl.DestroyHandle
 0001:00040FBC       Controls.TWinControl.DestroyWindowHandle
 0001:00040F5C       Controls.TWinControl.DestroyWnd
 0001:000403D4       Controls.TWinControl.DisableAlign
 0001:00042D6C       Controls.TWinControl.DoAddDockClient
 0001:00042DC0       Controls.TWinControl.DockDrop
 0001:00042E44       Controls.TWinControl.DockOver
 0001:00045914       Controls.TWinControl.DockReplaceDockClient
 0001:00042E10       Controls.TWinControl.DoDockOver
 0001:00042D80       Controls.TWinControl.DoEnter
 0001:00042DA0       Controls.TWinControl.DoExit
 0001:00040404       Controls.TWinControl.DoFlipChildren
 0001:000432FC       Controls.TWinControl.DoKeyDown
 0001:000434F0       Controls.TWinControl.DoKeyPress
 0001:00043428       Controls.TWinControl.DoKeyUp
 0001:00045978       Controls.TWinControl.DoPaddingChange
 0001:00042D7C       Controls.TWinControl.DoRemoveDockClient
 0001:00042E88       Controls.TWinControl.DoUnDock
 0001:000403DC       Controls.TWinControl.EnableAlign
 0001:00044A18       Controls.TWinControl.FindNextControl
 0001:0003F928       Controls.TWinControl.FixupTabList
 0001:000404D8       Controls.TWinControl.FlipChildren
 0001:0004450C       Controls.TWinControl.Focused
 0001:000451AC       Controls.TWinControl.GetActionLinkClass
 0001:00044B50       Controls.TWinControl.GetChildren
 0001:0004469C       Controls.TWinControl.GetClientOrigin
 0001:000446BC       Controls.TWinControl.GetClientRect
 0001:0004087C       Controls.TWinControl.GetControl
 0001:000408B8       Controls.TWinControl.GetControlCount
 0001:00044568       Controls.TWinControl.GetControlExtents
 0001:00044328       Controls.TWinControl.GetDeviceContext
 0001:00042F08       Controls.TWinControl.GetDockClientCount
 0001:00042F1C       Controls.TWinControl.GetDockClients
 0001:00044554       Controls.TWinControl.GetHandle
 0001:00045880       Controls.TWinControl.GetParentBackground
 0001:00042F40       Controls.TWinControl.GetSiteInfo
 0001:0004478C       Controls.TWinControl.GetTabOrder
 0001:000449B8       Controls.TWinControl.GetTabOrderList
 0001:00042F9C       Controls.TWinControl.GetVisibleDockClientCount
 0001:000448F4       Controls.TWinControl.HandleAllocated
 0001:00044530       Controls.TWinControl.HandleNeeded
 0001:00040654       Controls.TWinControl.Insert
 0001:000406E8       Controls.TWinControl.InsertControl
 0001:0004437C       Controls.TWinControl.Invalidate
 0001:000458E0       Controls.TWinControl.InvalidateDockHostSite
 0001:00044458       Controls.TWinControl.InvalidateFrame
 0001:00041724       Controls.TWinControl.IsControlActivateMsg
 0001:00041870       Controls.TWinControl.IsControlMouseMsg
 0001:00044754       Controls.TWinControl.IsCtl3DStored
 0001:00043C80       Controls.TWinControl.IsMenuKey
 0001:00045954       Controls.TWinControl.IsQualifyingSite
 0001:000432D0       Controls.TWinControl.KeyDown
 0001:000434D0       Controls.TWinControl.KeyPress
 0001:000433FC       Controls.TWinControl.KeyUp
 0001:0004151C       Controls.TWinControl.MainWndProc
 0001:00040918       Controls.TWinControl.Notification
 0001:00040948       Controls.TWinControl.NotifyControls
 0001:0004209C       Controls.TWinControl.PaintControls
 0001:00041F04       Controls.TWinControl.PaintHandler
 0001:0004236C       Controls.TWinControl.PaintTo
 0001:00042074       Controls.TWinControl.PaintWindow
 0001:000437EC       Controls.TWinControl.PaletteChanged
 0001:00041020       Controls.TWinControl.PrecedingWindow
 0001:00045920       Controls.TWinControl.PreProcessMessage
 0001:00040D80       Controls.TWinControl.ReadDesignSize
 0001:0003F9FC       Controls.TWinControl.ReadState
 0001:000403FC       Controls.TWinControl.Realign
 0001:0004122C       Controls.TWinControl.RecreateWnd
 0001:00042EE4       Controls.TWinControl.ReloadDockedControl
 0001:000406A0       Controls.TWinControl.Remove
 0001:000407DC       Controls.TWinControl.RemoveControl
 0001:00040634       Controls.TWinControl.RemoveFocus
 0001:00045924       Controls.TWinControl.RemoveWindowProps
 0001:0004443C       Controls.TWinControl.Repaint
 0001:00042C8C       Controls.TWinControl.ResetIme
 0001:0004400C       Controls.TWinControl.ScaleControls
 0001:00044100       Controls.TWinControl.ScrollBy
 0001:00044B24       Controls.TWinControl.SelectNext
 0001:00044710       Controls.TWinControl.SetBorderWidth
 0001:00043F30       Controls.TWinControl.SetBounds
 0001:00044B98       Controls.TWinControl.SetChildOrder
 0001:00044730       Controls.TWinControl.SetCtl3D
 0001:00043048       Controls.TWinControl.SetDesignVisible
 0001:0004307C       Controls.TWinControl.SetDockSite
 0001:000444D0       Controls.TWinControl.SetFocus
 0001:00042B5C       Controls.TWinControl.SetIme
 0001:00045980       Controls.TWinControl.SetPadding
 0001:00045A54       Controls.TWinControl.SetParent
 0001:00045888       Controls.TWinControl.SetParentBackground
 0001:00044760       Controls.TWinControl.SetParentCtl3D
 0001:00041438       Controls.TWinControl.SetParentWindow
 0001:0004480C       Controls.TWinControl.SetTabOrder
 0001:00044824       Controls.TWinControl.SetTabStop
 0001:00044884       Controls.TWinControl.SetUseDockManager
 0001:000442C8       Controls.TWinControl.SetZOrder
 0001:000441F0       Controls.TWinControl.SetZOrderPosition
 0001:000441D8       Controls.TWinControl.ShowControl
 0001:00044420       Controls.TWinControl.Update
 0001:00044900       Controls.TWinControl.UpdateBounds
 0001:000459D8       Controls.TWinControl.UpdateControlOriginalParentSize
 0001:000413F4       Controls.TWinControl.UpdateControlState
 0001:0004598C       Controls.TWinControl.UpdateRecreatingFlag
 0001:000412D0       Controls.TWinControl.UpdateShowing
 0001:000447B0       Controls.TWinControl.UpdateTabOrder
 0001:000457A8       Controls.TWinControl.UpdateUIState
 0001:00043558       Controls.TWinControl.WMChar
 0001:000436D4       Controls.TWinControl.WMCharToItem
 0001:0004265C       Controls.TWinControl.WMCommand
 0001:00042730       Controls.TWinControl.WMCompareItem
 0001:00045730       Controls.TWinControl.WMContextMenu
 0001:00042754       Controls.TWinControl.WMDeleteItem
 0001:00043748       Controls.TWinControl.WMDestroy
 0001:00042778       Controls.TWinControl.WMDrawItem
 0001:000427F0       Controls.TWinControl.WMEraseBkgnd
 0001:000426D0       Controls.TWinControl.WMFontChange
 0001:000426F0       Controls.TWinControl.WMHScroll
 0001:00042B48       Controls.TWinControl.WMIMEEndComp
 0001:00042B34       Controls.TWinControl.WMIMEStartComp
 0001:000433A4       Controls.TWinControl.WMKeyDown
 0001:00043490       Controls.TWinControl.WMKeyUp
 0001:00042B18       Controls.TWinControl.WMKillFocus
 0001:0004279C       Controls.TWinControl.WMMeasureItem
 0001:000427BC       Controls.TWinControl.WMMouseActivate
 0001:000429DC       Controls.TWinControl.WMMove
 0001:000453AC       Controls.TWinControl.WMNCCalcSize
 0001:000437AC       Controls.TWinControl.WMNCDestroy
 0001:000437C8       Controls.TWinControl.WMNCHitTest
 0001:0004543C       Controls.TWinControl.WMNCPaint
 0001:0004267C       Controls.TWinControl.WMNotify
 0001:000424FC       Controls.TWinControl.WMPaint
 0001:00043868       Controls.TWinControl.WMPaletteChanged
 0001:000436F4       Controls.TWinControl.WMParentNotify
 0001:000457F4       Controls.TWinControl.WMPrintClient
 0001:00043844       Controls.TWinControl.WMQueryNewPalette
 0001:000429F8       Controls.TWinControl.WMSetCursor
 0001:00042AFC       Controls.TWinControl.WMSetFocus
 0001:000429A4       Controls.TWinControl.WMSize
 0001:000426A0       Controls.TWinControl.WMSysColorChange
 0001:00043628       Controls.TWinControl.WMSysCommand
 0001:000433D0       Controls.TWinControl.WMSysKeyDown
 0001:000434B0       Controls.TWinControl.WMSysKeyUp
 0001:000426E0       Controls.TWinControl.WMTimeChange
 0001:00043728       Controls.TWinControl.WMVKeyToItem
 0001:00042710       Controls.TWinControl.WMVScroll
 0001:00042890       Controls.TWinControl.WMWindowPosChanged
 0001:00042950       Controls.TWinControl.WMWindowPosChanging
 0001:000426BC       Controls.TWinControl.WMWinIniChange
 0001:00041924       Controls.TWinControl.WndProc
 0001:00040DB8       Controls.TWinControl.WriteDesignSize
 0001:0003F6D0       Controls.TWinControlActionLink.AssignClient
 0001:0003F6F4       Controls.TWinControlActionLink.IsHelpContextLinked
 0001:0003F6FC       Controls.TWinControlActionLink.SetHelpContext
 0001:0003EEB0       Controls.UpdateFloatingDockSitePos
 0001:0003A034       Controls.ValidDockTarget
 0001:00049944       Controls.Win32NLSEnableIME
 0004:00003510       Controls.WindowAtom
 0004:00003514       Controls.WindowAtomString
 0003:0000155C       Controls.WindowPos
 0001:000483BC       Controls.WriteControlName
 0004:00003578       Controls._ImmGetCompositionString
 0004:0000355C       Controls._ImmGetContext
 0004:00003564       Controls._ImmGetConversionStatus
 0004:0000357C       Controls._ImmIsIME
 0004:00003580       Controls._ImmNotifyIME
 0004:00003560       Controls._ImmReleaseContext
 0004:00003574       Controls._ImmSetCompositionFont
 0004:00003570       Controls._ImmSetCompositionWindow
 0004:00003568       Controls._ImmSetConversionStatus
 0004:0000356C       Controls._ImmSetOpenStatus
 0004:00003558       Controls._WINNLSEnableIME
 0004:000034C0       Dialogs..11
 0001:00028728       Dialogs..TCommonDialog
 0003:0000133C       Dialogs.ButtonCaptions
 0003:00001310       Dialogs.ButtonNames
 0003:000012FC       Dialogs.Captions
 0003:000012F4       Dialogs.CreationControl
 0002:000004B0       Dialogs.Dialogs
 0001:00028D40       Dialogs.Finalization
 0004:000034C8       Dialogs.FindMsg
 0004:000034C4       Dialogs.HelpMsg
 0001:00028BEC       Dialogs.InitGlobals
 0001:00028898       Dialogs.TCommonDialog.Create
 0001:00028994       Dialogs.TCommonDialog.DefaultHandler
 0001:000288E0       Dialogs.TCommonDialog.Destroy
 0001:00028B20       Dialogs.TCommonDialog.DoClose
 0001:00028B34       Dialogs.TCommonDialog.DoShow
 0001:00028928       Dialogs.TCommonDialog.Execute
 0001:000289CC       Dialogs.TCommonDialog.MainWndProc
 0001:0002896C       Dialogs.TCommonDialog.MessageHook
 0001:00028A64       Dialogs.TCommonDialog.TaskModalDialog
 0001:00028A20       Dialogs.TCommonDialog.WMDestroy
 0001:00028A38       Dialogs.TCommonDialog.WMInitDialog
 0001:00028A50       Dialogs.TCommonDialog.WMNCDestroy
 0001:00028A18       Dialogs.TCommonDialog.WndProc
 0003:000012F8       Dialogs.WndProcPtrAtom
 0004:000034BC       ExtCtrls..83
 0001:00028410       ExtCtrls..TTimer
 0002:0000046C       ExtCtrls.ExtCtrls
 0001:000286F8       ExtCtrls.Finalization
 0004:000034B8       ExtCtrls.TCustomTrayIcon.RM_TaskbarCreated
 0001:00028524       ExtCtrls.TTimer.Create
 0001:00028574       ExtCtrls.TTimer.Destroy
 0001:000286AC       ExtCtrls.TTimer.SetEnabled
 0001:000286BC       ExtCtrls.TTimer.SetInterval
 0001:000286CC       ExtCtrls.TTimer.SetOnTimer
 0001:000286E4       ExtCtrls.TTimer.Timer
 0001:00028620       ExtCtrls.TTimer.UpdateTimer
 0001:000285AC       ExtCtrls.TTimer.WndProc
 0004:000033CC       FlatSB..1
 0001:000243CC       FlatSB.Finalization
 0002:000003B8       FlatSB.FlatSB
 0004:000033AC       FlatSB.FlatSB_EnableScrollBar
 0004:000033B8       FlatSB.FlatSB_GetScrollInfo
 0004:000033BC       FlatSB.FlatSB_GetScrollPos
 0004:000033B4       FlatSB.FlatSB_GetScrollRange
 0004:000033C4       FlatSB.FlatSB_SetScrollInfo
 0004:000033C0       FlatSB.FlatSB_SetScrollPos
 0001:000240EC       FlatSB.FlatSB_SetScrollProp
 0004:000033C8       FlatSB.FlatSB_SetScrollRange
 0004:000033B0       FlatSB.FlatSB_ShowScrollBar
 0001:00024148       FlatSB.InitFlatSB
 0001:00024120       FlatSB.InitializeFlatSB
 0004:000033D0       FlatSB._FlatSB_GetScrollProp
 0004:000033D4       FlatSB._FlatSB_SetScrollProp
 0004:000033D8       FlatSB._InitializeFlatSB
 0004:000033DC       FlatSB._UninitializeFlatSB
 0004:000034E0       Forms..41
 0001:0002AE7C       Forms..TApplication
 0001:00028F68       Forms..TControlScrollBar
 0001:0002AB38       Forms..TCustomDockForm
 0001:000298D0       Forms..TCustomForm
 0001:00029C4C       Forms..TForm
 0001:0002AD20       Forms..TMonitor
 0001:0002AD78       Forms..TScreen
 0001:00029204       Forms..TScrollingWinControl
 0001:0002B810       Forms.Adjustment
 0001:000337B4       Forms.AlignWork
 0004:000034D8       Forms.Application
 0003:00001488       Forms.AppVisible
 0001:0002B20C       Forms.CheckTaskWindow
 0001:00030DB0       Forms.ControlHasHelp
 0003:0000140C       Forms.CursorMap
 0003:000013FC       Forms.cUseAlpha
 0003:00001404       Forms.cUseColorKey
 0001:0002DEC8       Forms.Default
 0001:0003468C       Forms.Default
 0001:0002FB3C       Forms.DestroyPopupWindow
 0001:0002B050       Forms.DisableTaskWindows
 0003:00001384       Forms.DisablingWindows
 0001:00032238       Forms.DispatchShortCut
 0001:00033664       Forms.DoAlign
 0001:0002B000       Forms.DoDisableWindow
 0001:0002B14C       Forms.DoFindWindow
 0001:0002AFC8       Forms.DoneApplication
 0001:000302D4       Forms.DoNestedActivation
 0001:000334A8       Forms.DoPosition
 0001:000346C8       Forms.DrawAppIcon
 0001:0002B114       Forms.EnableTaskWindows
 0001:0002E904       Forms.EnumMonitorsProc
 0001:00036E0C       Forms.Finalization
 0001:0002B258       Forms.FindGlobalComponent
 0001:00036490       Forms.FindScanline
 0001:0002B1B0       Forms.FindTopMostWindow
 0003:00001374       Forms.FocusCount
 0003:00001370       Forms.FocusMessages
 0001:0002B22C       Forms.ForegroundTask
 0002:00000548       Forms.Forms
 0001:00033B44       Forms.GetAnimation
 0001:000364A0       Forms.GetCursorHeightMargin
 0001:00030DE8       Forms.GetHelpInfo
 0001:00033928       Forms.GetHint
 0001:00033960       Forms.GetHintControl
 0001:00030D70       Forms.GetMenuHelpContext
 0001:0002F480       Forms.GetNonToolWindowPopupParent
 0001:0002B470       Forms.GetParentForm
 0001:00034460       Forms.GetPopupOwnerWindows
 0001:0002B42C       Forms.GetRealParentForm
 0001:0002B924       Forms.GetRealScrollPosition
 0001:0003421C       Forms.GetTopMostWindows
 0001:00031008       Forms.HandleEdge
 0004:000034EC       Forms.HintDoneEvent
 0001:00033A30       Forms.HintGetMsgHook
 0004:000034F0       Forms.HintHook
 0001:000339D4       Forms.HintMouseThread
 0004:000034F4       Forms.HintThread
 0004:000034E8       Forms.HintThreadID
 0001:00033980       Forms.HintTimerProc
 0003:00001368       Forms.HintWindowClass
 0001:00033A74       Forms.HookHintHooks
 0003:000013D0       Forms.HWND_STYLE
 0004:000034F8       Forms.IdleTimerHandle
 0001:00035E34       Forms.IdleTimerProc
 0001:00036D14       Forms.InitProcs
 0001:00033420       Forms.InsertBefore
 0001:0002B3BC       Forms.IsAccel
 0001:0003570C       Forms.IsClass
 0001:0002B370       Forms.KeyboardStateToShiftState
 0001:0002B330       Forms.KeyDataToShiftState
 0001:0002B2D8       Forms.KeysToShiftState
 0001:0002DF14       Forms.MaximizedChildren
 0001:00030670       Forms.ModifySystemMenu
 0001:00036658       Forms.MultiLineWidth
 0001:00032038       Forms.ProcessExecute
 0001:0002B61C       Forms.ProcessHorz
 0001:00032138       Forms.ProcessUpdate
 0001:0002B68C       Forms.ProcessVert
 0003:0000139C       Forms.Props
 0001:0002AF74       Forms.RestoreFocusState
 0004:000034E4       Forms.RM_TaskbarCreated
 0001:0002AF6C       Forms.SaveFocusState
 0004:000034DC       Forms.Screen
 0001:0002B7DC       Forms.ScrollBarVisible
 0001:0002B1EC       Forms.SendFocusMessage
 0001:00033B74       Forms.SetAnimation
 0003:0000136C       Forms.SetLayeredWindowAttributes
 0001:0003612C       Forms.SetVisible
 0003:000013D8       Forms.ShowCommands
 0003:000013E4       Forms.ShowCommands
 0003:000013F0       Forms.ShowCommands
 0003:0000148C       Forms.ShowFlags
 0001:0002AF7C       Forms.ShowMDIClientEdge
 0001:00033B9C       Forms.ShowWinNoAnimate
 0003:000013C4       Forms.Styles
 0003:0000138C       Forms.SysConsts
 0003:00001394       Forms.SysConsts
 0001:00036708       Forms.TApplication.ActivateHint
 0001:00036AA0       Forms.TApplication.AddPopupForm
 0001:00035014       Forms.TApplication.BringToFront
 0001:00036468       Forms.TApplication.CancelHint
 0001:000345C8       Forms.TApplication.CheckIniChange
 0001:000341BC       Forms.TApplication.ControlDestroyed
 0001:00033CB8       Forms.TApplication.Create
 0001:0003558C       Forms.TApplication.CreateForm
 0001:0003400C       Forms.TApplication.CreateHandle
 0001:00033ED4       Forms.TApplication.Destroy
 0001:00036C2C       Forms.TApplication.DispatchAction
 0001:00035DAC       Forms.TApplication.DoActionIdle
 0001:00035E10       Forms.TApplication.DoMouseIdle
 0001:0003428C       Forms.TApplication.DoNormalizeTopMosts
 0001:00035B70       Forms.TApplication.DoOnHelp
 0001:000344D0       Forms.TApplication.DoShowOwnedPopups
 0001:00036CC4       Forms.TApplication.ExecuteAction
 0001:00036BA4       Forms.TApplication.GetActiveFormHandle
 0001:00036B68       Forms.TApplication.GetCurrentHelpFile
 0001:00034E28       Forms.TApplication.GetIconHandle
 0001:00036BEC       Forms.TApplication.GetMainFormHandle
 0001:00035050       Forms.TApplication.GetTitle
 0001:00035768       Forms.TApplication.HandleException
 0001:00035478       Forms.TApplication.HandleMessage
 0001:00035D54       Forms.TApplication.HelpCommand
 0001:00035CCC       Forms.TApplication.HelpContext
 0001:00035C3C       Forms.TApplication.HelpKeyword
 0001:000363F4       Forms.TApplication.HideHint
 0001:0003629C       Forms.TApplication.HintMouseMessage
 0001:000363BC       Forms.TApplication.HintTimerExpired
 0001:0003549C       Forms.TApplication.HookMainWindow
 0001:00036D70       Forms.TApplication.HookSynchronizeWakeup
 0001:00036034       Forms.TApplication.IconChanged
 0001:00035E9C       Forms.TApplication.Idle
 0001:00035574       Forms.TApplication.Initialize
 0001:00035A4C       Forms.TApplication.InvokeHelp
 0001:0003509C       Forms.TApplication.IsDlgMsg
 0001:00035228       Forms.TApplication.IsHintMsg
 0001:00035134       Forms.TApplication.IsKeyMsg
 0001:000350E4       Forms.TApplication.IsMDIMsg
 0001:00036D90       Forms.TApplication.IsPreProcessMessage
 0001:0003525C       Forms.TApplication.IsShortCut
 0001:000357F8       Forms.TApplication.MessageBox
 0001:00034E44       Forms.TApplication.Minimize
 0001:00034368       Forms.TApplication.ModalFinished
 0001:0003433C       Forms.TApplication.ModalStarted
 0001:0003439C       Forms.TApplication.NormalizeAllTopMosts
 0001:00034394       Forms.TApplication.NormalizeTopMosts
 0001:00035FF8       Forms.TApplication.NotifyForms
 0001:000352C8       Forms.TApplication.PopupControlProc
 0001:00035364       Forms.TApplication.ProcessMessage
 0001:000343A4       Forms.TApplication.RemovePopupForm
 0001:00034F08       Forms.TApplication.Restore
 0001:000343F4       Forms.TApplication.RestoreTopMosts
 0001:0003560C       Forms.TApplication.Run
 0001:00036098       Forms.TApplication.SetHint
 0001:00035D5C       Forms.TApplication.SetShowHint
 0001:00034620       Forms.TApplication.SettingChange
 0001:00035974       Forms.TApplication.ShowException
 0001:00036230       Forms.TApplication.StartHintTimer
 0001:00036274       Forms.TApplication.StopHintTimer
 0001:000356F8       Forms.TApplication.Terminate
 0001:000354F8       Forms.TApplication.UnhookMainWindow
 0001:00036D80       Forms.TApplication.UnhookSynchronizeWakeup
 0001:00036CEC       Forms.TApplication.UpdateAction
 0001:00036188       Forms.TApplication.UpdateVisible
 0001:000345B0       Forms.TApplication.UseRightToLeftAlignment
 0001:00034598       Forms.TApplication.UseRightToLeftReading
 0001:00036210       Forms.TApplication.ValidateHelpSystem
 0001:00036D60       Forms.TApplication.WakeMainThread
 0001:00034714       Forms.TApplication.WndProc
 0003:00001378       Forms.TaskActiveWindow
 0003:00001380       Forms.TaskFirstTopMost
 0003:0000137C       Forms.TaskFirstWindow
 0003:00001388       Forms.TaskWindowList
 0001:0002B594       Forms.TControlScrollBar.Assign
 0001:0002B6F8       Forms.TControlScrollBar.CalcAutoRange
 0001:0002B5E4       Forms.TControlScrollBar.ChangeBiDiPosition
 0001:0002B88C       Forms.TControlScrollBar.ControlSize
 0001:0002B500       Forms.TControlScrollBar.Create
 0001:0002BE4C       Forms.TControlScrollBar.DoSetRange
 0001:0002B58C       Forms.TControlScrollBar.IsIncrementStored
 0001:0002BE78       Forms.TControlScrollBar.IsRangeStored
 0001:0002B7A4       Forms.TControlScrollBar.IsScrollBarVisible
 0001:0002B90C       Forms.TControlScrollBar.NeedsScrollBarVisible
 0001:0002B984       Forms.TControlScrollBar.ScrollMessage
 0001:0002BC9C       Forms.TControlScrollBar.SetButtonSize
 0001:0002BCE0       Forms.TControlScrollBar.SetColor
 0001:0002BCFC       Forms.TControlScrollBar.SetParentColor
 0001:0002BD14       Forms.TControlScrollBar.SetPosition
 0001:0002BE64       Forms.TControlScrollBar.SetRange
 0001:0002BDD8       Forms.TControlScrollBar.SetSize
 0001:0002BE1C       Forms.TControlScrollBar.SetStyle
 0001:0002BE34       Forms.TControlScrollBar.SetThumbSize
 0001:0002BE88       Forms.TControlScrollBar.SetVisible
 0001:0002BF9C       Forms.TControlScrollBar.Update
 0001:00032830       Forms.TCustomDockForm.CMControlListChange
 0001:00032888       Forms.TCustomDockForm.CMDockNotification
 0001:0003296C       Forms.TCustomDockForm.CMUnDockClient
 0001:00032984       Forms.TCustomDockForm.CMVisibleChanged
 0001:00032580       Forms.TCustomDockForm.Create
 0001:000325E8       Forms.TCustomDockForm.DoAddDockClient
 0001:000326D8       Forms.TCustomDockForm.DoRemoveDockClient
 0001:00032744       Forms.TCustomDockForm.GetSiteInfo
 0001:000326F8       Forms.TCustomDockForm.Loaded
 0001:00032770       Forms.TCustomDockForm.WMNCHitTest
 0001:00032798       Forms.TCustomDockForm.WMNCLButtonDown
 0001:00030320       Forms.TCustomForm.Activate
 0001:000300FC       Forms.TCustomForm.ActiveChanged
 0001:0002CA98       Forms.TCustomForm.AfterConstruction
 0001:0002E134       Forms.TCustomForm.AlignControls
 0001:0002CC54       Forms.TCustomForm.BeforeDestruction
 0001:0002D430       Forms.TCustomForm.BeginAutoDrag
 0001:0002D434       Forms.TCustomForm.ChangeScale
 0001:0002DF54       Forms.TCustomForm.ClientWndProc
 0001:00031984       Forms.TCustomForm.Close
 0001:00031A8C       Forms.TCustomForm.CloseModal
 0001:00031A28       Forms.TCustomForm.CloseQuery
 0001:000320E4       Forms.TCustomForm.CMActionExecute
 0001:000321E4       Forms.TCustomForm.CMActionUpdate
 0001:0003116C       Forms.TCustomForm.CMActivate
 0001:00030B58       Forms.TCustomForm.CMAppSysCommand
 0001:0002E1A0       Forms.TCustomForm.CMBiDiModeChanged
 0001:0002F01C       Forms.TCustomForm.CMColorChanged
 0001:0002F058       Forms.TCustomForm.CMCtl3DChanged
 0001:00031190       Forms.TCustomForm.CMDeactivate
 0001:000311B4       Forms.TCustomForm.CMDialogKey
 0001:0002F0A0       Forms.TCustomForm.CMFontChanged
 0001:0003186C       Forms.TCustomForm.CMIconChanged
 0001:00031958       Forms.TCustomForm.CMIsShortCut
 0001:0002F0C0       Forms.TCustomForm.CMMenuChanged
 0001:0002E238       Forms.TCustomForm.CMParentBiDiModeChanged
 0001:000318EC       Forms.TCustomForm.CMParentFontChanged
 0001:0002E2C4       Forms.TCustomForm.CMPopupHwndDestroy
 0001:0003188C       Forms.TCustomForm.CMRelease
 0001:00031250       Forms.TCustomForm.CMShowingChanged
 0001:00031894       Forms.TCustomForm.CMTextChanged
 0001:000318E4       Forms.TCustomForm.CMUIActivate
 0001:0002C90C       Forms.TCustomForm.Create
 0001:0002CAD0       Forms.TCustomForm.CreateNew
 0001:0002F4F0       Forms.TCustomForm.CreateParams
 0001:0002FA04       Forms.TCustomForm.CreateWindowHandle
 0001:0002F830       Forms.TCustomForm.CreateWnd
 0001:00030350       Forms.TCustomForm.Deactivate
 0001:0002FCC8       Forms.TCustomForm.DefaultHandler
 0001:0002D2B0       Forms.TCustomForm.DefineProperties
 0001:0002FDEC       Forms.TCustomForm.DefocusControl
 0001:0002CCBC       Forms.TCustomForm.Destroy
 0001:0002FB80       Forms.TCustomForm.DestroyHandle
 0001:0002FC84       Forms.TCustomForm.DestroyWindowHandle
 0001:0002E798       Forms.TCustomForm.Dock
 0001:0002D584       Forms.TCustomForm.DoClose
 0001:0002CDBC       Forms.TCustomForm.DoCreate
 0001:0002CE38       Forms.TCustomForm.DoDestroy
 0001:0002E7DC       Forms.TCustomForm.DoDock
 0001:0002D5A4       Forms.TCustomForm.DoHide
 0001:0002D5C4       Forms.TCustomForm.DoShow
 0001:0002FE34       Forms.TCustomForm.FocusControl
 0001:0002E834       Forms.TCustomForm.GetActiveMDIChild
 0001:0002E32C       Forms.TCustomForm.GetBorderIconStyles
 0001:0002E4E4       Forms.TCustomForm.GetBorderStyles
 0001:0002E9D4       Forms.TCustomForm.GetCanvas
 0001:0002D66C       Forms.TCustomForm.GetChildren
 0001:0002D5E4       Forms.TCustomForm.GetClientRect
 0001:0002D6D8       Forms.TCustomForm.GetFloating
 0001:000303A0       Forms.TCustomForm.GetIconHandle
 0001:0002D3D0       Forms.TCustomForm.GetLeft
 0001:0002E868       Forms.TCustomForm.GetMDIChildCount
 0001:0002E8B4       Forms.TCustomForm.GetMDIChildren
 0001:0002E934       Forms.TCustomForm.GetMonitor
 0001:0002D704       Forms.TCustomForm.GetOwnerWindow
 0001:0002EE78       Forms.TCustomForm.GetPixelsPerInch
 0001:0002EE8C       Forms.TCustomForm.GetPopupChildren
 0001:0002EEB4       Forms.TCustomForm.GetRecreateChildren
 0001:0002EFE0       Forms.TCustomForm.GetScaled
 0001:0002D40C       Forms.TCustomForm.GetTextHeight
 0001:0002D3F0       Forms.TCustomForm.GetTop
 0001:000323A0       Forms.TCustomForm.HandleCreateException
 0001:00031B24       Forms.TCustomForm.Hide
 0001:0002D4BC       Forms.TCustomForm.IconChanged
 0001:000324D8       Forms.TCustomForm.InitAlphaBlending
 0001:0002D550       Forms.TCustomForm.IsAutoScrollStored
 0001:0002D518       Forms.TCustomForm.IsClientSizeStored
 0001:0002E9E8       Forms.TCustomForm.IsForm
 0001:0002D528       Forms.TCustomForm.IsFormSizeStored
 0001:0002E9F0       Forms.TCustomForm.IsIconStored
 0001:000322B4       Forms.TCustomForm.IsShortCut
 0001:0002CE98       Forms.TCustomForm.Loaded
 0001:0003022C       Forms.TCustomForm.MergeMenu
 0001:00032368       Forms.TCustomForm.MouseWheelHandler
 0001:0002F040       Forms.TCustomForm.NormalColor
 0001:0002CEE4       Forms.TCustomForm.Notification
 0001:00030380       Forms.TCustomForm.Paint
 0001:000303BC       Forms.TCustomForm.PaintWindow
 0001:00030478       Forms.TCustomForm.PaletteChanged
 0001:0003232C       Forms.TCustomForm.QueryInterface
 0001:0002D360       Forms.TCustomForm.ReadIgnoreFontProperty
 0001:0002D020       Forms.TCustomForm.ReadState
 0001:0002D380       Forms.TCustomForm.ReadTextHeight
 0001:00031BD0       Forms.TCustomForm.RecreateAsPopup
 0001:0002EB8C       Forms.TCustomForm.RefreshMDIMenu
 0001:00031C00       Forms.TCustomForm.Release
 0001:00031FF8       Forms.TCustomForm.RequestAlign
 0001:00030AFC       Forms.TCustomForm.Resizing
 0001:000301DC       Forms.TCustomForm.SendCancelMode
 0001:00030178       Forms.TCustomForm.SetActive
 0001:0002FD2C       Forms.TCustomForm.SetActiveControl
 0001:00032488       Forms.TCustomForm.SetAlphaBlend
 0001:0003249C       Forms.TCustomForm.SetAlphaBlendValue
 0001:0002E3F8       Forms.TCustomForm.SetBorderIcons
 0001:0002E5F8       Forms.TCustomForm.SetBorderStyle
 0001:0002D71C       Forms.TCustomForm.SetChildOrder
 0001:0002D80C       Forms.TCustomForm.SetClientHeight
 0001:0002D7D8       Forms.TCustomForm.SetClientWidth
 0001:00031B44       Forms.TCustomForm.SetFocus
 0001:0002FE58       Forms.TCustomForm.SetFocusedControl
 0001:0002EA18       Forms.TCustomForm.SetFormStyle
 0001:0002E9DC       Forms.TCustomForm.SetIcon
 0001:000323B0       Forms.TCustomForm.SetLayeredAttribs
 0001:00032504       Forms.TCustomForm.SetLeft
 0001:0002EC54       Forms.TCustomForm.SetMenu
 0001:0002EC08       Forms.TCustomForm.SetObjectMenuItem
 0001:0002D8F4       Forms.TCustomForm.SetParent
 0001:0002D7B0       Forms.TCustomForm.SetParentBiDiMode
 0001:0002EEDC       Forms.TCustomForm.SetPixelsPerInch
 0001:0002EF2C       Forms.TCustomForm.SetPopupMode
 0001:0002EF80       Forms.TCustomForm.SetPopupParent
 0001:0002EF10       Forms.TCustomForm.SetPosition
 0001:0002EFEC       Forms.TCustomForm.SetScaled
 0001:00032540       Forms.TCustomForm.SetTop
 0001:000324C4       Forms.TCustomForm.SetTransparentColor
 0001:000324B0       Forms.TCustomForm.SetTransparentColorValue
 0001:0002D840       Forms.TCustomForm.SetVisible
 0001:00030100       Forms.TCustomForm.SetWindowFocus
 0001:0002EC2C       Forms.TCustomForm.SetWindowMenu
 0001:0002F0DC       Forms.TCustomForm.SetWindowState
 0001:0002F11C       Forms.TCustomForm.SetWindowToMonitor
 0001:00031B2C       Forms.TCustomForm.Show
 0001:00031C1C       Forms.TCustomForm.ShowModal
 0001:00031F90       Forms.TCustomForm.UpdateActions
 0001:0002D9B0       Forms.TCustomForm.ValidateRename
 0001:0002D884       Forms.TCustomForm.VisibleChanging
 0001:0002D8F0       Forms.TCustomForm.WantChildKey
 0001:00030ADC       Forms.TCustomForm.WMActivate
 0001:00030B34       Forms.TCustomForm.WMClose
 0001:000309B0       Forms.TCustomForm.WMCommand
 0001:00030848       Forms.TCustomForm.WMDestroy
 0001:00030D54       Forms.TCustomForm.WMEnterMenuLoop
 0001:00030624       Forms.TCustomForm.WMEraseBkgnd
 0001:00030F94       Forms.TCustomForm.WMGetMinMaxInfo
 0001:00030E1C       Forms.TCustomForm.WMHelp
 0001:000305C4       Forms.TCustomForm.WMIconEraseBkgnd
 0001:000309E4       Forms.TCustomForm.WMInitMenuPopup
 0001:00030CD0       Forms.TCustomForm.WMMDIActivate
 0001:000309FC       Forms.TCustomForm.WMMenuChar
 0001:00030A34       Forms.TCustomForm.WMMenuSelect
 0001:00031120       Forms.TCustomForm.WMNCCalcSize
 0001:0003076C       Forms.TCustomForm.WMNCCreate
 0001:000307A0       Forms.TCustomForm.WMNCHitTest
 0001:000307B8       Forms.TCustomForm.WMNCLButtonDown
 0001:0003059C       Forms.TCustomForm.WMNCPaint
 0001:00030D28       Forms.TCustomForm.WMNextDlgCtl
 0001:0003051C       Forms.TCustomForm.WMPaint
 0001:0003065C       Forms.TCustomForm.WMQueryDragIcon
 0001:00030B3C       Forms.TCustomForm.WMQueryEndSession
 0001:00032018       Forms.TCustomForm.WMSettingChange
 0001:00030C38       Forms.TCustomForm.WMShowWindow
 0001:00030BB0       Forms.TCustomForm.WMSysCommand
 0001:00031034       Forms.TCustomForm.WMWindowPosChanging
 0001:0002D9F0       Forms.TCustomForm.WndProc
 0001:0002D3B4       Forms.TCustomForm.WritePixelsPerInch
 0001:0002D398       Forms.TCustomForm.WriteTextHeight
 0001:00032A2C       Forms.TMonitor.GetBoundsRect
 0001:000329DC       Forms.TMonitor.GetHeight
 0001:000329C4       Forms.TMonitor.GetLeft
 0001:00032A8C       Forms.TMonitor.GetPrimary
 0001:000329F8       Forms.TMonitor.GetTop
 0001:00032A10       Forms.TMonitor.GetWidth
 0001:00032A5C       Forms.TMonitor.GetWorkareaRect
 0001:00032168       Forms.TraverseClients
 0001:00031F20       Forms.TraverseClients
 0001:00032068       Forms.TraverseClients
 0001:00032E54       Forms.TScreen.AddDataModule
 0001:00032DCC       Forms.TScreen.AddForm
 0001:00033894       Forms.TScreen.AlignForm
 0001:0003380C       Forms.TScreen.AlignForms
 0001:00033BCC       Forms.TScreen.ClearMonitors
 0001:00032AB0       Forms.TScreen.Create
 0001:00032E6C       Forms.TScreen.CreateCursors
 0001:00032C08       Forms.TScreen.Destroy
 0001:00032EC8       Forms.TScreen.DestroyCursors
 0001:000333F0       Forms.TScreen.DisableAlign
 0001:000333F8       Forms.TScreen.EnableAlign
 0001:000331D8       Forms.TScreen.GetCursors
 0001:00032D78       Forms.TScreen.GetCustomFormCount
 0001:00032D64       Forms.TScreen.GetCustomForms
 0001:000331BC       Forms.TScreen.GetDataModule
 0001:000331D0       Forms.TScreen.GetDataModuleCount
 0001:00033150       Forms.TScreen.GetDefaultIME
 0001:00032D00       Forms.TScreen.GetDesktopHeight
 0001:00032CF4       Forms.TScreen.GetDesktopLeft
 0001:00032CE8       Forms.TScreen.GetDesktopTop
 0001:00032D0C       Forms.TScreen.GetDesktopWidth
 0001:00032D48       Forms.TScreen.GetForm
 0001:00032D5C       Forms.TScreen.GetFormCount
 0001:00032CD0       Forms.TScreen.GetHeight
 0001:00032F50       Forms.TScreen.GetImes
 0001:0003329C       Forms.TScreen.GetMetricSettings
 0001:00032D18       Forms.TScreen.GetMonitor
 0001:00032D2C       Forms.TScreen.GetMonitorCount
 0001:00033C04       Forms.TScreen.GetMonitors
 0001:00033C28       Forms.TScreen.GetPrimaryMonitor
 0001:00032CDC       Forms.TScreen.GetWidth
 0001:0003316C       Forms.TScreen.IconFontChanged
 0001:00032F28       Forms.TScreen.InsertCursor
 0001:00033418       Forms.TScreen.Realign
 0001:00032E60       Forms.TScreen.RemoveDataModule
 0001:00032E04       Forms.TScreen.RemoveForm
 0001:0003391C       Forms.TScreen.ResetFonts
 0001:00033200       Forms.TScreen.SetCursor
 0001:00032D80       Forms.TScreen.UpdateLastActive
 0001:0002C7FC       Forms.TScrollingWinControl.AdjustClientRect
 0001:0002C1BC       Forms.TScrollingWinControl.AlignControls
 0001:0002C1DC       Forms.TScrollingWinControl.AutoScrollEnabled
 0001:0002C48C       Forms.TScrollingWinControl.AutoScrollInView
 0001:0002C314       Forms.TScrollingWinControl.CalcAutoRange
 0001:0002C69C       Forms.TScrollingWinControl.ChangeScale
 0001:0002C87C       Forms.TScrollingWinControl.CMBiDiModeChanged
 0001:0002C0B8       Forms.TScrollingWinControl.Create
 0001:0002C16C       Forms.TScrollingWinControl.CreateParams
 0001:0002C17C       Forms.TScrollingWinControl.CreateWnd
 0001:0002C130       Forms.TScrollingWinControl.Destroy
 0001:0002C1FC       Forms.TScrollingWinControl.DoFlipChildren
 0001:0002C6C0       Forms.TScrollingWinControl.Resizing
 0001:0002C5F8       Forms.TScrollingWinControl.ScaleScrollBars
 0001:0002C4A4       Forms.TScrollingWinControl.ScrollInView
 0001:0002C338       Forms.TScrollingWinControl.SetAutoScroll
 0001:0002C374       Forms.TScrollingWinControl.SetHorzScrollBar
 0001:0002C384       Forms.TScrollingWinControl.SetVertScrollBar
 0001:0002C394       Forms.TScrollingWinControl.UpdateScrollBars
 0001:0002C7B4       Forms.TScrollingWinControl.WMHScroll
 0001:0002C6C4       Forms.TScrollingWinControl.WMSize
 0001:0002C7D8       Forms.TScrollingWinControl.WMVScroll
 0001:00033AE8       Forms.UnhookHintHooks
 0001:0002BE94       Forms.UpdateScrollProperties
 0001:000365F8       Forms.ValidateHintWindow
 0001:0002B480       Forms.ValidParentForm
 0003:00001460       Forms.WindowClass
 0004:00003310       Graphics..12
 0001:0001B034       Graphics..EInvalidGraphic
 0001:0001B090       Graphics..EInvalidGraphicOperation
 0001:0001BAF0       Graphics..TBitmap
 0001:0001F388       Graphics..TBitmapCanvas
 0001:0001BA90       Graphics..TBitmapImage
 0001:0001B6FC       Graphics..TBrush
 0001:0001BD90       Graphics..TBrushResourceManager
 0001:0001B7C0       Graphics..TCanvas
 0001:0001B45C       Graphics..TFont
 0001:0001B944       Graphics..TGraphic
 0001:0001B388       Graphics..TGraphicsObject
 0001:0001BC38       Graphics..TIcon
 0001:0001BBDC       Graphics..TIconImage
 0001:0002210C       Graphics..TPatternManager
 0001:0001B5FC       Graphics..TPen
 0001:0001BD28       Graphics..TResourceManager
 0001:0001BA30       Graphics..TSharedImage
 0001:0001E848       Graphics.AdjustColor
 0001:00022418       Graphics.AllocPatternBitmap
 0001:0001E854       Graphics.BetterSize
 0003:00000DD4       Graphics.BitmapCanvasList
 0004:00003328       Graphics.BitmapImageLock
 0004:00003360       Graphics.BrushManager
 0001:0001E028       Graphics.BytesPerScanline
 0001:0001E38C       Graphics.ByteSwapColors
 0004:00003364       Graphics.CanvasList
 0001:0001C89C       Graphics.CharsetToIdent
 0001:0001EE10       Graphics.CheckBool
 0001:0001C128       Graphics.ClearColor
 0003:00000DCC       Graphics.ClipboardFormats
 0003:00000B48       Graphics.Colors
 0001:0001C694       Graphics.ColorToIdent
 0001:0001C684       Graphics.ColorToRGB
 0001:0001F914       Graphics.CopyBitmap
 0001:0001FFDC       Graphics.CopyBitmapAsMask
 0001:0001FF78       Graphics.CopyPalette
 0004:00003340       Graphics.CounterLock
 0001:0001E3E0       Graphics.CreateSystemPalette
 0003:00000B44       Graphics.DDBsOnly
 0003:00000D9C       Graphics.DefBrushData
 0003:00000B14       Graphics.DefFontData
 0003:00000D78       Graphics.DefPenData
 0001:0001F4D0       Graphics.DeselectBitmap
 0003:00000DD8       Graphics.DIBPalSizes
 0001:0001F06C       Graphics.DoWrite
 0001:0001DEA8       Graphics.DupBits
 0003:00000DD0       Graphics.FileFormats
 0001:00022450       Graphics.Finalization
 0001:0001F8C8       Graphics.FixupBitFields
 0003:00000CE8       Graphics.FontCharsets
 0004:00003358       Graphics.FontManager
 0001:0001F424       Graphics.FreeMemoryContexts
 0001:0001DE98       Graphics.GDICheck
 0001:0001DDF0       Graphics.GDIError
 0001:00021F48       Graphics.GetDefFontCharSet
 0001:0001EDF8       Graphics.GetDIB
 0001:0001ED3C       Graphics.GetDIBSizes
 0001:0001E008       Graphics.GetDInColors
 0001:0001C8BC       Graphics.GetFontData
 0001:0001BDFC       Graphics.GetHashCode
 0002:0000029C       Graphics.Graphics
 0001:0001C8AC       Graphics.IdentToCharset
 0001:0001C6A4       Graphics.IdentToColor
 0001:00021F8C       Graphics.InitDefFontData
 0001:0001EBF0       Graphics.InitializeBitmapInfoHeader
 0001:00021F10       Graphics.InitScreenLogPixels
 0001:0001BD14       Graphics.InternalDeletePalette
 0001:0001ED44       Graphics.InternalGetDIB
 0001:0001ECD4       Graphics.InternalGetDIBSizes
 0001:0001DD84       Graphics.InvalidBitmap
 0001:0001DD6C       Graphics.InvalidGraphic
 0001:0001DD90       Graphics.InvalidIcon
 0001:0001DD54       Graphics.InvalidOperation
 0001:0001CB64       Graphics.IsDefaultFont
 0001:0001DD9C       Graphics.OutOfResources
 0003:00000DE0       Graphics.Pal16
 0001:0001C198       Graphics.PaletteChanged
 0001:0001E590       Graphics.PaletteFromDIBColorTable
 0001:0001E634       Graphics.PaletteToDIBColorTable
 0003:00000DDC       Graphics.PalSize
 0004:00003368       Graphics.PatternManager
 0004:0000335C       Graphics.PenManager
 0003:00000DAC       Graphics.PenModes
 0003:00000D88       Graphics.PenStyles
 0001:0001E8E4       Graphics.ReadIcon
 0001:0001E310       Graphics.RGBQuadToTriple
 0001:0001E2D4       Graphics.RGBTripleToQuad
 0004:00003314       Graphics.ScreenLogPixels
 0004:0000331C       Graphics.StockBrush
 0004:00003320       Graphics.StockFont
 0004:00003324       Graphics.StockIcon
 0004:00003318       Graphics.StockPen
 0004:0000330C       Graphics.SystemPalette16
 0001:0001E4F8       Graphics.SystemPaletteOverride
 0001:0002028C       Graphics.TBitmap.Assign
 0001:0002046C       Graphics.TBitmap.Changed
 0001:00020448       Graphics.TBitmap.Changing
 0001:00020388       Graphics.TBitmap.CopyImage
 0001:000201E8       Graphics.TBitmap.Create
 0001:00020250       Graphics.TBitmap.Destroy
 0001:000208F8       Graphics.TBitmap.DIBNeeded
 0001:00020478       Graphics.TBitmap.Dormant
 0001:000204EC       Graphics.TBitmap.Draw
 0001:0002096C       Graphics.TBitmap.FreeContext
 0001:0002073C       Graphics.TBitmap.FreeImage
 0001:000207BC       Graphics.TBitmap.GetCanvas
 0001:000207A0       Graphics.TBitmap.GetEmpty
 0001:00020804       Graphics.TBitmap.GetHandle
 0001:00020828       Graphics.TBitmap.GetHandleType
 0001:00020854       Graphics.TBitmap.GetHeight
 0001:00020864       Graphics.TBitmap.GetMaskHandle
 0001:00020878       Graphics.TBitmap.GetMonochrome
 0001:00020894       Graphics.TBitmap.GetPalette
 0001:000208A8       Graphics.TBitmap.GetTransparentColor
 0001:000208F0       Graphics.TBitmap.GetWidth
 0001:0002097C       Graphics.TBitmap.HandleNeeded
 0001:00020B34       Graphics.TBitmap.LoadFromClipboardFormat
 0001:00020BB8       Graphics.TBitmap.LoadFromStream
 0001:00020A1C       Graphics.TBitmap.MaskHandleNeeded
 0001:00020BDC       Graphics.TBitmap.NewImage
 0001:00020A7C       Graphics.TBitmap.PaletteNeeded
 0001:00020CDC       Graphics.TBitmap.ReadData
 0001:00020D04       Graphics.TBitmap.ReadDIB
 0001:00021274       Graphics.TBitmap.ReadStream
 0001:00021934       Graphics.TBitmap.SaveToClipboardFormat
 0001:0002192C       Graphics.TBitmap.SaveToStream
 0001:000212E4       Graphics.TBitmap.SetHandle
 0001:000213A8       Graphics.TBitmap.SetHandleType
 0001:000214E4       Graphics.TBitmap.SetHeight
 0001:00021500       Graphics.TBitmap.SetMonochrome
 0001:0002157C       Graphics.TBitmap.SetPalette
 0001:000219D4       Graphics.TBitmap.SetSize
 0001:00021650       Graphics.TBitmap.SetWidth
 0001:0002166C       Graphics.TBitmap.WriteData
 0001:00021674       Graphics.TBitmap.WriteStream
 0001:0001F54C       Graphics.TBitmapCanvas.Create
 0001:0001F654       Graphics.TBitmapCanvas.CreateHandle
 0001:0001F588       Graphics.TBitmapCanvas.Destroy
 0001:0001F5B4       Graphics.TBitmapCanvas.FreeContext
 0001:0001F764       Graphics.TBitmapImage.Destroy
 0001:0001F7C0       Graphics.TBitmapImage.FreeHandle
 0001:0001D2CC       Graphics.TBrush.Assign
 0001:0001D264       Graphics.TBrush.Create
 0001:0001D2A4       Graphics.TBrush.Destroy
 0001:0001D404       Graphics.TBrush.GetColor
 0001:0001D374       Graphics.TBrush.GetData
 0001:0001D440       Graphics.TBrush.GetHandle
 0001:0001D520       Graphics.TBrush.GetStyle
 0001:0001D3E0       Graphics.TBrush.SetBitmap
 0001:0001D40C       Graphics.TBrush.SetColor
 0001:0001D390       Graphics.TBrush.SetData
 0001:0001D528       Graphics.TBrush.SetStyle
 0001:0001C118       Graphics.TBrushResourceManager.FreeObjects
 0001:0001DD34       Graphics.TCanvas.BrushChanged
 0001:0001DC08       Graphics.TCanvas.Changed
 0001:0001DBF4       Graphics.TCanvas.Changing
 0001:0001D67C       Graphics.TCanvas.CopyRect
 0001:0001D55C       Graphics.TCanvas.Create
 0001:0001DC78       Graphics.TCanvas.CreateBrush
 0001:0001DC1C       Graphics.TCanvas.CreateFont
 0001:0001DB24       Graphics.TCanvas.CreateHandle
 0001:0001DC48       Graphics.TCanvas.CreatePen
 0001:0001DAC4       Graphics.TCanvas.DeselectHandles
 0001:0001D620       Graphics.TCanvas.Destroy
 0001:0001D704       Graphics.TCanvas.Draw
 0001:0001D7B0       Graphics.TCanvas.FillRect
 0001:0001DCF4       Graphics.TCanvas.FontChanged
 0001:0001DAA0       Graphics.TCanvas.GetHandle
 0001:0001D9E4       Graphics.TCanvas.GetPenPos
 0001:0001DA2C       Graphics.TCanvas.GetPixel
 0001:0001D7EC       Graphics.TCanvas.LineTo
 0001:0001D824       Graphics.TCanvas.Lock
 0001:0001D84C       Graphics.TCanvas.MoveTo
 0001:0001DD14       Graphics.TCanvas.PenChanged
 0001:0001DB7C       Graphics.TCanvas.RequiredState
 0001:0001D9D8       Graphics.TCanvas.SetBrush
 0001:0001D9BC       Graphics.TCanvas.SetFont
 0001:0001DB28       Graphics.TCanvas.SetHandle
 0001:0001D9CC       Graphics.TCanvas.SetPen
 0001:0001DA0C       Graphics.TCanvas.SetPenPos
 0001:0001DA58       Graphics.TCanvas.SetPixel
 0001:0001D878       Graphics.TCanvas.StretchDraw
 0001:0001D8B4       Graphics.TCanvas.TextExtent
 0001:0001D918       Graphics.TCanvas.TextHeight
 0001:0001D8FC       Graphics.TCanvas.TextWidth
 0001:0001D938       Graphics.TCanvas.TryLock
 0001:0001D994       Graphics.TCanvas.Unlock
 0001:0001CA14       Graphics.TFont.Assign
 0001:0001C9F8       Graphics.TFont.Changed
 0001:0001C97C       Graphics.TFont.Create
 0001:0001C9D0       Graphics.TFont.Destroy
 0001:0001CF38       Graphics.TFont.GetCharset
 0001:0001CAE8       Graphics.TFont.GetData
 0001:0001CB90       Graphics.TFont.GetHandle
 0001:0001CDF0       Graphics.TFont.GetHeight
 0001:0001CE20       Graphics.TFont.GetName
 0001:0001CF68       Graphics.TFont.GetOrientation
 0001:0001CF08       Graphics.TFont.GetPitch
 0001:0001CE94       Graphics.TFont.GetSize
 0001:0001CED0       Graphics.TFont.GetStyle
 0001:0001CF40       Graphics.TFont.SetCharset
 0001:0001CB50       Graphics.TFont.SetColor
 0001:0001CB00       Graphics.TFont.SetData
 0001:0001CDCC       Graphics.TFont.SetHandle
 0001:0001CDF8       Graphics.TFont.SetHeight
 0001:0001CE38       Graphics.TFont.SetName
 0001:0001CF70       Graphics.TFont.SetOrientation
 0001:0001CF10       Graphics.TFont.SetPitch
 0001:0001CEB0       Graphics.TFont.SetSize
 0001:0001CEDC       Graphics.TFont.SetStyle
 0001:0001F054       Graphics.TGraphic.Changed
 0001:0001F01C       Graphics.TGraphic.Create
 0001:0001F0C4       Graphics.TGraphic.DefineProperties
 0001:0001F110       Graphics.TGraphic.Equals
 0001:0001F25C       Graphics.TGraphic.GetPalette
 0001:0001F260       Graphics.TGraphic.GetTransparent
 0001:0001F268       Graphics.TGraphic.LoadFromFile
 0001:0001F2BC       Graphics.TGraphic.Progress
 0001:0001F2E8       Graphics.TGraphic.ReadData
 0001:0001F2F4       Graphics.TGraphic.SaveToFile
 0001:0001F34C       Graphics.TGraphic.SetPalette
 0001:0001F350       Graphics.TGraphic.SetSize
 0001:0001F36C       Graphics.TGraphic.SetTransparent
 0001:0001F37C       Graphics.TGraphic.WriteData
 0001:0001C6B4       Graphics.TGraphicsObject.Changed
 0001:0001C6C8       Graphics.TGraphicsObject.Lock
 0001:0001C6D8       Graphics.TGraphicsObject.Unlock
 0001:00021B04       Graphics.TIcon.Assign
 0001:00021A80       Graphics.TIcon.Create
 0001:00021AD4       Graphics.TIcon.Destroy
 0001:00021B64       Graphics.TIcon.Draw
 0001:00021BA8       Graphics.TIcon.GetEmpty
 0001:00021BC0       Graphics.TIcon.GetHandle
 0001:00021BD4       Graphics.TIcon.GetHeight
 0001:00021BE8       Graphics.TIcon.GetWidth
 0001:00021BFC       Graphics.TIcon.HandleNeeded
 0001:00021C74       Graphics.TIcon.ImageNeeded
 0001:00021EE8       Graphics.TIcon.LoadFromClipboardFormat
 0001:00021D28       Graphics.TIcon.LoadFromStream
 0001:00021DE0       Graphics.TIcon.NewImage
 0001:00021EFC       Graphics.TIcon.SaveToClipboardFormat
 0001:00021EC0       Graphics.TIcon.SaveToStream
 0001:00021E54       Graphics.TIcon.SetHandle
 0001:00021E6C       Graphics.TIcon.SetHeight
 0001:00021E84       Graphics.TIcon.SetSize
 0001:00021EA4       Graphics.TIcon.SetTransparent
 0001:00021EA8       Graphics.TIcon.SetWidth
 0001:00021A38       Graphics.TIconImage.Destroy
 0001:00021A68       Graphics.TIconImage.FreeHandle
 0001:000221E4       Graphics.TPatternManager.AllocPattern
 0001:00022168       Graphics.TPatternManager.Create
 0001:00022298       Graphics.TPatternManager.CreateBitmap
 0001:000221A0       Graphics.TPatternManager.Destroy
 0001:00022398       Graphics.TPatternManager.FreePatterns
 0001:000221CC       Graphics.TPatternManager.Lock
 0001:000221D8       Graphics.TPatternManager.Unlock
 0001:0001D004       Graphics.TPen.Assign
 0001:0001CF98       Graphics.TPen.Create
 0001:0001CFDC       Graphics.TPen.Destroy
 0001:0001D124       Graphics.TPen.GetColor
 0001:0001D0BC       Graphics.TPen.GetData
 0001:0001D154       Graphics.TPen.GetHandle
 0001:0001D200       Graphics.TPen.GetStyle
 0001:0001D230       Graphics.TPen.GetWidth
 0001:0001D12C       Graphics.TPen.SetColor
 0001:0001D0D4       Graphics.TPen.SetData
 0001:0001D1EC       Graphics.TPen.SetMode
 0001:0001D208       Graphics.TPen.SetStyle
 0001:0001D238       Graphics.TPen.SetWidth
 0001:0001E048       Graphics.TransparentStretchBlt
 0001:0001BE88       Graphics.TResourceManager.AllocResource
 0001:0001C0AC       Graphics.TResourceManager.AssignResource
 0001:0001C030       Graphics.TResourceManager.ChangeResource
 0001:0001BE10       Graphics.TResourceManager.Create
 0001:0001BE4C       Graphics.TResourceManager.Destroy
 0001:0001C0A8       Graphics.TResourceManager.FreeObjects
 0001:0001BF6C       Graphics.TResourceManager.FreeResource
 0001:0001BE70       Graphics.TResourceManager.Lock
 0001:0001BE7C       Graphics.TResourceManager.Unlock
 0001:0001F740       Graphics.TSharedImage.Reference
 0001:0001F744       Graphics.TSharedImage.Release
 0001:0001E688       Graphics.TwoBitsFromDIB
 0001:0001F80C       Graphics.UpdateDIBColorTable
 0001:0001EE0C       Graphics.WinError
 0001:0001EE1C       Graphics.WriteIcon
 0004:000034B4       GraphUtil..2
 0005:00000030       GraphUtil.CachedColorAdjustLuma
 0005:00000028       GraphUtil.CachedColorValue
 0005:00000018       GraphUtil.CachedHighlight
 0005:00000014       GraphUtil.CachedHighlightColor
 0005:00000010       GraphUtil.CachedHighlightLum
 0005:0000002C       GraphUtil.CachedLumValue
 0005:00000024       GraphUtil.CachedShadow
 0005:00000020       GraphUtil.CachedShadowColor
 0005:0000001C       GraphUtil.CachedShadowLum
 0001:000283C8       GraphUtil.Finalization
 0002:000003EC       GraphUtil.GraphUtil
 0003:00000EA4       GraphUtil.WebNamedColors
 0004:000033A0       HelpIntfs..2
 0001:000230D4       HelpIntfs..EHelpSystemException
 0001:00023260       HelpIntfs..THelpManager
 0001:00023920       HelpIntfs.DefaultContextHelp
 0001:000232FC       HelpIntfs.EnsureHelpManager
 0001:00024070       HelpIntfs.Finalization
 0001:00023318       HelpIntfs.GetHelpSystem
 0002:000003A8       HelpIntfs.HelpIntfs
 0004:000033A4       HelpIntfs.HelpManager
 0001:00023D44       HelpIntfs.THelpManager.AssignHelpSelector
 0001:000235E4       HelpIntfs.THelpManager.CallSpecialWinHelp
 0001:00023360       HelpIntfs.THelpManager.Create
 0001:0002400C       HelpIntfs.THelpManager.Destroy
 0001:00023414       HelpIntfs.THelpManager.DoSoftShutDown
 0001:00023444       HelpIntfs.THelpManager.DoTableOfContents
 0001:00023F68       HelpIntfs.THelpManager.GetHandle
 0001:00023F6C       HelpIntfs.THelpManager.GetHelpFile
 0001:00023DA0       HelpIntfs.THelpManager.Hook
 0001:00023F80       HelpIntfs.THelpManager.Release
 0001:000239B4       HelpIntfs.THelpManager.ShowContextHelp
 0001:000236EC       HelpIntfs.THelpManager.ShowHelp
 0001:00023C5C       HelpIntfs.THelpManager.ShowTableOfContents
 0001:00023C64       HelpIntfs.THelpManager.ShowTopicHelp
 0001:00023E5C       HelpIntfs.THelpManager.UnderstandsKeyword
 0001:000233D4       HelpIntfs.THelpManager.UnloadAllViewers
 0001:00051E8C       ImgList..TChangeLink
 0001:00051F08       ImgList..TCustomImageList
 0004:00003598       ImgList.CachedComCtrlVer
 0001:00052DF4       ImgList.DoWrite
 0003:000016C0       ImgList.DrawingStyles
 0001:00052000       ImgList.GetColor
 0001:00051FE0       ImgList.GetRGBColor
 0004:0000359C       ImgList.ImageListWriteExProc
 0003:000016D0       ImgList.Images
 0003:000016D8       ImgList.Mask
 0001:00052CC0       ImgList.StreamsEqual
 0001:0005352C       ImgList.TChangeLink.Change
 0001:000534F8       ImgList.TChangeLink.Destroy
 0001:00052408       ImgList.TCustomImageList.Add
 0001:000529E0       ImgList.TCustomImageList.AddImages
 0001:00052A00       ImgList.TCustomImageList.Assign
 0001:00052AC4       ImgList.TCustomImageList.AssignTo
 0001:000534D4       ImgList.TCustomImageList.BeginUpdate
 0001:00052C18       ImgList.TCustomImageList.Change
 0001:00052B78       ImgList.TCustomImageList.CheckImage
 0001:00052584       ImgList.TCustomImageList.Clear
 0001:00052838       ImgList.TCustomImageList.CopyImages
 0001:00052020       ImgList.TCustomImageList.Create
 0001:00052368       ImgList.TCustomImageList.CreateImageList
 0001:00052E50       ImgList.TCustomImageList.DefineProperties
 0001:000524F8       ImgList.TCustomImageList.Delete
 0001:0005206C       ImgList.TCustomImageList.Destroy
 0001:000525F0       ImgList.TCustomImageList.DoDraw
 0001:000527EC       ImgList.TCustomImageList.Draw
 0001:000527C4       ImgList.TCustomImageList.Draw
 0001:000534D8       ImgList.TCustomImageList.EndUpdate
 0001:00052D04       ImgList.TCustomImageList.Equal
 0001:00052330       ImgList.TCustomImageList.FreeHandle
 0001:000525C8       ImgList.TCustomImageList.GetBkColor
 0001:000524D4       ImgList.TCustomImageList.GetCount
 0001:000522CC       ImgList.TCustomImageList.GetHandle
 0001:00052C08       ImgList.TCustomImageList.GetHotSpot
 0001:000522DC       ImgList.TCustomImageList.GetImageHandle
 0001:00052190       ImgList.TCustomImageList.HandleAllocated
 0001:00052198       ImgList.TCustomImageList.HandleNeeded
 0001:000521A4       ImgList.TCustomImageList.InitBitmap
 0001:000520D8       ImgList.TCustomImageList.Initialize
 0001:00052EA8       ImgList.TCustomImageList.ReadD2Stream
 0001:0005313C       ImgList.TCustomImageList.ReadD3Stream
 0001:00053304       ImgList.TCustomImageList.ReadData
 0001:00052CAC       ImgList.TCustomImageList.RegisterChanges
 0001:00052590       ImgList.TCustomImageList.SetBkColor
 0001:00052BF0       ImgList.TCustomImageList.SetDrawingStyle
 0001:000522A0       ImgList.TCustomImageList.SetHandle
 0001:00052268       ImgList.TCustomImageList.SetNewDimensions
 0001:00052C68       ImgList.TCustomImageList.UnRegisterChanges
 0001:00053390       ImgList.TCustomImageList.WriteData
 0004:00003304       IniFiles..8
 0001:0001A814       IniFiles.Finalization
 0002:0000028C       IniFiles.IniFiles
 0003:00000B04       IniFiles.Values
 0001:00053E64       KeybLEDDemo_D90.Finalization
 0002:00000700       KeybLEDDemo_D90.KeybLEDDemo_D90
 0004:000035A0       KeyboardLED_D90..1
 0001:00053654       KeyboardLED_D90.CTL_CODE
 0001:00053B9C       KeyboardLED_D90.Finalization
 0004:000035A8       KeyboardLED_D90.hdriver
 0001:00053670       KeyboardLED_D90.Inp32
 0001:00053828       KeyboardLED_D90.inst
 0002:000006D8       KeyboardLED_D90.KeyboardLED_D90
 0001:000535B0       KeyboardLED_D90.LastErrorMsgStr
 0001:00053A1C       KeyboardLED_D90.Opendriver
 0001:000536DC       KeyboardLED_D90.Out32
 0001:00053648       KeyboardLED_D90.PortIn
 0001:00053650       KeyboardLED_D90.PortOut
 0001:00053B24       KeyboardLED_D90.ResetKeyboardLED
 0001:00053A90       KeyboardLED_D90.sendKeyControl
 0001:00053ADC       KeyboardLED_D90.SetKeyboardLED
 0001:00053738       KeyboardLED_D90.start
 0001:0005356C       KeyboardLED_D90.SystemVersion
 0004:000035A4       KeyboardLED_D90.SysVer
 0004:0000358C       Menus..01
 0001:0004A0D4       Menus..EMenuError
 0001:0004A980       Menus..TMainMenu
 0001:0004A884       Menus..TMenu
 0001:0004A388       Menus..TMenuActionLink
 0001:0004A460       Menus..TMenuItem
 0001:0004AF74       Menus..TMenuItemStack
 0001:0004AF08       Menus..TPopupList
 0001:0004AC64       Menus..TPopupMenu
 0001:0004BD7C       Menus.AddIn
 0003:00001690       Menus.Alignments
 0003:000016A0       Menus.Alignments
 0001:000509A0       Menus.AnsiSameCaption
 0001:0004CC50       Menus.BiDiDraw
 0003:00001638       Menus.Breaks
 0001:0004F6BC       Menus.BuildImage
 0003:000016BC       Menus.Buttons
 0003:000015D8       Menus.cBooleanToItemAutoFlag
 0003:00001628       Menus.Checks
 0003:000015DC       Menus.cItemAutoFlagToBoolean
 0003:000015D4       Menus.cItemAutoFlagToMenu
 0003:000015D0       Menus.cMenuAutoFlagToItem
 0004:00003590       Menus.CommandPool
 0001:0004B2EC       Menus.CompareFront
 0001:0004E53C       Menus.CopyToBest
 0003:000016A8       Menus.CurrentKeyboardLayout
 0001:0004F3B0       Menus.DoClick
 0001:00050760       Menus.DrawMenuItem
 0003:00001698       Menus.EdgeStyle
 0003:00001630       Menus.Enables
 0001:0004B048       Menus.Error
 0001:00050AE8       Menus.Finalization
 0001:0004EF40       Menus.Find
 0001:0004B00C       Menus.FindPopupControl
 0003:000016B0       Menus.Flags
 0001:0004F170       Menus.GetAltGRStatus
 0001:00050938       Menus.GetHotkey
 0001:0004D758       Menus.GetMenuSize
 0001:0004B0A0       Menus.GetSpecialName
 0003:0000164C       Menus.IBreaks
 0003:00001658       Menus.IChecks
 0003:00001660       Menus.IDefaults
 0003:00001668       Menus.IEnables
 0001:0004E50C       Menus.IfHotkeyAvailable
 0001:0004E5C0       Menus.InsertHotkeyFarEastFormat
 0003:00001688       Menus.IOwnerDraw
 0003:00001670       Menus.IRadios
 0003:00001680       Menus.IRTL
 0001:0004F9AC       Menus.IsAccelChar
 0003:000016AC       Menus.IsAltGRKeyLayout
 0001:0004F314       Menus.IsAltGRPressed
 0003:00001678       Menus.ISeparators
 0001:0004FA08       Menus.IsInitialChar
 0001:0004B4D8       Menus.Iterate
 0001:0004B53C       Menus.IterateMenus
 0003:000015E0       Menus.MenuKeyCaps
 0002:00000624       Menus.Menus
 0001:0004C2F0       Menus.NormalDraw
 0001:0004F3A0       Menus.NthParentOf
 0004:00003584       Menus.PopupList
 0001:0004B040       Menus.ReturnAddr
 0003:00001644       Menus.Separators
 0001:0004B068       Menus.ShortCut
 0001:0004F350       Menus.ShortCutFromMessage
 0004:00003588       Menus.ShortCutItems
 0001:0004B0F4       Menus.ShortCutToText
 0001:00050848       Menus.StripHotkey
 0001:0004B374       Menus.TextToShortCut
 0001:0004FF0C       Menus.TMainMenu.GetHandle
 0001:0004FEE0       Menus.TMainMenu.ItemChanged
 0001:0004FE4C       Menus.TMainMenu.MenuChanged
 0001:0004FEA8       Menus.TMainMenu.Merge
 0001:0004FE2C       Menus.TMainMenu.SetAutoMerge
 0001:0004FEC4       Menus.TMainMenu.Unmerge
 0001:0004F7FC       Menus.TMenu.AdjustBiDiBehavior
 0001:0004EDE0       Menus.TMenu.Create
 0001:0004EE7C       Menus.TMenu.CreateMenuItem
 0001:0004EE8C       Menus.TMenu.Destroy
 0001:0004F078       Menus.TMenu.DispatchCommand
 0001:0004F094       Menus.TMenu.DispatchPopup
 0001:0004F600       Menus.TMenu.DoBiDiModeChanged
 0001:0004F8B4       Menus.TMenu.DoChange
 0001:0004FCC4       Menus.TMenu.DoGetMenuString
 0001:0004EFD8       Menus.TMenu.FindItem
 0001:0004FDE4       Menus.TMenu.GetAutoHotkeys
 0001:0004FE08       Menus.TMenu.GetAutoLineReduction
 0001:0004EEC4       Menus.TMenu.GetChildren
 0001:0004EEE0       Menus.TMenu.GetHandle
 0001:0004F008       Menus.TMenu.GetHelpContext
 0001:0004F920       Menus.TMenu.ImageListChange
 0001:0004F5F8       Menus.TMenu.IsBiDiModeStored
 0001:0004F15C       Menus.TMenu.IsOwnerDraw
 0001:0004F994       Menus.TMenu.IsRightToLeft
 0001:0004F504       Menus.TMenu.IsShortCut
 0001:0004F8CC       Menus.TMenu.Loaded
 0001:0004F8E4       Menus.TMenu.MenuChanged
 0001:0004F968       Menus.TMenu.Notification
 0001:0004FD90       Menus.TMenu.ParentBiDiModeChanged
 0001:0004FDB8       Menus.TMenu.ParentBiDiModeChanged
 0001:0004FB48       Menus.TMenu.ProcessMenuChar
 0001:0004FDF4       Menus.TMenu.SetAutoHotkeys
 0001:0004FE18       Menus.TMenu.SetAutoLineReduction
 0001:0004FD6C       Menus.TMenu.SetBiDiMode
 0001:0004EEEC       Menus.TMenu.SetChildOrder
 0001:0004F92C       Menus.TMenu.SetImages
 0001:0004F7EC       Menus.TMenu.SetOwnerDraw
 0001:0004FD80       Menus.TMenu.SetParentBiDiMode
 0001:0004F87C       Menus.TMenu.SetWindowHandle
 0001:0004F768       Menus.TMenu.UpdateImage
 0001:0004EF28       Menus.TMenu.UpdateItems
 0001:0004B648       Menus.TMenuActionLink.AssignClient
 0001:0004B664       Menus.TMenuActionLink.IsAutoCheckLinked
 0001:0004B68C       Menus.TMenuActionLink.IsCaptionLinked
 0001:0004B6C4       Menus.TMenuActionLink.IsCheckedLinked
 0001:0004B6F4       Menus.TMenuActionLink.IsEnabledLinked
 0001:0004B788       Menus.TMenuActionLink.IsGroupIndexLinked
 0001:0004B724       Menus.TMenuActionLink.IsHelpContextLinked
 0001:0004B754       Menus.TMenuActionLink.IsHintLinked
 0001:0004B7C4       Menus.TMenuActionLink.IsImageIndexLinked
 0001:0004B860       Menus.TMenuActionLink.IsOnExecuteLinked
 0001:0004B7F8       Menus.TMenuActionLink.IsShortCutLinked
 0001:0004B82C       Menus.TMenuActionLink.IsVisibleLinked
 0001:0004B888       Menus.TMenuActionLink.SetAutoCheck
 0001:0004B8A8       Menus.TMenuActionLink.SetCaption
 0001:0004B8C8       Menus.TMenuActionLink.SetChecked
 0001:0004B8E8       Menus.TMenuActionLink.SetEnabled
 0001:0004B908       Menus.TMenuActionLink.SetHelpContext
 0001:0004B924       Menus.TMenuActionLink.SetHint
 0001:0004B948       Menus.TMenuActionLink.SetImageIndex
 0001:0004B9A8       Menus.TMenuActionLink.SetOnExecute
 0001:0004B968       Menus.TMenuActionLink.SetShortCut
 0001:0004B988       Menus.TMenuActionLink.SetVisible
 0001:0004E150       Menus.TMenuItem.ActionChange
 0001:0004DED4       Menus.TMenuItem.Add
 0001:0004D5D0       Menus.TMenuItem.AdvancedDrawItem
 0001:0004BB04       Menus.TMenuItem.AppendTo
 0001:0004E3B8       Menus.TMenuItem.AssignTo
 0001:0004DE0C       Menus.TMenuItem.Click
 0001:0004B9D4       Menus.TMenuItem.Create
 0001:0004C054       Menus.TMenuItem.DefineProperties
 0001:0004DD98       Menus.TMenuItem.Delete
 0001:0004BA50       Menus.TMenuItem.Destroy
 0001:0004E274       Menus.TMenuItem.DoActionChange
 0001:0004C098       Menus.TMenuItem.DoDrawText
 0001:0004C2B0       Menus.TMenuItem.DrawItem
 0001:0004DB3C       Menus.TMenuItem.GetAction
 0001:0004DB4C       Menus.TMenuItem.GetActionLinkClass
 0001:0004ED80       Menus.TMenuItem.GetAutoHotkeys
 0001:0004EDB0       Menus.TMenuItem.GetAutoLineReduction
 0001:0004DFB4       Menus.TMenuItem.GetBitmap
 0001:0004DC1C       Menus.TMenuItem.GetChildren
 0001:0004DB54       Menus.TMenuItem.GetCount
 0001:0004C008       Menus.TMenuItem.GetHandle
 0001:0004D728       Menus.TMenuItem.GetImageList
 0001:0004DB64       Menus.TMenuItem.GetItem
 0001:0004DBBC       Menus.TMenuItem.GetMenuIndex
 0001:0004E0AC       Menus.TMenuItem.GetParentComponent
 0001:0004E114       Menus.TMenuItem.GetParentMenu
 0001:0004D9A4       Menus.TMenuItem.HasParent
 0001:0004E4C4       Menus.TMenuItem.ImageListChange
 0001:0004DEBC       Menus.TMenuItem.IndexOf
 0001:0004DCD0       Menus.TMenuItem.InitiateAction
 0001:0004E080       Menus.TMenuItem.InitiateActions
 0001:0004DCE0       Menus.TMenuItem.Insert
 0001:0004E740       Menus.TMenuItem.InternalRethinkHotkeys
 0001:0004EC28       Menus.TMenuItem.InternalRethinkLines
 0001:0004E298       Menus.TMenuItem.IsCaptionStored
 0001:0004E2B8       Menus.TMenuItem.IsCheckedStored
 0001:0004E2D8       Menus.TMenuItem.IsEnabledStored
 0001:0004E318       Menus.TMenuItem.IsHelpContextStored
 0001:0004E2F8       Menus.TMenuItem.IsHintStored
 0001:0004E338       Menus.TMenuItem.IsImageIndexStored
 0001:0004EC04       Menus.TMenuItem.IsLine
 0001:0004E398       Menus.TMenuItem.IsOnClickStored
 0001:0004E358       Menus.TMenuItem.IsShortCutStored
 0001:0004E378       Menus.TMenuItem.IsVisibleStored
 0001:0004BE9C       Menus.TMenuItem.Loaded
 0001:0004D7A4       Menus.TMenuItem.MeasureItem
 0001:0004DF18       Menus.TMenuItem.MenuChanged
 0001:0004BE60       Menus.TMenuItem.MergeWith
 0001:0004E434       Menus.TMenuItem.Notification
 0001:0004BD98       Menus.TMenuItem.PopulateMenu
 0001:0004BE08       Menus.TMenuItem.ReadShortCutText
 0001:0004BED8       Menus.TMenuItem.RebuildHandle
 0001:0004DEF0       Menus.TMenuItem.Remove
 0001:0004DFDC       Menus.TMenuItem.SetAction
 0001:0004EBF4       Menus.TMenuItem.SetAutoHotkeys
 0001:0004ED70       Menus.TMenuItem.SetAutoLineReduction
 0001:0004E04C       Menus.TMenuItem.SetBitmap
 0001:0004D9A8       Menus.TMenuItem.SetBreak
 0001:0004D9B8       Menus.TMenuItem.SetCaption
 0001:0004DA2C       Menus.TMenuItem.SetChecked
 0001:0004DC54       Menus.TMenuItem.SetChildOrder
 0001:0004DC74       Menus.TMenuItem.SetDefault
 0001:0004DA80       Menus.TMenuItem.SetEnabled
 0001:0004DAF8       Menus.TMenuItem.SetGroupIndex
 0001:0004DBAC       Menus.TMenuItem.SetImageIndex
 0001:0004DBD4       Menus.TMenuItem.SetMenuIndex
 0001:0004E0C0       Menus.TMenuItem.SetParentComponent
 0001:0004E124       Menus.TMenuItem.SetRadioItem
 0001:0004DB88       Menus.TMenuItem.SetShortCut
 0001:0004E488       Menus.TMenuItem.SetSubMenuImages
 0001:0004DB9C       Menus.TMenuItem.SetVisible
 0001:0004DF5C       Menus.TMenuItem.SubItemChanged
 0001:0004D9E0       Menus.TMenuItem.TurnSiblingsOff
 0001:0004E4F8       Menus.TMenuItem.UpdateItems
 0001:0004BFA8       Menus.TMenuItem.VerifyGroupIndex
 0001:00050724       Menus.TMenuItemStack.ClearItem
 0001:000504AC       Menus.TPopupList.Add
 0001:0004FF1C       Menus.TPopupList.MainWndProc
 0001:000504D4       Menus.TPopupList.Remove
 0001:0004FF68       Menus.TPopupList.WndProc
 0001:000504F0       Menus.TPopupMenu.Create
 0001:00050564       Menus.TPopupMenu.Destroy
 0001:00050598       Menus.TPopupMenu.DoPopup
 0001:000505AC       Menus.TPopupMenu.GetHelpContext
 0001:00050654       Menus.TPopupMenu.Popup
 0001:000505BC       Menus.TPopupMenu.SetBiDiModeFromPopupControl
 0001:000505B4       Menus.TPopupMenu.SetHelpContext
 0001:00050704       Menus.TPopupMenu.SetPopupPoint
 0001:00050608       Menus.TPopupMenu.UseRightToLeftAlignment
 0001:0004B4B8       Menus.UniqueCommand
 0001:0004EF00       Menus.UpdateItem
 0001:0004E4D0       Menus.UpdateItem
 0003:000015CC       Menus.ValidMenuHotkeys
 0004:0000338C       MultiMon..1
 0004:00003388       MultiMon.EnumDisplayMonitors
 0001:00022F80       MultiMon.Finalization
 0004:0000337C       MultiMon.GetMonitorInfo
 0004:00003380       MultiMon.GetMonitorInfoA
 0004:00003384       MultiMon.GetMonitorInfoW
 0004:0000336C       MultiMon.GetSystemMetrics
 0001:0002283C       MultiMon.InitAnApi
 0004:00003394       MultiMon.InitApis
 0001:00022F14       MultiMon.InitMultiMonStubs
 0004:0000339C       MultiMon.MMAvailable
 0004:00003378       MultiMon.MonitorFromPoint
 0004:00003374       MultiMon.MonitorFromRect
 0004:00003370       MultiMon.MonitorFromWindow
 0002:00000398       MultiMon.MultiMon
 0004:00003390       MultiMon.User32Dll
 0001:00022DE4       MultiMon.xEnumDisplayMonitors
 0001:00022B68       MultiMon.xGetMonitorInfo
 0001:00022C3C       MultiMon.xGetMonitorInfoA
 0001:00022D10       MultiMon.xGetMonitorInfoW
 0001:00022AD0       MultiMon.xMonitorFromPoint
 0001:000229A8       MultiMon.xMonitorFromRect
 0001:00022A38       MultiMon.xMonitorFromWindow
 0001:00022920       MultiMon._GetSystemMetrics
 0004:000033A8       Printers..3
 0001:000240B0       Printers.Finalization
 0003:00000E20       Printers.FPrinter
 0002:000003B0       Printers.Printers
 0004:00003308       Registry..5
 0001:0001A85C       Registry..ERegistryException
 0001:0001A8BC       Registry..TRegistry
 0001:0001A964       Registry.DataTypeToRegData
 0001:0001ADC4       Registry.Finalization
 0001:0001A950       Registry.IsRelative
 0001:0001A924       Registry.ReadError
 0002:00000294       Registry.Registry
 0001:0001AA58       Registry.TRegistry.ChangeKey
 0001:0001A9FC       Registry.TRegistry.CloseKey
 0001:0001A98C       Registry.TRegistry.Create
 0001:0001A9D0       Registry.TRegistry.Destroy
 0001:0001AA7C       Registry.TRegistry.GetBaseKey
 0001:0001AD38       Registry.TRegistry.GetData
 0001:0001AC48       Registry.TRegistry.GetDataInfo
 0001:0001AC98       Registry.TRegistry.GetDataSize
 0001:0001AA90       Registry.TRegistry.OpenKeyReadOnly
 0001:0001ACC0       Registry.TRegistry.ReadString
 0001:0001AA2C       Registry.TRegistry.SetRootKey
 0003:00000B0C       Registry.Values
 0001:00028DD8       StdActns..THintAction
 0001:00028ECC       StdActns.THintAction.Create
 0001:00025C54       StdCtrls..TButton
 0001:000259DC       StdCtrls..TButtonActionLink
 0001:00025AD0       StdCtrls..TButtonControl
 0001:000265CC       StdCtrls..TCheckBox
 0001:00026418       StdCtrls..TCustomCheckBox
 0003:00000E94       StdCtrls.Alignments
 0003:00000E8C       StdCtrls.ButtonStyles
 0001:000270FC       StdCtrls.TButton.Click
 0001:00027290       StdCtrls.TButton.CMDialogChar
 0001:00027220       StdCtrls.TButton.CMDialogKey
 0001:00027314       StdCtrls.TButton.CMFocusChanged
 0001:0002720C       StdCtrls.TButton.CNCommand
 0001:00027394       StdCtrls.TButton.CNCtlColorBtn
 0001:00027098       StdCtrls.TButton.Create
 0001:000271B4       StdCtrls.TButton.CreateParams
 0001:000271F0       StdCtrls.TButton.CreateWnd
 0001:00027128       StdCtrls.TButton.SetButtonStyle
 0001:0002717C       StdCtrls.TButton.SetDefault
 0001:00027124       StdCtrls.TButton.UseRightToLeftAlignment
 0001:00027368       StdCtrls.TButton.WMEraseBkgnd
 0001:00026DC8       StdCtrls.TButtonActionLink.AssignClient
 0001:00026DEC       StdCtrls.TButtonActionLink.IsCheckedLinked
 0001:00026E24       StdCtrls.TButtonActionLink.SetChecked
 0001:00026EDC       StdCtrls.TButtonControl.ActionChange
 0001:00026FD0       StdCtrls.TButtonControl.CNCtlColorStatic
 0001:00026E88       StdCtrls.TButtonControl.Create
 0001:00027060       StdCtrls.TButtonControl.CreateParams
 0001:00026F28       StdCtrls.TButtonControl.GetActionLinkClass
 0001:00026F30       StdCtrls.TButtonControl.GetChecked
 0001:00026F34       StdCtrls.TButtonControl.IsCheckedStored
 0001:00026F54       StdCtrls.TButtonControl.SetChecked
 0001:00027084       StdCtrls.TButtonControl.SetWordWrap
 0001:00027034       StdCtrls.TButtonControl.WMEraseBkGnd
 0001:00026F58       StdCtrls.TButtonControl.WndProc
 0001:000274D0       StdCtrls.TCustomCheckBox.Click
 0001:00027600       StdCtrls.TCustomCheckBox.CMCtl3DChanged
 0001:00027608       StdCtrls.TCustomCheckBox.CMDialogChar
 0001:000276A4       StdCtrls.TCustomCheckBox.CNCommand
 0001:000273F8       StdCtrls.TCustomCheckBox.Create
 0001:00027568       StdCtrls.TCustomCheckBox.CreateParams
 0001:000275C0       StdCtrls.TCustomCheckBox.CreateWnd
 0001:000274E4       StdCtrls.TCustomCheckBox.GetChecked
 0001:00027464       StdCtrls.TCustomCheckBox.GetControlsAlignment
 0001:000274F0       StdCtrls.TCustomCheckBox.SetAlignment
 0001:00027504       StdCtrls.TCustomCheckBox.SetChecked
 0001:00027518       StdCtrls.TCustomCheckBox.SetState
 0001:00027490       StdCtrls.TCustomCheckBox.Toggle
 0001:000275E8       StdCtrls.TCustomCheckBox.WMSize
 0001:00024460       SyncObjs..TCriticalSection
 0001:000243FC       SyncObjs..TSynchroObject
 0001:00024540       SyncObjs.TCriticalSection.Acquire
 0001:000244D0       SyncObjs.TCriticalSection.Create
 0001:00024510       SyncObjs.TCriticalSection.Destroy
 0001:00024558       SyncObjs.TCriticalSection.Enter
 0001:00024560       SyncObjs.TCriticalSection.Leave
 0001:0002454C       SyncObjs.TCriticalSection.Release
 0001:000244C8       SyncObjs.TSynchroObject.Acquire
 0001:000244CC       SyncObjs.TSynchroObject.Release
 0001:0000588C       SysInit.@GetTls
 0001:000058D8       SysInit.@InitExe
 0001:00005834       SysInit.AllocTlsBuffer
 0001:00005814       SysInit.GetModuleHandle
 0001:00005840       SysInit.GetTlsSize
 0004:000027F4       SysInit.HInstance
 0001:000058CC       SysInit.InitializeModule
 0001:00005848       SysInit.InitThreadTLS
 0001:0000581C       SysInit.LocalAlloc
 0003:00000794       SysInit.Module
 0004:000027F1       SysInit.ModuleIsCpp
 0004:000027F0       SysInit.ModuleIsLib
 0003:00000790       SysInit.PtrToNil
 0004:000027F8       SysInit.tlsBuffer
 0001:00005824       SysInit.TlsGetValue
 0003:0000078C       SysInit.TlsIndex
 0005:00000034       SysInit.TlsLast
 0001:0000582C       SysInit.TlsSetValue
 0004:000005B4       System..6
 0001:00000194       System..TInterfacedObject
 0001:000000A0       System..TObject
 0001:00001FE4       System.@AbstractError
 0001:00003000       System.@AfterConstruction
 0001:00002E4C       System.@AsClass
 0001:00003AB0       System.@Assert
 0001:00002414       System.@AStrCmp
 0001:00003050       System.@BeforeDestruction
 0001:00002E98       System.@CallDynaInst
 0001:00002FA8       System.@ClassCreate
 0001:00002FF8       System.@ClassDestroy
 0001:0000231C       System.@Close
 0001:00001E5C       System.@Copy
 0001:000048A4       System.@CopyArray
 0001:00004788       System.@CopyRecord
 0001:000049A8       System.@DispCallByIDError
 0001:00004998       System.@Dispose
 0001:00003574       System.@DoneExcept
 0001:00004BD8       System.@DynArrayAsg
 0001:00004B9C       System.@DynArrayClear
 0001:000049DC       System.@DynArrayHigh
 0001:000049D4       System.@DynArrayLength
 0001:00004B90       System.@DynArraySetLength
 0001:0000365C       System.@ExceptionHandler
 0001:00002484       System.@FillChar
 0001:00004764       System.@Finalize
 0001:00004678       System.@FinalizeArray
 0001:0000462C       System.@FinalizeRecord
 0001:00002310       System.@Flush
 0001:00002B68       System.@FpuInit
 0001:00002AA4       System.@FpuMaskInit
 0001:00001CEC       System.@FreeMem
 0001:00001CD0       System.@GetMem
 0001:00003A98       System.@Halt
 0001:000039BC       System.@Halt0
 0001:00003164       System.@HandleAnyException
 0001:00003418       System.@HandleFinally
 0001:000034C0       System.@HandleFinallyInternal
 0001:00003290       System.@HandleOnException
 0001:00004598       System.@InitializeArray
 0001:00004568       System.@InitializeRecord
 0001:00003878       System.@InitImports
 0001:00003850       System.@InitResStringImports
 0001:000052E8       System.@IntfAddRef
 0001:000052B8       System.@IntfCast
 0001:00005274       System.@IntfClear
 0001:0000528C       System.@IntfCopy
 0001:00002E28       System.@IsClass
 0001:00002A74       System.@isNECWindows
 0001:00003F84       System.@LStrAddRef
 0001:00003AF4       System.@LStrArrayClr
 0001:00003B24       System.@LStrAsg
 0001:00003D9C       System.@LStrCat
 0001:00003DE0       System.@LStrCat3
 0001:00003E54       System.@LStrCatN
 0001:00003AD0       System.@LStrClr
 0001:00003EE0       System.@LStrCmp
 0001:00003FF4       System.@LStrCopy
 0001:00004034       System.@LStrDelete
 0001:00003D40       System.@LStrFromArray
 0001:00003CB8       System.@LStrFromChar
 0001:00003CC8       System.@LStrFromPChar
 0001:00003BC0       System.@LStrFromPCharLen
 0001:00003CF8       System.@LStrFromPWChar
 0001:00003C2C       System.@LStrFromPWCharLen
 0001:00003D34       System.@LStrFromString
 0001:00003D58       System.@LStrFromWStr
 0001:0000407C       System.@LStrInsert
 0001:00003B68       System.@LStrLAsg
 0001:00003D90       System.@LStrLen
 0001:0000421C       System.@LStrSetLength
 0001:00003F94       System.@LStrToPChar
 0001:00003D6C       System.@LStrToString
 0001:00003B94       System.@NewAnsiString
 0001:000042B0       System.@NewWideString
 0001:00002788       System.@Pow10
 0001:00002390       System.@PStrCmp
 0001:00002374       System.@PStrNCpy
 0001:00003520       System.@RaiseAgain
 0001:000034F8       System.@RaiseExcept
 0001:00001D04       System.@ReallocMem
 0001:00002058       System.@RewritText
 0001:00001FD8       System.@ROUND
 0001:00003AA4       System.@RunError
 0001:00003810       System.@StartExe
 0001:000002E4       System.@strlen
 0001:000035A4       System.@TryFinallyExit
 0001:00003FEC       System.@UniqueStringA
 0001:00002520       System.@ValLong
 0001:00004660       System.@VarClr
 0001:00004770       System.@VarCopy
 0001:00004280       System.@Write0LString
 0001:00002638       System.@WriteBytes
 0001:00002708       System.@WriteLn
 0001:00004288       System.@WriteLString
 0001:0000268C       System.@WriteSpaces
 0001:000042F0       System.@WStrArrayClr
 0001:00004314       System.@WStrAsg
 0001:000042D8       System.@WStrClr
 0001:00004454       System.@WStrCmp
 0001:000044D8       System.@WStrCopy
 0001:00004428       System.@WStrFromLStr
 0001:0000433C       System.@WStrFromPCharLen
 0001:000043EC       System.@WStrFromPWChar
 0001:000043C8       System.@WStrFromPWCharLen
 0001:00004448       System.@WStrLen
 0001:00004524       System.@WStrSetLength
 0001:00004438       System.@WStrToPWChar
 0001:0000275C       System.@_CLenToPasStr
 0001:00002750       System.@_CToPasStr
 0001:00001E2C       System.@_IOTest
 0001:000049B0       System.@_llmul
 0004:00000028       System.AbstractErrorProc
 0001:00001D94       System.AcquireExceptionObject
 0001:00005114       System.AddModuleUnloadProc
 0001:00005104       System.AddModuleUnloadProc
 0001:00000740       System.AllocateLargeBlock
 0001:00001CB8       System.AllocMem
 0001:00000688       System.AllocNewSequentialFeedMediumPool
 0004:000005BC       System.AllocSize2SmallBlockTypeIndX4
 0001:00005704       System.AnsiToUtf8
 0001:000012A0       System.AppendStringToBuffer
 0004:00000020       System.AssertErrorProc
 0001:0000061C       System.BinMediumSequentialFeedRemainder
 0001:00001A68       System.BuildBlockTypeLookupTable
 0001:00001184       System.CardinalToStrBuf
 0001:00003BF0       System.CharFromWChar
 0001:00000254       System.CharNext
 0001:000030E0       System.CheckJmp
 0001:000014A4       System.CheckSmallBlockPoolForLeaks
 0001:000001F4       System.CloseHandle
 0004:0000003C       System.CmdLine
 0004:00000038       System.CmdShow
 0001:0000025C       System.CompareString
 0001:000049E4       System.CopyArray
 0003:0000003C       System.Copyright
 0001:000001FC       System.CreateFileA
 0003:00000024       System.DebugHook
 0003:00000020       System.Default8087CW
 0004:000005B8       System.DefaultSystemCodePage
 0003:00000030       System.DefaultTextLineBreakStyle
 0001:00004C30       System.DelayLoadResourceModule
 0001:00000388       System.DestroyWindow
 0003:0000077C       System.dig
 0004:00000000       System.DispCallByIDProc
 0001:000049FC       System.DynArrayClear
 0001:00004A04       System.DynArraySetLength
 0003:00000754       System.errCaption
 0001:00001E20       System.Error
 0003:00000004       System.ErrorAddr
 0001:00001DD4       System.ErrorAt
 0004:00000008       System.ErrorProc
 0004:000003E4       System.ErrOutput
 0001:00001D74       System.ExceptAddr
 0004:0000000C       System.ExceptClsProc
 0004:0000001C       System.ExceptionClass
 0001:00001D54       System.ExceptObject
 0004:00000010       System.ExceptObjProc
 0004:00000004       System.ExceptProc
 0003:00000000       System.ExitCode
 0001:00003900       System.ExitDll
 0004:00000044       System.ExitProc
 0001:00000264       System.ExitProcess
 0004:00000024       System.ExitProcessProc
 0004:000027B8       System.ExpectedMemoryLeaks
 0004:000027BC       System.ExpectedMemoryLeaksListLocked
 0003:00000008       System.FileMode
 0001:000020A0       System.FileNOPProc
 0001:000057B4       System.Finalization
 0001:000049F4       System.FinalizeArray
 0001:00001C64       System.FinalizeMemoryManager
 0001:00003744       System.FinalizeUnits
 0001:00004CB0       System.FindBS
 0001:00004C28       System.FindClassHInstance
 0001:00000274       System.FindClose
 0001:0000027C       System.FindFirstFile
 0001:00004C00       System.FindHInstance
 0001:00004C78       System.FindResourceHInstance
 0001:00002304       System.Flush
 0001:00002780       System.FPower10
 0001:00001BD4       System.FreeAllMemory
 0001:000007A4       System.FreeLargeBlock
 0001:00000284       System.FreeLibrary
 0001:00001FD0       System.Get8087CW
 0001:000057AC       System.GetACP
 0001:0000034C       System.GetCmdShow
 0001:0000028C       System.GetCommandLine
 0001:00000344       System.GetCurrentThreadId
 0001:00002E68       System.GetDynaMethod
 0001:0000020C       System.GetFileSize
 0001:00000204       System.GetFileType
 0001:00001148       System.GetFirstAndLastSmallBlockInPool
 0001:00001108       System.GetFirstMediumBlockInPool
 0001:00002A6C       System.GetKeyboardType
 0001:00000294       System.GetLastError
 0001:0000029C       System.GetLocaleInfo
 0001:000002A4       System.GetModuleFileName
 0001:000002AC       System.GetModuleHandle
 0001:00001370       System.GetObjectClass
 0001:000002B4       System.GetProcAddress
 0001:000002BC       System.GetStartupInfo
 0001:00000214       System.GetStdHandle
 0001:000002C4       System.GetThreadLocale
 0004:000027C4       System.InitContext
 0001:00001AAC       System.InitializeMemoryManager
 0004:00000040       System.InitProc
 0001:000037A8       System.InitUnits
 0005:00000004       System.InOutRes
 0004:0000004C       System.Input
 0001:000005BC       System.InsertMediumBlockIntoBin
 0001:0000033C       System.InterlockedDecrement
 0001:00000334       System.InterlockedIncrement
 0001:000020E0       System.InternalClose
 0001:000022BC       System.InternalFlush
 0001:000012B8       System.InternalIsValidClass
 0001:00003FA0       System.InternalUniqueString
 0001:00002D20       System.InvokeImplGetter
 0001:00001EA0       System.IOResult
 0004:00000048       System.IsConsole
 0004:00000034       System.IsLibrary
 0004:00000049       System.IsMultiThread
 0003:00000028       System.JITEnable
 0004:000027A8       System.LargeBlocksCircularList
 0004:000027A4       System.LargeBlocksLocked
 0004:00000718       System.LastSequentiallyFedMediumBlock
 0003:00000034       System.LibModuleList
 0001:000002CC       System.LoadLibraryEx
 0001:00004E94       System.LoadResourceModule
 0001:00005754       System.LoadResString
 0001:000002D4       System.LoadString
 0001:000003F0       System.LockCmpxchg
 0001:000013A0       System.LockExpectedMemoryLeaksList
 0001:00000700       System.LockLargeBlocks
 0001:000002DC       System.lstrcpyn
 0004:0000002C       System.MainInstance
 0004:00000030       System.MainThreadID
 0001:0000389C       System.MakeErrorMessage
 0001:000035BC       System.MapToRunError
 0004:00000724       System.MediumBlockBinBitmaps
 0004:00000720       System.MediumBlockBinGroupBitmap
 0004:000007A4       System.MediumBlockBins
 0004:00000704       System.MediumBlockPoolsCircularList
 0004:00000714       System.MediumBlocksLocked
 0004:0000071C       System.MediumSequentialFeedBytesLeft
 0003:00000720       System.MemoryManager
 0001:0000026C       System.MessageBox
 0004:00000702       System.MinimumBlockAlignment
 0004:000027C0       System.MMSharingWindow
 0003:00000038       System.ModuleUnloadList
 0001:00001EC0       System.Move
 0001:000003F8       System.Move12
 0001:0000040C       System.Move20
 0001:0000042C       System.Move28
 0001:00000458       System.Move36
 0001:00000478       System.Move44
 0001:0000049C       System.Move52
 0001:000004C8       System.Move60
 0001:000004F8       System.Move68
 0001:00000530       System.MoveX16L4
 0001:00000560       System.MoveX8L4
 0001:000002EC       System.MultiByteToWideChar
 0001:000010E4       System.NextMediumBlock
 0003:0000002C       System.NoErrMsg
 0001:000030CC       System.NotifyAnyExcept
 0001:000030A0       System.NotifyExcept
 0001:00003100       System.NotifyExceptFinally
 0001:00005198       System.NotifyModuleUnload
 0001:0000307C       System.NotifyNonDelphiException
 0001:000030B8       System.NotifyOnExcept
 0001:00003060       System.NotifyReRaise
 0001:00003128       System.NotifyTerminate
 0001:00003144       System.NotifyUnhandled
 0001:00002000       System.OpenText
 0004:00000218       System.Output
 0001:000040D8       System.Pos
 0001:0000021C       System.RaiseException
 0004:00000014       System.RaiseExceptionProc
 0005:00000000       System.RaiseListPtr
 0001:00000224       System.ReadFile
 0001:000002F4       System.RegCloseKey
 0001:000051F4       System.RegisterModule
 0001:000002FC       System.RegOpenKeyEx
 0001:00000304       System.RegQueryValueEx
 0003:00000738       System.reMap
 0001:0000057C       System.RemoveMediumFreeBlock
 0001:0000510C       System.RemoveModuleUnloadProc
 0001:00005134       System.RemoveModuleUnloadProc
 0004:000005B0       System.ReportMemoryLeaksOnShutdown
 0001:0000022C       System.RtlUnwind
 0004:00000018       System.RTLUnwindProc
 0003:0000075C       System.runErrMsg
 0001:00001DC8       System.RunErrorAt
 0001:000015F0       System.ScanForMemoryLeaks
 0001:00001FC0       System.Set8087CW
 0001:00000234       System.SetEndOfFile
 0001:000036FC       System.SetExceptionHandler
 0001:0000023C       System.SetFilePointer
 0001:00001E4C       System.SetInOutRes
 0001:00000380       System.Sleep
 0003:00000040       System.SmallBlockTypes
 0001:000010B4       System.SysAllocMem
 0001:0000031C       System.SysAllocStringLen
 0001:00000B48       System.SysFreeMem
 0001:0000032C       System.SysFreeString
 0001:000007E0       System.SysGetMem
 0001:00000D28       System.SysReallocMem
 0001:00000324       System.SysReAllocStringLen
 0001:0000140C       System.SysRegisterExpectedMemoryLeak
 0002:00000000       System.System
 0001:0000144C       System.SysUnregisterExpectedMemoryLeak
 0004:0000004A       System.Test8086
 0001:000020F0       System.TextClose
 0001:00002064       System.TextIn
 0001:00002110       System.TextOpen
 0001:000020A4       System.TextOut
 0001:000052F4       System.TInterfacedObject.AfterConstruction
 0001:00005300       System.TInterfacedObject.BeforeDestruction
 0001:00005310       System.TInterfacedObject.NewInstance
 0001:00005320       System.TInterfacedObject.QueryInterface
 0001:00005348       System.TInterfacedObject._AddRef
 0001:0000535C       System.TInterfacedObject._Release
 0001:00002ED8       System.TObject.AfterConstruction
 0001:00002EDC       System.TObject.BeforeDestruction
 0001:00002EC4       System.TObject.ClassInfo
 0001:00002B7C       System.TObject.ClassName
 0001:00002B90       System.TObject.ClassNameIs
 0001:00002C28       System.TObject.ClassParent
 0001:00002B74       System.TObject.ClassType
 0001:00002D00       System.TObject.CleanupInstance
 0001:00002C6C       System.TObject.Create
 0001:00002ED4       System.TObject.DefaultHandler
 0001:00002C8C       System.TObject.Destroy
 0001:00002EE0       System.TObject.Dispatch
 0001:00002F58       System.TObject.FieldAddress
 0001:00002C9C       System.TObject.Free
 0001:00002C50       System.TObject.FreeInstance
 0001:00002D50       System.TObject.GetInterface
 0001:00002DE4       System.TObject.GetInterfaceEntry
 0001:00002EB0       System.TObject.InheritsFrom
 0001:00002CA8       System.TObject.InitInstance
 0001:00002C64       System.TObject.InstanceSize
 0001:00002F08       System.TObject.MethodAddress
 0001:00002C34       System.TObject.NewInstance
 0001:00002ECC       System.TObject.SafeCallException
 0001:00004CD0       System.ToLongPath
 0001:000025F4       System.TryOpenForOutput
 0001:00000244       System.UnhandledExceptionFilter
 0001:00005384       System.UnicodeToUtf8
 0001:00003FE4       System.UniqueString
 0001:00005204       System.UnregisterModule
 0001:0000371C       System.UnsetExceptionHandler
 0001:0000564C       System.UTF8Decode
 0001:00005590       System.UTF8Encode
 0001:00005460       System.Utf8ToUnicode
 0003:00000010       System.VarAddRefProc
 0003:0000000C       System.VarClearProc
 0003:00000014       System.VarCopyProc
 0003:00000018       System.VarToLStrProc
 0003:0000001C       System.VarToWStrProc
 0001:00000370       System.VirtualAlloc
 0001:00000378       System.VirtualFree
 0001:00000314       System.VirtualQuery
 0001:00003C10       System.WCharFromChar
 0001:0000030C       System.WideCharToMultiByte
 0001:00003930       System.WriteErrorMessage
 0001:0000024C       System.WriteFile
 0001:000042A8       System.WStrError
 0001:000042C8       System.WStrSet
 0004:00002914       SysUtils..35
 0001:00006834       SysUtils..EAbort
 0001:000070A8       SysUtils..EAbstractError
 0001:00006E80       SysUtils..EAccessViolation
 0001:00007048       SysUtils..EAssertionFailed
 0001:00006F94       SysUtils..EControlC
 0001:00006E24       SysUtils..EConvertError
 0001:00006AA8       SysUtils..EDivByZero
 0001:00006998       SysUtils..EExternal
 0001:000069F0       SysUtils..EExternalException
 0001:00006888       SysUtils..EHeapException
 0001:00006940       SysUtils..EInOutError
 0001:00006A50       SysUtils..EIntError
 0001:00007104       SysUtils..EIntfCastError
 0001:00006B58       SysUtils..EIntOverflow
 0001:00006DC8       SysUtils..EInvalidCast
 0001:00006C0C       SysUtils..EInvalidOp
 0001:00006D6C       SysUtils..EInvalidPointer
 0001:00006BB4       SysUtils..EMathError
 0001:00007160       SysUtils..EOSError
 0001:000068E4       SysUtils..EOutOfMemory
 0001:00006CBC       SysUtils..EOverflow
 0001:00006EE0       SysUtils..EPrivilege
 0001:00006B00       SysUtils..ERangeError
 0001:000071B8       SysUtils..ESafecallException
 0001:00006F38       SysUtils..EStackOverflow
 0001:00006D14       SysUtils..EUnderflow
 0001:00006FEC       SysUtils..EVariantError
 0001:000067CC       SysUtils..Exception
 0001:00006C64       SysUtils..EZeroDivide
 0001:00007348       SysUtils..TMultiReadExclusiveWriteSynchronizer
 0001:0000726C       SysUtils..TThreadLocalCounter
 0001:0000B298       SysUtils.AbstractErrorHandler
 0003:00000830       SysUtils.AccessMode
 0001:00007428       SysUtils.AddExitProc
 0001:0000771C       SysUtils.AnsiCompareText
 0001:00007D98       SysUtils.AnsiLastChar
 0001:0000BBC4       SysUtils.AnsiPos
 0001:00007760       SysUtils.AnsiStrLIComp
 0001:0000BBFC       SysUtils.AnsiStrPos
 0001:0000BC9C       SysUtils.AnsiStrRScan
 0001:0000BCD0       SysUtils.AnsiStrScan
 0001:00009204       SysUtils.AppendChars
 0001:000095E8       SysUtils.AppendFormat
 0001:00009264       SysUtils.AppendNumber
 0001:00009248       SysUtils.AppendString
 0001:0000B27C       SysUtils.AssertErrorHandler
 0001:00007E94       SysUtils.BackfillGetDiskFreeSpaceEx
 0001:00007C4C       SysUtils.BoolToStr
 0001:0000B940       SysUtils.ByteToCharIndex
 0001:0000B91C       SysUtils.ByteToCharLen
 0001:0000B8E0       SysUtils.ByteType
 0001:0000B86C       SysUtils.ByteTypeTest
 0001:0000C490       SysUtils.CallTerminateProcs
 0004:00002920       SysUtils.CharHash
 0001:0000BB54       SysUtils.CharLength
 0001:0000BA38       SysUtils.CharToByteIndex
 0001:0000BABC       SysUtils.CharToByteLen
 0001:0000B760       SysUtils.CheckWin32Version
 0001:0000CABC       SysUtils.ClearHashTables
 0001:000075C8       SysUtils.CompareMem
 0001:00007598       SysUtils.CompareStr
 0001:0000765C       SysUtils.CompareText
 0001:00007B2C       SysUtils.CompareWith
 0001:0000ACDC       SysUtils.ConvertAddr
 0001:00009354       SysUtils.ConvertEraString
 0001:000073D8       SysUtils.ConvertErrorFmt
 0001:000094D0       SysUtils.ConvertYearString
 0001:0000B9A8       SysUtils.CountChars
 0001:0000B1C0       SysUtils.CreateAssertException
 0001:0000B348       SysUtils.CreateAVObject
 0001:0000B0F0       SysUtils.CreateInOutError
 0003:00000828       SysUtils.cSimpleBoolStrs
 0004:0000280C       SysUtils.CurrencyDecimals
 0004:00002808       SysUtils.CurrencyFormat
 0004:00002804       SysUtils.CurrencyString
 0001:000091F0       SysUtils.CurrentYear
 0001:00008D84       SysUtils.CurrToStr
 0001:000078A0       SysUtils.CvtInt
 0001:0000790C       SysUtils.CvtInt64
 0003:00000868       SysUtils.CWNear
 0004:0000280D       SysUtils.DateSeparator
 0001:00009DA0       SysUtils.DateTimeToString
 0001:00008E44       SysUtils.DateTimeToTimeStamp
 0001:000091C8       SysUtils.DayOfWeek
 0003:00000864       SysUtils.DCon10
 0004:0000280B       SysUtils.DecimalSeparator
 0001:000091A8       SysUtils.DecodeDate
 0001:0000905C       SysUtils.DecodeDateFully
 0001:00008EF8       SysUtils.DecodeTime
 0003:000008F4       SysUtils.DefLongDayNames
 0003:000008A8       SysUtils.DefLongMonthNames
 0003:000008D8       SysUtils.DefShortDayNames
 0003:00000878       SysUtils.DefShortMonthNames
 0001:000073BC       SysUtils.DivMod
 0001:000073FC       SysUtils.DoExitProc
 0001:0000B670       SysUtils.DoneExceptions
 0001:0000B0C4       SysUtils.EHeapException.FreeInstance
 0003:000007AC       SysUtils.EmptyStr
 0003:000007B0       SysUtils.EmptyWideStr
 0001:0000A948       SysUtils.EnumEraNames
 0001:0000A984       SysUtils.EnumEraYearOffsets
 0004:000028D4       SysUtils.EraNames
 0001:0000A0B0       SysUtils.EraToYear
 0004:000028F0       SysUtils.EraYearOffsets
 0001:0000B170       SysUtils.ErrorHandler
 0003:00000910       SysUtils.ErrorMap
 0001:0000B5DC       SysUtils.ExceptHandler
 0001:0000AF38       SysUtils.Exception.Create
 0001:0000AF74       SysUtils.Exception.CreateFmt
 0001:0000AFF4       SysUtils.Exception.CreateRes
 0001:0000B030       SysUtils.Exception.CreateResFmt
 0001:0000ACE8       SysUtils.ExceptionErrorMessage
 0003:00000948       SysUtils.ExceptMap
 0003:00000824       SysUtils.ExitProcList
 0001:00007E58       SysUtils.ExpandFileName
 0001:00007E20       SysUtils.ExtractFileName
 0004:00002910       SysUtils.FalseBoolStrs
 0003:00000858       SysUtils.FCon1E18
 0001:00007C98       SysUtils.FileOpen
 0001:00007CF0       SysUtils.FileRead
 0001:00007D48       SysUtils.FileSeek
 0001:00007D1C       SysUtils.FileWrite
 0001:0000CDBC       SysUtils.Finalization
 0004:00003220       SysUtils.FLanguages
 0001:00008A14       SysUtils.FloatToDecimal
 0001:00008D54       SysUtils.FloatToStr
 0001:00008740       SysUtils.FloatToText
 0003:0000086C       SysUtils.FMSecsPerDay
 0001:00008620       SysUtils.FmtStr
 0003:00000874       SysUtils.Format
 0001:0000860C       SysUtils.Format
 0001:00008214       SysUtils.FormatBuf
 0001:00008208       SysUtils.FormatClearStr
 0001:0000818C       SysUtils.FormatError
 0003:00000850       SysUtils.FormatErrorStrs
 0001:000081E4       SysUtils.FormatVarToStr
 0001:0000C96C       SysUtils.FreeAndNil
 0001:0000C4B0       SysUtils.FreeTerminateProcs
 0001:000092B0       SysUtils.GetCount
 0001:000092DC       SysUtils.GetDate
 0001:00009FC8       SysUtils.GetDateOrder
 0003:00000820       SysUtils.GetDiskFreeSpaceEx
 0001:0000A9FC       SysUtils.GetEraNamesAndYearOffsets
 0001:0000A05C       SysUtils.GetEraYearOffset
 0001:0000B330       SysUtils.GetExceptionClass
 0001:0000B514       SysUtils.GetExceptionObject
 0001:0000B780       SysUtils.GetFileVersion
 0001:0000BE30       SysUtils.GetFormatSettings
 0001:0000A7BC       SysUtils.GetLocaleChar
 0001:0000A770       SysUtils.GetLocaleStr
 0001:0000A824       SysUtils.GetMonthDayNames
 0001:00009314       SysUtils.GetTime
 0003:0000081C       SysUtils.HexDisplayPrefix
 0003:00000870       SysUtils.IMSecsPerDay
 0001:0000C4D4       SysUtils.InitDriveSpacePtr
 0001:0000B5EC       SysUtils.InitExceptions
 0001:0000BD10       SysUtils.InitLeadBytes
 0001:0000B6F0       SysUtils.InitPlatformId
 0001:0000BD6C       SysUtils.InitSysLocale
 0001:0000C53C       SysUtils.InterlockedDecrement
 0001:0000C548       SysUtils.InterlockedExchange
 0001:0000C550       SysUtils.InterlockedExchangeAdd
 0001:0000C530       SysUtils.InterlockedIncrement
 0001:00007A00       SysUtils.IntToHex
 0001:000078EC       SysUtils.IntToStr
 0001:000079D8       SysUtils.IntToStr
 0004:0000291C       SysUtils.InvalidPointer
 0001:00008F54       SysUtils.IsLeapYear
 0001:000077D4       SysUtils.IsValidIdent
 0001:00007DCC       SysUtils.LastDelimiter
 0003:000007FC       SysUtils.LeadBytes
 0004:000028D2       SysUtils.ListSeparator
 0001:0000A7E8       SysUtils.LocalGetLocaleStr
 0004:00002814       SysUtils.LongDateFormat
 0004:000028A8       SysUtils.LongDayNames
 0004:0000285C       SysUtils.LongMonthNames
 0004:00002828       SysUtils.LongTimeFormat
 0001:000074FC       SysUtils.LowerCase
 0001:0000B2B0       SysUtils.MapException
 0001:0000C1FC       SysUtils.ModuleUnloaded
 0003:000007CC       SysUtils.MonthDays
 0004:00002809       SysUtils.NegCurrFormat
 0001:0000BB8C       SysUtils.NextCharIndex
 0004:00002918       SysUtils.OutOfMemory
 0001:000086FC       SysUtils.PutExponent
 0001:0000B26C       SysUtils.RaiseAssertException
 0001:0000C3DC       SysUtils.RaiseLastOSError
 0001:0000C3E8       SysUtils.RaiseLastOSError
 0001:0000CA38       SysUtils.SafeLoadLibrary
 0001:000076F8       SysUtils.SameText
 0001:00009DFC       SysUtils.ScanBlanks
 0001:00009F8C       SysUtils.ScanChar
 0001:0000A10C       SysUtils.ScanDate
 0001:00009E20       SysUtils.ScanNumber
 0001:00009EB4       SysUtils.ScanString
 0001:0000A458       SysUtils.ScanTime
 0001:0000A014       SysUtils.ScanToNumber
 0003:0000083C       SysUtils.ShareMode
 0004:00002810       SysUtils.ShortDateFormat
 0004:0000288C       SysUtils.ShortDayNames
 0004:0000282C       SysUtils.ShortMonthNames
 0004:00002824       SysUtils.ShortTimeFormat
 0001:0000AE70       SysUtils.ShowException
 0001:0000C3D4       SysUtils.Sleep
 0001:00008130       SysUtils.StrAlloc
 0001:00008144       SysUtils.StrBufSize
 0001:0000B904       SysUtils.StrByteType
 0001:0000BB2C       SysUtils.StrCharLength
 0001:00007FF8       SysUtils.StrComp
 0001:00007F44       SysUtils.StrCopy
 0001:0000817C       SysUtils.StrDispose
 0001:00007F20       SysUtils.StrEnd
 0001:0000858C       SysUtils.StrFmt
 0001:00007F7C       SysUtils.StrLCopy
 0001:00007F08       SysUtils.StrLen
 0001:000085CC       SysUtils.StrLFmt
 0001:00008084       SysUtils.StrLIComp
 0001:00007F34       SysUtils.StrMove
 0001:00008150       SysUtils.StrNew
 0001:0000BB4C       SysUtils.StrNextChar
 0001:00007FB0       SysUtils.StrPCopy
 0001:00007FD8       SysUtils.StrPLCopy
 0001:000080DC       SysUtils.StrPos
 0001:000080C8       SysUtils.StrScan
 0001:00007A28       SysUtils.StrToInt
 0001:00007A64       SysUtils.StrToIntDef
 0001:0000C97C       SysUtils.Supports
 0001:0000C9A0       SysUtils.Supports
 0001:0000A724       SysUtils.SysErrorMessage
 0004:000028C4       SysUtils.SysLocale
 0002:000000AC       SysUtils.SysUtils
 0003:000009F8       SysUtils.TerminateProcList
 0001:00008C40       SysUtils.TextToFloat
 0004:0000280A       SysUtils.ThousandSeparator
 0004:0000281C       SysUtils.TimeAMString
 0004:00002820       SysUtils.TimePMString
 0004:00002818       SysUtils.TimeSeparator
 0001:0000C894       SysUtils.TMultiReadExclusiveWriteSynchronizer.BeginRead
 0001:0000C798       SysUtils.TMultiReadExclusiveWriteSynchronizer.BeginWrite
 0001:0000C754       SysUtils.TMultiReadExclusiveWriteSynchronizer.BlockReaders
 0001:0000C698       SysUtils.TMultiReadExclusiveWriteSynchronizer.Create
 0001:0000C70C       SysUtils.TMultiReadExclusiveWriteSynchronizer.Destroy
 0001:0000C904       SysUtils.TMultiReadExclusiveWriteSynchronizer.EndRead
 0001:0000C844       SysUtils.TMultiReadExclusiveWriteSynchronizer.EndWrite
 0001:0000C76C       SysUtils.TMultiReadExclusiveWriteSynchronizer.UnblockOneWriter
 0001:0000C760       SysUtils.TMultiReadExclusiveWriteSynchronizer.UnblockReaders
 0001:0000C778       SysUtils.TMultiReadExclusiveWriteSynchronizer.WaitForReadSignal
 0001:0000C788       SysUtils.TMultiReadExclusiveWriteSynchronizer.WaitForWriteSignal
 0001:0000AAAC       SysUtils.TranslateDateFormat
 0001:00007780       SysUtils.Trim
 0004:0000290C       SysUtils.TrueBoolStrs
 0001:00008F90       SysUtils.TryEncodeDate
 0001:00008E88       SysUtils.TryEncodeTime
 0001:00007BB0       SysUtils.TryStrToBool
 0001:00008E28       SysUtils.TryStrToCurr
 0001:0000A688       SysUtils.TryStrToDateTime
 0001:00008DB4       SysUtils.TryStrToFloat
 0001:00008DFC       SysUtils.TryStrToFloat
 0001:00008DD0       SysUtils.TryStrToFloat
 0001:00007A7C       SysUtils.TryStrToInt
 0001:0000A650       SysUtils.TryStrToTime
 0001:0000C644       SysUtils.TThreadLocalCounter.Delete
 0001:0000C558       SysUtils.TThreadLocalCounter.Destroy
 0001:0000C5B0       SysUtils.TThreadLocalCounter.HashIndex
 0001:0000C5CC       SysUtils.TThreadLocalCounter.Open
 0001:0000C654       SysUtils.TThreadLocalCounter.Recycle
 0003:000007C8       SysUtils.TwoDigitYearCenturyWindow
 0004:00002E20       SysUtils.UnitHashBuckets
 0001:00007460       SysUtils.UpperCase
 0004:00002A20       SysUtils.ValidatedUnitHashBuckets
 0001:00007A9C       SysUtils.VerifyBoolStrArray
 0003:000007C0       SysUtils.Win32BuildNumber
 0001:0000C480       SysUtils.Win32Check
 0003:000007C4       SysUtils.Win32CSDVersion
 0003:000007B8       SysUtils.Win32MajorVersion
 0003:000007BC       SysUtils.Win32MinorVersion
 0003:000007B4       SysUtils.Win32Platform
 0004:000034AC       Themes..2
 0001:00024F08       Themes..TThemeServices
 0003:00000E28       Themes.Copyright
 0001:0002598C       Themes.Finalization
 0004:000034B0       Themes.InternalServices
 0003:00000E2C       Themes.ThemeDataNames
 0002:000003E4       Themes.Themes
 0001:00025130       Themes.ThemeServices
 0003:00000E24       Themes.ThemeServicesClass
 0001:00025294       Themes.TThemeServices.ApplyThemeChange
 0001:00025150       Themes.TThemeServices.Create
 0001:000251C4       Themes.TThemeServices.Destroy
 0001:00025250       Themes.TThemeServices.DoOnThemeChange
 0001:000252A8       Themes.TThemeServices.DrawEdge
 0001:000252F4       Themes.TThemeServices.DrawElement
 0001:00025338       Themes.TThemeServices.DrawParentBackground
 0001:000253A0       Themes.TThemeServices.GetElementDetails
 0001:000253DC       Themes.TThemeServices.GetElementDetails
 0001:00025478       Themes.TThemeServices.GetElementDetails
 0001:000251F8       Themes.TThemeServices.GetTheme
 0001:00025238       Themes.TThemeServices.GetThemesEnabled
 0001:00025804       Themes.TThemeServices.PaintBorder
 0001:00025264       Themes.TThemeServices.UnloadThemeData
 0001:00025970       Themes.TThemeServices.UpdateThemes
 0001:00005958       Types.Bounds
 0001:00005938       Types.Point
 0001:0000591C       Types.Rect
 0001:00005940       Types.SmallPoint
 0004:000032C0       TypInfo..6
 0001:0001059C       TypInfo.AssignLongStr
 0001:00010948       TypInfo.AssignVariant
 0003:00000A94       TypInfo.BooleanIdents
 0003:00000A9C       TypInfo.DotSep
 0001:00010A84       TypInfo.Finalization
 0001:000101FC       TypInfo.GetEnumNameValue
 0001:00010248       TypInfo.GetEnumValue
 0001:000103A4       TypInfo.GetOrdProp
 0001:00010334       TypInfo.GetPropInfo
 0001:00010474       TypInfo.GetSetElementValue
 0001:000101F0       TypInfo.GetTypeData
 0001:00010750       TypInfo.SetFloatProp
 0001:000109D4       TypInfo.SetInt64Prop
 0001:00010A10       TypInfo.SetInterfaceProp
 0001:000105B0       TypInfo.SetLongStrProp
 0001:0001099C       TypInfo.SetMethodProp
 0001:00010418       TypInfo.SetOrdProp
 0001:00010514       TypInfo.SetShortStrProp
 0001:00010568       TypInfo.SetShortStrPropAsLongStr
 0001:00010648       TypInfo.SetStrProp
 0001:0001095C       TypInfo.SetVariantProp
 0001:00010678       TypInfo.SetWideStrProp
 0001:000105F0       TypInfo.SetWideStrPropAsLongStr
 0002:000001F0       TypInfo.TypInfo
 0001:00053BE0       Unit1..TForm1
 0004:000035AC       Unit1.Form1
 0001:00053DE0       Unit1.TForm1.btn_Button2Click
 0001:00053E5C       Unit1.TForm1.ResetClick
 0004:0000349C       UxTheme..1
 0004:000033E4       UxTheme.CloseThemeData
 0004:000033E8       UxTheme.DrawThemeBackground
 0004:0000340C       UxTheme.DrawThemeEdge
 0004:00003410       UxTheme.DrawThemeIcon
 0004:00003494       UxTheme.DrawThemeParentBackground
 0004:000033EC       UxTheme.DrawThemeText
 0004:0000347C       UxTheme.EnableThemeDialogTexture
 0004:00003498       UxTheme.EnableTheming
 0001:00024EB4       UxTheme.Finalization
 0001:00024568       UxTheme.FreeThemeLibrary
 0004:0000348C       UxTheme.GetCurrentThemeName
 0004:00003484       UxTheme.GetThemeAppProperties
 0004:000033F0       UxTheme.GetThemeBackgroundContentRect
 0004:000033F4       UxTheme.GetThemeBackgroundExtent
 0004:00003404       UxTheme.GetThemeBackgroundRegion
 0004:00003428       UxTheme.GetThemeBool
 0004:0000341C       UxTheme.GetThemeColor
 0004:00003490       UxTheme.GetThemeDocumentationProperty
 0004:00003430       UxTheme.GetThemeEnumValue
 0004:00003450       UxTheme.GetThemeFilename
 0004:00003438       UxTheme.GetThemeFont
 0004:0000342C       UxTheme.GetThemeInt
 0004:00003444       UxTheme.GetThemeIntList
 0004:00003440       UxTheme.GetThemeMargins
 0004:00003420       UxTheme.GetThemeMetric
 0004:000033F8       UxTheme.GetThemePartSize
 0004:00003434       UxTheme.GetThemePosition
 0004:00003448       UxTheme.GetThemePropertyOrigin
 0004:0000343C       UxTheme.GetThemeRect
 0004:00003424       UxTheme.GetThemeString
 0004:0000345C       UxTheme.GetThemeSysBool
 0004:00003454       UxTheme.GetThemeSysColor
 0004:00003458       UxTheme.GetThemeSysColorBrush
 0004:00003464       UxTheme.GetThemeSysFont
 0004:0000346C       UxTheme.GetThemeSysInt
 0004:00003460       UxTheme.GetThemeSysSize
 0004:00003468       UxTheme.GetThemeSysString
 0004:000033FC       UxTheme.GetThemeTextExtent
 0004:00003400       UxTheme.GetThemeTextMetrics
 0004:00003478       UxTheme.GetWindowTheme
 0004:00003408       UxTheme.HitTestThemeBackground
 0001:00024728       UxTheme.InitThemeLibrary
 0004:00003474       UxTheme.IsAppThemed
 0004:00003470       UxTheme.IsThemeActive
 0004:00003418       UxTheme.IsThemeBackgroundPartiallyTransparent
 0004:00003480       UxTheme.IsThemeDialogTextureEnabled
 0004:00003414       UxTheme.IsThemePartDefined
 0004:000034A8       UxTheme.Lock
 0004:000033E0       UxTheme.OpenThemeData
 0004:000034A4       UxTheme.ReferenceCount
 0004:00003488       UxTheme.SetThemeAppProperties
 0004:0000344C       UxTheme.SetWindowTheme
 0004:000034A0       UxTheme.ThemeLibrary
 0001:00024E8C       UxTheme.UseThemes
 0002:000003C8       UxTheme.UxTheme
 0004:000032A0       Variants..81
 0001:0000DB18       Variants..EVariantArrayCreateError
 0001:0000DAB0       Variants..EVariantArrayLockedError
 0001:0000DA4C       Variants..EVariantBadIndexError
 0001:0000D9E8       Variants..EVariantBadVarTypeError
 0001:0000DCB0       Variants..EVariantDispatchError
 0001:0000D984       Variants..EVariantInvalidArgError
 0001:0000D858       Variants..EVariantInvalidOpError
 0001:0000DB80       Variants..EVariantNotImplError
 0001:0000DBE4       Variants..EVariantOutOfMemoryError
 0001:0000D920       Variants..EVariantOverflowError
 0001:0000D8BC       Variants..EVariantTypeCastError
 0001:0000DC4C       Variants..EVariantUnexpectedError
 0001:0000D78C       Variants..TCustomVariantType
 0001:0000E1DC       Variants.@DispInvokeError
 0001:0000F8C8       Variants.@VarAddRef
 0001:0000E4C8       Variants.@VarClear
 0001:0000E4DC       Variants.@VarClr
 0001:0000E7F0       Variants.@VarCopy
 0001:0000F800       Variants.@VarFromBool
 0001:0000F850       Variants.@VarFromCurr
 0001:0000F798       Variants.@VarFromInt
 0001:0000F7D4       Variants.@VarFromInt64
 0001:0000F864       Variants.@VarFromLStr
 0001:0000F828       Variants.@VarFromReal
 0001:0000F83C       Variants.@VarFromTDateTime
 0001:0000F890       Variants.@VarFromWStr
 0001:0000E230       Variants.@VarNull
 0001:0000EB24       Variants.@VarToLStr
 0001:0000F244       Variants.@VarToWStr
 0003:00000A10       Variants.BooleanToStringRule
 0001:0000E8A4       Variants.BoolToWStrViaOS
 0004:00003298       Variants.ChangeAnyProc
 0003:00000A14       Variants.CInvalidCustomVariantType
 0004:00003294       Variants.ClearAnyProc
 0001:0000FC04       Variants.ClearVariantTypeList
 0003:00000A18       Variants.CRangeToType
 0003:00000A80       Variants.CRelationshipToBoolean
 0003:00000A2C       Variants.CText
 0001:0000E834       Variants.CurrToWStrViaOS
 0001:0000E86C       Variants.DateToWStrViaOS
 0004:00003280       Variants.EmptyParam
 0001:00010054       Variants.Finalization
 0001:0000FEA8       Variants.FindCustomVariantType
 0001:0000FF64       Variants.FindCustomVariantType
 0001:0000E4E4       Variants.InBounds
 0001:0000E244       Variants.InBounds
 0001:0000E514       Variants.Increment
 0001:0000E274       Variants.Increment
 0004:000032A4       Variants.LVarTypes
 0004:000032A8       Variants.LVarTypeSync
 0001:0001004C       Variants.Null
 0003:00000A08       Variants.NullAsStringValue
 0003:00000A04       Variants.NullStrictConvert
 0003:00000A0C       Variants.PackVarCreation
 0004:0000329C       Variants.RefAnyProc
 0001:0000FBD4       Variants.SetClearVarToEmptyParam
 0001:0000FBBC       Variants.SetVarAsError
 0001:0000FC70       Variants.TCustomVariantType.BinaryOp
 0001:0000FC7C       Variants.TCustomVariantType.Cast
 0001:0000FCB4       Variants.TCustomVariantType.CastTo
 0001:0000FD40       Variants.TCustomVariantType.CastToOle
 0001:0000FCFC       Variants.TCustomVariantType.Compare
 0001:0000FD08       Variants.TCustomVariantType.CompareOp
 0001:0000FD7C       Variants.TCustomVariantType.Destroy
 0001:0000FE5C       Variants.TCustomVariantType.DispInvoke
 0001:0000FE08       Variants.TCustomVariantType.IsClear
 0001:0000FE0C       Variants.TCustomVariantType.LeftPromotion
 0001:0000FE20       Variants.TCustomVariantType.OlePromotion
 0001:0000FE80       Variants.TCustomVariantType.QueryInterface
 0001:0000FE28       Variants.TCustomVariantType.RaiseCastError
 0001:0000FE38       Variants.TCustomVariantType.RaiseDispError
 0001:0000FE30       Variants.TCustomVariantType.RaiseInvalidOp
 0001:0000FE40       Variants.TCustomVariantType.RightPromotion
 0001:0000FE54       Variants.TCustomVariantType.UnaryOp
 0001:0000FE68       Variants.TCustomVariantType._AddRef
 0001:0000FE74       Variants.TCustomVariantType._Release
 0001:0000DF48       Variants.TranslateResult
 0001:0000E2D0       Variants.VarArrayClear
 0001:0000E570       Variants.VarArrayCopyForEach
 0001:0000DEF4       Variants.VarArrayCreateError
 0001:0000DD14       Variants.VarCastError
 0001:0000DD68       Variants.VarCastError
 0001:0000E44C       Variants.VarClearDeep
 0001:0000E73C       Variants.VarCopyCopyProc
 0001:0000E744       Variants.VarCopyDeep
 0004:00003290       Variants.VarDispProc
 0002:00000144       Variants.Variants
 0001:0000DE04       Variants.VarInvalidOp
 0001:0000DE58       Variants.VarOverflowError
 0001:0000E19C       Variants.VarResultCheck
 0001:0000E1A8       Variants.VarResultCheck
 0001:0000EA38       Variants.VarToLStrAny
 0001:0000EA9C       Variants.VarToLStrCustom
 0001:0000E96C       Variants.VarToLStrViaOS
 0001:0000F118       Variants.VarToWStrAny
 0001:0000F17C       Variants.VarToWStrCustom
 0001:0000F060       Variants.VarToWStrViaOS
 0001:0000FA4C       Variants.VarTypeAsText
 0004:0000327C       VarUtils..5
 0001:0000D1DC       VarUtils.BackupVarBoolFromStr
 0001:0000D340       VarUtils.BackupVarBStrFromBool
 0001:0000D25C       VarUtils.BackupVarBStrFromCy
 0001:0000D2CC       VarUtils.BackupVarBStrFromDate
 0001:0000D170       VarUtils.BackupVarCyFromStr
 0001:0000D104       VarUtils.BackupVarDateFromStr
 0001:0000CFC0       VarUtils.BackupVarI4FromStr
 0001:0000CF6C       VarUtils.BackupVariantChangeTypeEx
 0001:0000D02C       VarUtils.BackupVarR4FromStr
 0001:0000D098       VarUtils.BackupVarR8FromStr
 0001:0000CFA8       VarUtils.BiUnimplemented
 0001:0000CFB4       VarUtils.CmpUnimplemented
 0003:000009FC       VarUtils.CResult
 0001:0000D70C       VarUtils.Finalization
 0001:0000D3D4       VarUtils.FindProc
 0001:0000D400       VarUtils.InitializeVarUtils
 0001:0000D3B4       VarUtils.SafeArrayCreate
 0001:0000D3BC       VarUtils.SafeArrayGetLBound
 0001:0000D3C4       VarUtils.SafeArrayGetUBound
 0001:0000D3CC       VarUtils.SafeArrayPtrOfIndex
 0001:0000CF9C       VarUtils.UniUnimplemented
 0004:00003230       VarUtils.VarAdd
 0004:00003248       VarUtils.VarAnd
 0004:0000326C       VarUtils.VarBoolFromStr
 0004:00003278       VarUtils.VarBstrFromBool
 0004:00003270       VarUtils.VarBstrFromCy
 0004:00003274       VarUtils.VarBstrFromDate
 0004:00003254       VarUtils.VarCmp
 0004:00003268       VarUtils.VarCyFromStr
 0004:00003264       VarUtils.VarDateFromStr
 0004:0000323C       VarUtils.VarDiv
 0004:00003258       VarUtils.VarI4FromStr
 0001:0000CF64       VarUtils.VariantChangeType
 0004:00003224       VarUtils.VariantChangeTypeEx
 0001:0000CF54       VarUtils.VariantClear
 0001:0000CF5C       VarUtils.VariantCopy
 0001:0000CF4C       VarUtils.VariantInit
 0004:00003240       VarUtils.VarIDiv
 0004:00003244       VarUtils.VarMod
 0004:00003238       VarUtils.VarMul
 0004:00003228       VarUtils.VarNeg
 0004:0000322C       VarUtils.VarNot
 0004:0000324C       VarUtils.VarOr
 0004:0000325C       VarUtils.VarR4FromStr
 0004:00003260       VarUtils.VarR8FromStr
 0004:00003234       VarUtils.VarSub
 0002:00000134       VarUtils.VarUtils
 0004:00003250       VarUtils.VarXor
 0004:000027FC       Windows..3
 0001:00005DE0       Windows.ActivateKeyboardLayout
 0001:00005DE8       Windows.AdjustWindowRectEx
 0001:00005DF0       Windows.AnsiLower
 0001:00005DF8       Windows.BeginPaint
 0001:00005C28       Windows.BitBlt
 0001:00005E00       Windows.CallNextHookEx
 0001:00005E08       Windows.CallWindowProc
 0001:00005E10       Windows.CharNext
 0001:00005E18       Windows.CharToOemA
 0001:00005E20       Windows.CheckMenuItem
 0001:00005E28       Windows.ClientToScreen
 0001:00005A60       Windows.CloseHandle
 0001:00005A68       Windows.CompareString
 0001:00005C30       Windows.CreateBitmap
 0001:00005C38       Windows.CreateBrushIndirect
 0001:00005C40       Windows.CreateCompatibleBitmap
 0001:00005C48       Windows.CreateCompatibleDC
 0001:00005C58       Windows.CreateDIBitmap
 0001:00005C50       Windows.CreateDIBSection
 0001:00005A70       Windows.CreateEvent
 0001:00005A78       Windows.CreateFile
 0001:00005C60       Windows.CreateFontIndirect
 0001:00005C68       Windows.CreateHalftonePalette
 0001:00005E30       Windows.CreateIcon
 0001:00005E38       Windows.CreateMenu
 0001:00005C70       Windows.CreatePalette
 0001:00005C78       Windows.CreatePenIndirect
 0001:00005E40       Windows.CreatePopupMenu
 0001:00005C80       Windows.CreateSolidBrush
 0001:00005A80       Windows.CreateThread
 0001:00006360       Windows.CreateWindow
 0001:00006308       Windows.CreateWindowEx
 0001:00005E48       Windows.DefFrameProc
 0001:00005E50       Windows.DefMDIChildProc
 0001:00005E58       Windows.DefWindowProc
 0001:00005A88       Windows.DeleteCriticalSection
 0001:00005C88       Windows.DeleteDC
 0001:00005E60       Windows.DeleteMenu
 0001:00005C90       Windows.DeleteObject
 0001:00005E68       Windows.DestroyCursor
 0001:00005E70       Windows.DestroyIcon
 0001:00005E78       Windows.DestroyMenu
 0001:00005E80       Windows.DestroyWindow
 0001:00005A90       Windows.DeviceIoControl
 0001:00005E88       Windows.DispatchMessage
 0001:00005E90       Windows.DispatchMessageW
 0001:00005E98       Windows.DrawEdge
 0001:00005EA0       Windows.DrawFrameControl
 0001:00005EA8       Windows.DrawIcon
 0001:00005EB0       Windows.DrawIconEx
 0001:00005EB8       Windows.DrawMenuBar
 0001:00005EC0       Windows.DrawText
 0001:00005EC8       Windows.EnableMenuItem
 0001:00005ED0       Windows.EnableScrollBar
 0001:00005ED8       Windows.EnableWindow
 0001:00005EE0       Windows.EndPaint
 0001:00005A98       Windows.EnterCriticalSection
 0001:00005AA0       Windows.EnumCalendarInfoA
 0001:00005EE8       Windows.EnumChildWindows
 0001:00005EF0       Windows.EnumThreadWindows
 0001:00005EF8       Windows.EnumWindows
 0001:00005F00       Windows.EqualRect
 0001:00005C98       Windows.ExcludeClipRect
 0001:00005F08       Windows.FillRect
 0001:000064B0       Windows.Finalization
 0001:00005AA8       Windows.FindResource
 0001:00005F10       Windows.FindWindow
 0001:00005AB0       Windows.FormatMessage
 0001:00005F18       Windows.FrameRect
 0001:00005AB8       Windows.FreeLibrary
 0001:00005AC8       Windows.FreeResource
 0001:00005F20       Windows.GetActiveWindow
 0001:00005CA0       Windows.GetBitmapBits
 0001:00005CA8       Windows.GetBrushOrgEx
 0001:00005F28       Windows.GetCapture
 0001:00005F30       Windows.GetClassInfo
 0001:00005F38       Windows.GetClassLong
 0001:00005F40       Windows.GetClientRect
 0001:00005CB0       Windows.GetClipBox
 0001:00005AD0       Windows.GetCPInfo
 0001:00005CB8       Windows.GetCurrentPositionEx
 0001:00005AD8       Windows.GetCurrentProcessId
 0001:00005AE0       Windows.GetCurrentThreadId
 0001:00005F48       Windows.GetCursor
 0001:00005F50       Windows.GetCursorPos
 0001:00005AE8       Windows.GetDateFormat
 0001:00005F58       Windows.GetDC
 0001:00005F60       Windows.GetDCEx
 0001:00005CC0       Windows.GetDCOrgEx
 0001:00005F68       Windows.GetDesktopWindow
 0001:00005CD8       Windows.GetDeviceCaps
 0001:00005CC8       Windows.GetDIBColorTable
 0001:00005CD0       Windows.GetDIBits
 0001:00005AF0       Windows.GetDiskFreeSpaceA
 0001:00005C10       Windows.GetFileVersionInfo
 0001:00005C18       Windows.GetFileVersionInfoSize
 0001:00005F70       Windows.GetFocus
 0001:00005F78       Windows.GetForegroundWindow
 0001:00005AF8       Windows.GetFullPathName
 0001:00005F80       Windows.GetIconInfo
 0001:00005F98       Windows.GetKeyboardLayout
 0001:00005FA0       Windows.GetKeyboardLayoutList
 0001:00005FA8       Windows.GetKeyboardLayoutName
 0001:00005FB0       Windows.GetKeyboardState
 0001:00005F88       Windows.GetKeyNameText
 0001:00005F90       Windows.GetKeyState
 0001:00005FB8       Windows.GetLastActivePopup
 0001:00005B00       Windows.GetLastError
 0001:00005B10       Windows.GetLocaleInfo
 0001:00005B08       Windows.GetLocalTime
 0001:00005FC0       Windows.GetMenu
 0001:00005FC8       Windows.GetMenuItemCount
 0001:00005FD0       Windows.GetMenuItemID
 0001:00005FD8       Windows.GetMenuItemInfo
 0001:00005FE0       Windows.GetMenuState
 0001:00005FE8       Windows.GetMenuString
 0001:00005FF0       Windows.GetMessagePos
 0001:00005B18       Windows.GetModuleFileName
 0001:00005B20       Windows.GetModuleHandle
 0001:00005FF8       Windows.GetNextWindow
 0001:00005CE0       Windows.GetObject
 0001:00005CE8       Windows.GetPaletteEntries
 0001:00006000       Windows.GetParent
 0001:00005CF0       Windows.GetPixel
 0001:00005B28       Windows.GetProcAddress
 0001:00006008       Windows.GetProp
 0001:00005CF8       Windows.GetRgnBox
 0001:00006010       Windows.GetScrollInfo
 0001:00006018       Windows.GetScrollPos
 0001:00006020       Windows.GetScrollRange
 0001:00005B30       Windows.GetStdHandle
 0001:00005D00       Windows.GetStockObject
 0001:00006028       Windows.GetSubMenu
 0001:00006030       Windows.GetSysColor
 0001:00006038       Windows.GetSysColorBrush
 0001:00005B38       Windows.GetSystemDirectory
 0001:00006040       Windows.GetSystemMenu
 0001:00006048       Windows.GetSystemMetrics
 0001:00005D08       Windows.GetSystemPaletteEntries
 0001:00005D10       Windows.GetTextExtentPoint32
 0001:00005D18       Windows.GetTextMetrics
 0001:00005B40       Windows.GetThreadLocale
 0001:00005B48       Windows.GetTickCount
 0001:00006050       Windows.GetTopWindow
 0001:00005B50       Windows.GetVersion
 0001:00005B58       Windows.GetVersionEx
 0001:00006058       Windows.GetWindow
 0001:00006060       Windows.GetWindowDC
 0001:00006068       Windows.GetWindowLong
 0001:00006070       Windows.GetWindowLongW
 0001:00005D20       Windows.GetWindowOrgEx
 0001:00006078       Windows.GetWindowPlacement
 0001:00006080       Windows.GetWindowRect
 0001:00006088       Windows.GetWindowText
 0001:00006090       Windows.GetWindowThreadProcessId
 0001:00006098       Windows.GetWindowThreadProcessId
 0001:00005B60       Windows.GlobalAddAtom
 0001:00005B68       Windows.GlobalDeleteAtom
 0001:00005B70       Windows.GlobalFindAtom
 0004:00002800       Windows.HtmlHelpModule
 0001:000063B8       Windows.HwndMSWheel
 0001:000060A0       Windows.InflateRect
 0001:00005B78       Windows.InitializeCriticalSection
 0001:000060A8       Windows.InsertMenu
 0001:000060B0       Windows.InsertMenuItem
 0001:00005AC0       Windows.InterlockedExchange
 0001:00005D28       Windows.IntersectClipRect
 0001:000060B8       Windows.IntersectRect
 0001:000060C0       Windows.InvalidateRect
 0001:000060C8       Windows.IsChild
 0001:000060D0       Windows.IsDialogMessageA
 0001:000060D8       Windows.IsDialogMessageW
 0001:000060E0       Windows.IsIconic
 0001:000060E8       Windows.IsRectEmpty
 0001:000060F0       Windows.IsWindow
 0001:000060F8       Windows.IsWindowEnabled
 0001:00006100       Windows.IsWindowUnicode
 0001:00006108       Windows.IsWindowVisible
 0001:00006110       Windows.IsZoomed
 0001:00006118       Windows.KillTimer
 0001:00005B80       Windows.LeaveCriticalSection
 0001:00005D30       Windows.LineTo
 0001:00006120       Windows.LoadBitmap
 0001:00006128       Windows.LoadCursor
 0001:00006130       Windows.LoadIcon
 0001:00006138       Windows.LoadKeyboardLayout
 0001:00005B88       Windows.LoadLibrary
 0001:00005B90       Windows.LoadResource
 0001:00006140       Windows.LoadString
 0001:00005B98       Windows.LockResource
 0001:00005C08       Windows.lstrcpy
 0001:00006148       Windows.MapVirtualKey
 0001:00006150       Windows.MapWindowPoints
 0001:00005D38       Windows.MaskBlt
 0001:00006158       Windows.MessageBox
 0001:00005D40       Windows.MoveToEx
 0001:00005BA0       Windows.MulDiv
 0001:00006160       Windows.OemToAnsi
 0001:00006168       Windows.OffsetRect
 0001:00005D48       Windows.PatBlt
 0001:00006170       Windows.PeekMessage
 0001:00006178       Windows.PeekMessageW
 0001:00006180       Windows.PostMessage
 0001:00006188       Windows.PostQuitMessage
 0001:00006190       Windows.PtInRect
 0001:00005BA8       Windows.ReadFile
 0001:00005D50       Windows.RealizePalette
 0001:00005D58       Windows.RectVisible
 0001:00006198       Windows.RedrawWindow
 0001:00005A40       Windows.RegCloseKey
 0001:00005A48       Windows.RegFlushKey
 0001:000061A0       Windows.RegisterClass
 0001:000061A8       Windows.RegisterClipboardFormat
 0001:000061B0       Windows.RegisterWindowMessage
 0001:00005A50       Windows.RegOpenKeyEx
 0001:00005A58       Windows.RegQueryValueEx
 0001:000061B8       Windows.ReleaseCapture
 0001:000061C0       Windows.ReleaseDC
 0001:000061C8       Windows.RemoveMenu
 0001:000061D0       Windows.RemoveProp
 0001:00005BB0       Windows.ResetEvent
 0001:00005D60       Windows.RestoreDC
 0001:00005D68       Windows.SaveDC
 0001:000061D8       Windows.ScreenToClient
 0001:000061E0       Windows.ScrollWindow
 0001:00005D70       Windows.SelectObject
 0001:00005D78       Windows.SelectPalette
 0001:000061E8       Windows.SendMessage
 0001:000061F0       Windows.SendMessageA
 0001:000061F8       Windows.SendMessageW
 0001:00006200       Windows.SetActiveWindow
 0001:00005D80       Windows.SetBkColor
 0001:00005D88       Windows.SetBkMode
 0001:00005D90       Windows.SetBrushOrgEx
 0001:00006208       Windows.SetCapture
 0001:00006210       Windows.SetClassLong
 0001:00006218       Windows.SetCursor
 0001:00005D98       Windows.SetDIBColorTable
 0001:00005BB8       Windows.SetEndOfFile
 0001:00005BC0       Windows.SetErrorMode
 0001:00005BC8       Windows.SetEvent
 0001:00005BD0       Windows.SetFilePointer
 0001:00006220       Windows.SetFocus
 0001:00006228       Windows.SetForegroundWindow
 0001:00006230       Windows.SetMenu
 0001:00006238       Windows.SetMenuItemInfo
 0001:00006240       Windows.SetParent
 0001:00005DA0       Windows.SetPixel
 0001:00006248       Windows.SetProp
 0001:00006250       Windows.SetRect
 0001:00005DA8       Windows.SetROP2
 0001:00006258       Windows.SetScrollInfo
 0001:00006260       Windows.SetScrollPos
 0001:00006268       Windows.SetScrollRange
 0001:00005DB0       Windows.SetStretchBltMode
 0001:00005DB8       Windows.SetTextColor
 0001:00005BD8       Windows.SetThreadLocale
 0001:00006270       Windows.SetTimer
 0001:00005DC0       Windows.SetViewportOrgEx
 0001:00006278       Windows.SetWindowLong
 0001:00006280       Windows.SetWindowLongW
 0001:00005DC8       Windows.SetWindowOrgEx
 0001:00006288       Windows.SetWindowPlacement
 0001:00006290       Windows.SetWindowPos
 0001:00006298       Windows.SetWindowsHookEx
 0001:000062A0       Windows.ShowOwnedPopups
 0001:000062A8       Windows.ShowScrollBar
 0001:000062B0       Windows.ShowWindow
 0001:00005BE0       Windows.SizeofResource
 0001:00005DD0       Windows.StretchBlt
 0001:000062B8       Windows.SystemParametersInfo
 0001:000062C0       Windows.TrackPopupMenu
 0001:000062C8       Windows.TranslateMDISysAccel
 0001:000062D0       Windows.TranslateMessage
 0001:000062D8       Windows.UnhookWindowsHookEx
 0001:00005DD8       Windows.UnrealizeObject
 0001:000062E0       Windows.UnregisterClass
 0001:000062E8       Windows.UpdateWindow
 0001:00005C20       Windows.VerQueryValue
 0001:00005BE8       Windows.VirtualAlloc
 0001:00005BF0       Windows.VirtualQuery
 0001:00005BF8       Windows.WaitForSingleObject
 0001:000062F0       Windows.WaitMessage
 0001:000062F8       Windows.WindowFromPoint
 0002:00000098       Windows.Windows
 0001:00005C00       Windows.WriteFile
 0001:00006300       Windows._CreateWindowEx
 0001:00053544       WinSvc.CloseServiceHandle
 0001:0005354C       WinSvc.CreateService
 0001:00053554       WinSvc.OpenSCManager
 0001:0005355C       WinSvc.OpenService
 0001:00053564       WinSvc.StartService


  Address             Publics by Value

 0001:000000A0       System..TObject
 0001:00000194       System..TInterfacedObject
 0001:000001F4       System.CloseHandle
 0001:000001FC       System.CreateFileA
 0001:00000204       System.GetFileType
 0001:0000020C       System.GetFileSize
 0001:00000214       System.GetStdHandle
 0001:0000021C       System.RaiseException
 0001:00000224       System.ReadFile
 0001:0000022C       System.RtlUnwind
 0001:00000234       System.SetEndOfFile
 0001:0000023C       System.SetFilePointer
 0001:00000244       System.UnhandledExceptionFilter
 0001:0000024C       System.WriteFile
 0001:00000254       System.CharNext
 0001:0000025C       System.CompareString
 0001:00000264       System.ExitProcess
 0001:0000026C       System.MessageBox
 0001:00000274       System.FindClose
 0001:0000027C       System.FindFirstFile
 0001:00000284       System.FreeLibrary
 0001:0000028C       System.GetCommandLine
 0001:00000294       System.GetLastError
 0001:0000029C       System.GetLocaleInfo
 0001:000002A4       System.GetModuleFileName
 0001:000002AC       System.GetModuleHandle
 0001:000002B4       System.GetProcAddress
 0001:000002BC       System.GetStartupInfo
 0001:000002C4       System.GetThreadLocale
 0001:000002CC       System.LoadLibraryEx
 0001:000002D4       System.LoadString
 0001:000002DC       System.lstrcpyn
 0001:000002E4       System.@strlen
 0001:000002EC       System.MultiByteToWideChar
 0001:000002F4       System.RegCloseKey
 0001:000002FC       System.RegOpenKeyEx
 0001:00000304       System.RegQueryValueEx
 0001:0000030C       System.WideCharToMultiByte
 0001:00000314       System.VirtualQuery
 0001:0000031C       System.SysAllocStringLen
 0001:00000324       System.SysReAllocStringLen
 0001:0000032C       System.SysFreeString
 0001:00000334       System.InterlockedIncrement
 0001:0000033C       System.InterlockedDecrement
 0001:00000344       System.GetCurrentThreadId
 0001:0000034C       System.GetCmdShow
 0001:00000370       System.VirtualAlloc
 0001:00000378       System.VirtualFree
 0001:00000380       System.Sleep
 0001:00000388       System.DestroyWindow
 0001:000003F0       System.LockCmpxchg
 0001:000003F8       System.Move12
 0001:0000040C       System.Move20
 0001:0000042C       System.Move28
 0001:00000458       System.Move36
 0001:00000478       System.Move44
 0001:0000049C       System.Move52
 0001:000004C8       System.Move60
 0001:000004F8       System.Move68
 0001:00000530       System.MoveX16L4
 0001:00000560       System.MoveX8L4
 0001:0000057C       System.RemoveMediumFreeBlock
 0001:000005BC       System.InsertMediumBlockIntoBin
 0001:0000061C       System.BinMediumSequentialFeedRemainder
 0001:00000688       System.AllocNewSequentialFeedMediumPool
 0001:00000700       System.LockLargeBlocks
 0001:00000740       System.AllocateLargeBlock
 0001:000007A4       System.FreeLargeBlock
 0001:000007E0       System.SysGetMem
 0001:00000B48       System.SysFreeMem
 0001:00000D28       System.SysReallocMem
 0001:000010B4       System.SysAllocMem
 0001:000010E4       System.NextMediumBlock
 0001:00001108       System.GetFirstMediumBlockInPool
 0001:00001148       System.GetFirstAndLastSmallBlockInPool
 0001:00001184       System.CardinalToStrBuf
 0001:000012A0       System.AppendStringToBuffer
 0001:000012B8       System.InternalIsValidClass
 0001:00001370       System.GetObjectClass
 0001:000013A0       System.LockExpectedMemoryLeaksList
 0001:0000140C       System.SysRegisterExpectedMemoryLeak
 0001:0000144C       System.SysUnregisterExpectedMemoryLeak
 0001:000014A4       System.CheckSmallBlockPoolForLeaks
 0001:000015F0       System.ScanForMemoryLeaks
 0001:00001A68       System.BuildBlockTypeLookupTable
 0001:00001AAC       System.InitializeMemoryManager
 0001:00001BD4       System.FreeAllMemory
 0001:00001C64       System.FinalizeMemoryManager
 0001:00001CB8       System.AllocMem
 0001:00001CD0       System.@GetMem
 0001:00001CEC       System.@FreeMem
 0001:00001D04       System.@ReallocMem
 0001:00001D54       System.ExceptObject
 0001:00001D74       System.ExceptAddr
 0001:00001D94       System.AcquireExceptionObject
 0001:00001DC8       System.RunErrorAt
 0001:00001DD4       System.ErrorAt
 0001:00001E20       System.Error
 0001:00001E2C       System.@_IOTest
 0001:00001E4C       System.SetInOutRes
 0001:00001E5C       System.@Copy
 0001:00001EA0       System.IOResult
 0001:00001EC0       System.Move
 0001:00001FC0       System.Set8087CW
 0001:00001FD0       System.Get8087CW
 0001:00001FD8       System.@ROUND
 0001:00001FE4       System.@AbstractError
 0001:00002000       System.OpenText
 0001:00002058       System.@RewritText
 0001:00002064       System.TextIn
 0001:000020A0       System.FileNOPProc
 0001:000020A4       System.TextOut
 0001:000020E0       System.InternalClose
 0001:000020F0       System.TextClose
 0001:00002110       System.TextOpen
 0001:000022BC       System.InternalFlush
 0001:00002304       System.Flush
 0001:00002310       System.@Flush
 0001:0000231C       System.@Close
 0001:00002374       System.@PStrNCpy
 0001:00002390       System.@PStrCmp
 0001:00002414       System.@AStrCmp
 0001:00002484       System.@FillChar
 0001:00002520       System.@ValLong
 0001:000025F4       System.TryOpenForOutput
 0001:00002638       System.@WriteBytes
 0001:0000268C       System.@WriteSpaces
 0001:00002708       System.@WriteLn
 0001:00002750       System.@_CToPasStr
 0001:0000275C       System.@_CLenToPasStr
 0001:00002780       System.FPower10
 0001:00002788       System.@Pow10
 0001:00002A6C       System.GetKeyboardType
 0001:00002A74       System.@isNECWindows
 0001:00002AA4       System.@FpuMaskInit
 0001:00002B68       System.@FpuInit
 0001:00002B74       System.TObject.ClassType
 0001:00002B7C       System.TObject.ClassName
 0001:00002B90       System.TObject.ClassNameIs
 0001:00002C28       System.TObject.ClassParent
 0001:00002C34       System.TObject.NewInstance
 0001:00002C50       System.TObject.FreeInstance
 0001:00002C64       System.TObject.InstanceSize
 0001:00002C6C       System.TObject.Create
 0001:00002C8C       System.TObject.Destroy
 0001:00002C9C       System.TObject.Free
 0001:00002CA8       System.TObject.InitInstance
 0001:00002D00       System.TObject.CleanupInstance
 0001:00002D20       System.InvokeImplGetter
 0001:00002D50       System.TObject.GetInterface
 0001:00002DE4       System.TObject.GetInterfaceEntry
 0001:00002E28       System.@IsClass
 0001:00002E4C       System.@AsClass
 0001:00002E68       System.GetDynaMethod
 0001:00002E98       System.@CallDynaInst
 0001:00002EB0       System.TObject.InheritsFrom
 0001:00002EC4       System.TObject.ClassInfo
 0001:00002ECC       System.TObject.SafeCallException
 0001:00002ED4       System.TObject.DefaultHandler
 0001:00002ED8       System.TObject.AfterConstruction
 0001:00002EDC       System.TObject.BeforeDestruction
 0001:00002EE0       System.TObject.Dispatch
 0001:00002F08       System.TObject.MethodAddress
 0001:00002F58       System.TObject.FieldAddress
 0001:00002FA8       System.@ClassCreate
 0001:00002FF8       System.@ClassDestroy
 0001:00003000       System.@AfterConstruction
 0001:00003050       System.@BeforeDestruction
 0001:00003060       System.NotifyReRaise
 0001:0000307C       System.NotifyNonDelphiException
 0001:000030A0       System.NotifyExcept
 0001:000030B8       System.NotifyOnExcept
 0001:000030CC       System.NotifyAnyExcept
 0001:000030E0       System.CheckJmp
 0001:00003100       System.NotifyExceptFinally
 0001:00003128       System.NotifyTerminate
 0001:00003144       System.NotifyUnhandled
 0001:00003164       System.@HandleAnyException
 0001:00003290       System.@HandleOnException
 0001:00003418       System.@HandleFinally
 0001:000034C0       System.@HandleFinallyInternal
 0001:000034F8       System.@RaiseExcept
 0001:00003520       System.@RaiseAgain
 0001:00003574       System.@DoneExcept
 0001:000035A4       System.@TryFinallyExit
 0001:000035BC       System.MapToRunError
 0001:0000365C       System.@ExceptionHandler
 0001:000036FC       System.SetExceptionHandler
 0001:0000371C       System.UnsetExceptionHandler
 0001:00003744       System.FinalizeUnits
 0001:000037A8       System.InitUnits
 0001:00003810       System.@StartExe
 0001:00003850       System.@InitResStringImports
 0001:00003878       System.@InitImports
 0001:0000389C       System.MakeErrorMessage
 0001:00003900       System.ExitDll
 0001:00003930       System.WriteErrorMessage
 0001:000039BC       System.@Halt0
 0001:00003A98       System.@Halt
 0001:00003AA4       System.@RunError
 0001:00003AB0       System.@Assert
 0001:00003AD0       System.@LStrClr
 0001:00003AF4       System.@LStrArrayClr
 0001:00003B24       System.@LStrAsg
 0001:00003B68       System.@LStrLAsg
 0001:00003B94       System.@NewAnsiString
 0001:00003BC0       System.@LStrFromPCharLen
 0001:00003BF0       System.CharFromWChar
 0001:00003C10       System.WCharFromChar
 0001:00003C2C       System.@LStrFromPWCharLen
 0001:00003CB8       System.@LStrFromChar
 0001:00003CC8       System.@LStrFromPChar
 0001:00003CF8       System.@LStrFromPWChar
 0001:00003D34       System.@LStrFromString
 0001:00003D40       System.@LStrFromArray
 0001:00003D58       System.@LStrFromWStr
 0001:00003D6C       System.@LStrToString
 0001:00003D90       System.@LStrLen
 0001:00003D9C       System.@LStrCat
 0001:00003DE0       System.@LStrCat3
 0001:00003E54       System.@LStrCatN
 0001:00003EE0       System.@LStrCmp
 0001:00003F84       System.@LStrAddRef
 0001:00003F94       System.@LStrToPChar
 0001:00003FA0       System.InternalUniqueString
 0001:00003FE4       System.UniqueString
 0001:00003FEC       System.@UniqueStringA
 0001:00003FF4       System.@LStrCopy
 0001:00004034       System.@LStrDelete
 0001:0000407C       System.@LStrInsert
 0001:000040D8       System.Pos
 0001:0000421C       System.@LStrSetLength
 0001:00004280       System.@Write0LString
 0001:00004288       System.@WriteLString
 0001:000042A8       System.WStrError
 0001:000042B0       System.@NewWideString
 0001:000042C8       System.WStrSet
 0001:000042D8       System.@WStrClr
 0001:000042F0       System.@WStrArrayClr
 0001:00004314       System.@WStrAsg
 0001:0000433C       System.@WStrFromPCharLen
 0001:000043C8       System.@WStrFromPWCharLen
 0001:000043EC       System.@WStrFromPWChar
 0001:00004428       System.@WStrFromLStr
 0001:00004438       System.@WStrToPWChar
 0001:00004448       System.@WStrLen
 0001:00004454       System.@WStrCmp
 0001:000044D8       System.@WStrCopy
 0001:00004524       System.@WStrSetLength
 0001:00004568       System.@InitializeRecord
 0001:00004598       System.@InitializeArray
 0001:0000462C       System.@FinalizeRecord
 0001:00004660       System.@VarClr
 0001:00004678       System.@FinalizeArray
 0001:00004764       System.@Finalize
 0001:00004770       System.@VarCopy
 0001:00004788       System.@CopyRecord
 0001:000048A4       System.@CopyArray
 0001:00004998       System.@Dispose
 0001:000049A8       System.@DispCallByIDError
 0001:000049B0       System.@_llmul
 0001:000049D4       System.@DynArrayLength
 0001:000049DC       System.@DynArrayHigh
 0001:000049E4       System.CopyArray
 0001:000049F4       System.FinalizeArray
 0001:000049FC       System.DynArrayClear
 0001:00004A04       System.DynArraySetLength
 0001:00004B90       System.@DynArraySetLength
 0001:00004B9C       System.@DynArrayClear
 0001:00004BD8       System.@DynArrayAsg
 0001:00004C00       System.FindHInstance
 0001:00004C28       System.FindClassHInstance
 0001:00004C30       System.DelayLoadResourceModule
 0001:00004C78       System.FindResourceHInstance
 0001:00004CB0       System.FindBS
 0001:00004CD0       System.ToLongPath
 0001:00004E94       System.LoadResourceModule
 0001:00005104       System.AddModuleUnloadProc
 0001:0000510C       System.RemoveModuleUnloadProc
 0001:00005114       System.AddModuleUnloadProc
 0001:00005134       System.RemoveModuleUnloadProc
 0001:00005198       System.NotifyModuleUnload
 0001:000051F4       System.RegisterModule
 0001:00005204       System.UnregisterModule
 0001:00005274       System.@IntfClear
 0001:0000528C       System.@IntfCopy
 0001:000052B8       System.@IntfCast
 0001:000052E8       System.@IntfAddRef
 0001:000052F4       System.TInterfacedObject.AfterConstruction
 0001:00005300       System.TInterfacedObject.BeforeDestruction
 0001:00005310       System.TInterfacedObject.NewInstance
 0001:00005320       System.TInterfacedObject.QueryInterface
 0001:00005348       System.TInterfacedObject._AddRef
 0001:0000535C       System.TInterfacedObject._Release
 0001:00005384       System.UnicodeToUtf8
 0001:00005460       System.Utf8ToUnicode
 0001:00005590       System.UTF8Encode
 0001:0000564C       System.UTF8Decode
 0001:00005704       System.AnsiToUtf8
 0001:00005754       System.LoadResString
 0001:000057AC       System.GetACP
 0001:000057B4       System.Finalization
 0001:00005814       SysInit.GetModuleHandle
 0001:0000581C       SysInit.LocalAlloc
 0001:00005824       SysInit.TlsGetValue
 0001:0000582C       SysInit.TlsSetValue
 0001:00005834       SysInit.AllocTlsBuffer
 0001:00005840       SysInit.GetTlsSize
 0001:00005848       SysInit.InitThreadTLS
 0001:0000588C       SysInit.@GetTls
 0001:000058CC       SysInit.InitializeModule
 0001:000058D8       SysInit.@InitExe
 0001:0000591C       Types.Rect
 0001:00005938       Types.Point
 0001:00005940       Types.SmallPoint
 0001:00005958       Types.Bounds
 0001:00005A40       Windows.RegCloseKey
 0001:00005A48       Windows.RegFlushKey
 0001:00005A50       Windows.RegOpenKeyEx
 0001:00005A58       Windows.RegQueryValueEx
 0001:00005A60       Windows.CloseHandle
 0001:00005A68       Windows.CompareString
 0001:00005A70       Windows.CreateEvent
 0001:00005A78       Windows.CreateFile
 0001:00005A80       Windows.CreateThread
 0001:00005A88       Windows.DeleteCriticalSection
 0001:00005A90       Windows.DeviceIoControl
 0001:00005A98       Windows.EnterCriticalSection
 0001:00005AA0       Windows.EnumCalendarInfoA
 0001:00005AA8       Windows.FindResource
 0001:00005AB0       Windows.FormatMessage
 0001:00005AB8       Windows.FreeLibrary
 0001:00005AC0       Windows.InterlockedExchange
 0001:00005AC8       Windows.FreeResource
 0001:00005AD0       Windows.GetCPInfo
 0001:00005AD8       Windows.GetCurrentProcessId
 0001:00005AE0       Windows.GetCurrentThreadId
 0001:00005AE8       Windows.GetDateFormat
 0001:00005AF0       Windows.GetDiskFreeSpaceA
 0001:00005AF8       Windows.GetFullPathName
 0001:00005B00       Windows.GetLastError
 0001:00005B08       Windows.GetLocalTime
 0001:00005B10       Windows.GetLocaleInfo
 0001:00005B18       Windows.GetModuleFileName
 0001:00005B20       Windows.GetModuleHandle
 0001:00005B28       Windows.GetProcAddress
 0001:00005B30       Windows.GetStdHandle
 0001:00005B38       Windows.GetSystemDirectory
 0001:00005B40       Windows.GetThreadLocale
 0001:00005B48       Windows.GetTickCount
 0001:00005B50       Windows.GetVersion
 0001:00005B58       Windows.GetVersionEx
 0001:00005B60       Windows.GlobalAddAtom
 0001:00005B68       Windows.GlobalDeleteAtom
 0001:00005B70       Windows.GlobalFindAtom
 0001:00005B78       Windows.InitializeCriticalSection
 0001:00005B80       Windows.LeaveCriticalSection
 0001:00005B88       Windows.LoadLibrary
 0001:00005B90       Windows.LoadResource
 0001:00005B98       Windows.LockResource
 0001:00005BA0       Windows.MulDiv
 0001:00005BA8       Windows.ReadFile
 0001:00005BB0       Windows.ResetEvent
 0001:00005BB8       Windows.SetEndOfFile
 0001:00005BC0       Windows.SetErrorMode
 0001:00005BC8       Windows.SetEvent
 0001:00005BD0       Windows.SetFilePointer
 0001:00005BD8       Windows.SetThreadLocale
 0001:00005BE0       Windows.SizeofResource
 0001:00005BE8       Windows.VirtualAlloc
 0001:00005BF0       Windows.VirtualQuery
 0001:00005BF8       Windows.WaitForSingleObject
 0001:00005C00       Windows.WriteFile
 0001:00005C08       Windows.lstrcpy
 0001:00005C10       Windows.GetFileVersionInfo
 0001:00005C18       Windows.GetFileVersionInfoSize
 0001:00005C20       Windows.VerQueryValue
 0001:00005C28       Windows.BitBlt
 0001:00005C30       Windows.CreateBitmap
 0001:00005C38       Windows.CreateBrushIndirect
 0001:00005C40       Windows.CreateCompatibleBitmap
 0001:00005C48       Windows.CreateCompatibleDC
 0001:00005C50       Windows.CreateDIBSection
 0001:00005C58       Windows.CreateDIBitmap
 0001:00005C60       Windows.CreateFontIndirect
 0001:00005C68       Windows.CreateHalftonePalette
 0001:00005C70       Windows.CreatePalette
 0001:00005C78       Windows.CreatePenIndirect
 0001:00005C80       Windows.CreateSolidBrush
 0001:00005C88       Windows.DeleteDC
 0001:00005C90       Windows.DeleteObject
 0001:00005C98       Windows.ExcludeClipRect
 0001:00005CA0       Windows.GetBitmapBits
 0001:00005CA8       Windows.GetBrushOrgEx
 0001:00005CB0       Windows.GetClipBox
 0001:00005CB8       Windows.GetCurrentPositionEx
 0001:00005CC0       Windows.GetDCOrgEx
 0001:00005CC8       Windows.GetDIBColorTable
 0001:00005CD0       Windows.GetDIBits
 0001:00005CD8       Windows.GetDeviceCaps
 0001:00005CE0       Windows.GetObject
 0001:00005CE8       Windows.GetPaletteEntries
 0001:00005CF0       Windows.GetPixel
 0001:00005CF8       Windows.GetRgnBox
 0001:00005D00       Windows.GetStockObject
 0001:00005D08       Windows.GetSystemPaletteEntries
 0001:00005D10       Windows.GetTextExtentPoint32
 0001:00005D18       Windows.GetTextMetrics
 0001:00005D20       Windows.GetWindowOrgEx
 0001:00005D28       Windows.IntersectClipRect
 0001:00005D30       Windows.LineTo
 0001:00005D38       Windows.MaskBlt
 0001:00005D40       Windows.MoveToEx
 0001:00005D48       Windows.PatBlt
 0001:00005D50       Windows.RealizePalette
 0001:00005D58       Windows.RectVisible
 0001:00005D60       Windows.RestoreDC
 0001:00005D68       Windows.SaveDC
 0001:00005D70       Windows.SelectObject
 0001:00005D78       Windows.SelectPalette
 0001:00005D80       Windows.SetBkColor
 0001:00005D88       Windows.SetBkMode
 0001:00005D90       Windows.SetBrushOrgEx
 0001:00005D98       Windows.SetDIBColorTable
 0001:00005DA0       Windows.SetPixel
 0001:00005DA8       Windows.SetROP2
 0001:00005DB0       Windows.SetStretchBltMode
 0001:00005DB8       Windows.SetTextColor
 0001:00005DC0       Windows.SetViewportOrgEx
 0001:00005DC8       Windows.SetWindowOrgEx
 0001:00005DD0       Windows.StretchBlt
 0001:00005DD8       Windows.UnrealizeObject
 0001:00005DE0       Windows.ActivateKeyboardLayout
 0001:00005DE8       Windows.AdjustWindowRectEx
 0001:00005DF0       Windows.AnsiLower
 0001:00005DF8       Windows.BeginPaint
 0001:00005E00       Windows.CallNextHookEx
 0001:00005E08       Windows.CallWindowProc
 0001:00005E10       Windows.CharNext
 0001:00005E18       Windows.CharToOemA
 0001:00005E20       Windows.CheckMenuItem
 0001:00005E28       Windows.ClientToScreen
 0001:00005E30       Windows.CreateIcon
 0001:00005E38       Windows.CreateMenu
 0001:00005E40       Windows.CreatePopupMenu
 0001:00005E48       Windows.DefFrameProc
 0001:00005E50       Windows.DefMDIChildProc
 0001:00005E58       Windows.DefWindowProc
 0001:00005E60       Windows.DeleteMenu
 0001:00005E68       Windows.DestroyCursor
 0001:00005E70       Windows.DestroyIcon
 0001:00005E78       Windows.DestroyMenu
 0001:00005E80       Windows.DestroyWindow
 0001:00005E88       Windows.DispatchMessage
 0001:00005E90       Windows.DispatchMessageW
 0001:00005E98       Windows.DrawEdge
 0001:00005EA0       Windows.DrawFrameControl
 0001:00005EA8       Windows.DrawIcon
 0001:00005EB0       Windows.DrawIconEx
 0001:00005EB8       Windows.DrawMenuBar
 0001:00005EC0       Windows.DrawText
 0001:00005EC8       Windows.EnableMenuItem
 0001:00005ED0       Windows.EnableScrollBar
 0001:00005ED8       Windows.EnableWindow
 0001:00005EE0       Windows.EndPaint
 0001:00005EE8       Windows.EnumChildWindows
 0001:00005EF0       Windows.EnumThreadWindows
 0001:00005EF8       Windows.EnumWindows
 0001:00005F00       Windows.EqualRect
 0001:00005F08       Windows.FillRect
 0001:00005F10       Windows.FindWindow
 0001:00005F18       Windows.FrameRect
 0001:00005F20       Windows.GetActiveWindow
 0001:00005F28       Windows.GetCapture
 0001:00005F30       Windows.GetClassInfo
 0001:00005F38       Windows.GetClassLong
 0001:00005F40       Windows.GetClientRect
 0001:00005F48       Windows.GetCursor
 0001:00005F50       Windows.GetCursorPos
 0001:00005F58       Windows.GetDC
 0001:00005F60       Windows.GetDCEx
 0001:00005F68       Windows.GetDesktopWindow
 0001:00005F70       Windows.GetFocus
 0001:00005F78       Windows.GetForegroundWindow
 0001:00005F80       Windows.GetIconInfo
 0001:00005F88       Windows.GetKeyNameText
 0001:00005F90       Windows.GetKeyState
 0001:00005F98       Windows.GetKeyboardLayout
 0001:00005FA0       Windows.GetKeyboardLayoutList
 0001:00005FA8       Windows.GetKeyboardLayoutName
 0001:00005FB0       Windows.GetKeyboardState
 0001:00005FB8       Windows.GetLastActivePopup
 0001:00005FC0       Windows.GetMenu
 0001:00005FC8       Windows.GetMenuItemCount
 0001:00005FD0       Windows.GetMenuItemID
 0001:00005FD8       Windows.GetMenuItemInfo
 0001:00005FE0       Windows.GetMenuState
 0001:00005FE8       Windows.GetMenuString
 0001:00005FF0       Windows.GetMessagePos
 0001:00005FF8       Windows.GetNextWindow
 0001:00006000       Windows.GetParent
 0001:00006008       Windows.GetProp
 0001:00006010       Windows.GetScrollInfo
 0001:00006018       Windows.GetScrollPos
 0001:00006020       Windows.GetScrollRange
 0001:00006028       Windows.GetSubMenu
 0001:00006030       Windows.GetSysColor
 0001:00006038       Windows.GetSysColorBrush
 0001:00006040       Windows.GetSystemMenu
 0001:00006048       Windows.GetSystemMetrics
 0001:00006050       Windows.GetTopWindow
 0001:00006058       Windows.GetWindow
 0001:00006060       Windows.GetWindowDC
 0001:00006068       Windows.GetWindowLong
 0001:00006070       Windows.GetWindowLongW
 0001:00006078       Windows.GetWindowPlacement
 0001:00006080       Windows.GetWindowRect
 0001:00006088       Windows.GetWindowText
 0001:00006090       Windows.GetWindowThreadProcessId
 0001:00006098       Windows.GetWindowThreadProcessId
 0001:000060A0       Windows.InflateRect
 0001:000060A8       Windows.InsertMenu
 0001:000060B0       Windows.InsertMenuItem
 0001:000060B8       Windows.IntersectRect
 0001:000060C0       Windows.InvalidateRect
 0001:000060C8       Windows.IsChild
 0001:000060D0       Windows.IsDialogMessageA
 0001:000060D8       Windows.IsDialogMessageW
 0001:000060E0       Windows.IsIconic
 0001:000060E8       Windows.IsRectEmpty
 0001:000060F0       Windows.IsWindow
 0001:000060F8       Windows.IsWindowEnabled
 0001:00006100       Windows.IsWindowUnicode
 0001:00006108       Windows.IsWindowVisible
 0001:00006110       Windows.IsZoomed
 0001:00006118       Windows.KillTimer
 0001:00006120       Windows.LoadBitmap
 0001:00006128       Windows.LoadCursor
 0001:00006130       Windows.LoadIcon
 0001:00006138       Windows.LoadKeyboardLayout
 0001:00006140       Windows.LoadString
 0001:00006148       Windows.MapVirtualKey
 0001:00006150       Windows.MapWindowPoints
 0001:00006158       Windows.MessageBox
 0001:00006160       Windows.OemToAnsi
 0001:00006168       Windows.OffsetRect
 0001:00006170       Windows.PeekMessage
 0001:00006178       Windows.PeekMessageW
 0001:00006180       Windows.PostMessage
 0001:00006188       Windows.PostQuitMessage
 0001:00006190       Windows.PtInRect
 0001:00006198       Windows.RedrawWindow
 0001:000061A0       Windows.RegisterClass
 0001:000061A8       Windows.RegisterClipboardFormat
 0001:000061B0       Windows.RegisterWindowMessage
 0001:000061B8       Windows.ReleaseCapture
 0001:000061C0       Windows.ReleaseDC
 0001:000061C8       Windows.RemoveMenu
 0001:000061D0       Windows.RemoveProp
 0001:000061D8       Windows.ScreenToClient
 0001:000061E0       Windows.ScrollWindow
 0001:000061E8       Windows.SendMessage
 0001:000061F0       Windows.SendMessageA
 0001:000061F8       Windows.SendMessageW
 0001:00006200       Windows.SetActiveWindow
 0001:00006208       Windows.SetCapture
 0001:00006210       Windows.SetClassLong
 0001:00006218       Windows.SetCursor
 0001:00006220       Windows.SetFocus
 0001:00006228       Windows.SetForegroundWindow
 0001:00006230       Windows.SetMenu
 0001:00006238       Windows.SetMenuItemInfo
 0001:00006240       Windows.SetParent
 0001:00006248       Windows.SetProp
 0001:00006250       Windows.SetRect
 0001:00006258       Windows.SetScrollInfo
 0001:00006260       Windows.SetScrollPos
 0001:00006268       Windows.SetScrollRange
 0001:00006270       Windows.SetTimer
 0001:00006278       Windows.SetWindowLong
 0001:00006280       Windows.SetWindowLongW
 0001:00006288       Windows.SetWindowPlacement
 0001:00006290       Windows.SetWindowPos
 0001:00006298       Windows.SetWindowsHookEx
 0001:000062A0       Windows.ShowOwnedPopups
 0001:000062A8       Windows.ShowScrollBar
 0001:000062B0       Windows.ShowWindow
 0001:000062B8       Windows.SystemParametersInfo
 0001:000062C0       Windows.TrackPopupMenu
 0001:000062C8       Windows.TranslateMDISysAccel
 0001:000062D0       Windows.TranslateMessage
 0001:000062D8       Windows.UnhookWindowsHookEx
 0001:000062E0       Windows.UnregisterClass
 0001:000062E8       Windows.UpdateWindow
 0001:000062F0       Windows.WaitMessage
 0001:000062F8       Windows.WindowFromPoint
 0001:00006300       Windows._CreateWindowEx
 0001:00006308       Windows.CreateWindowEx
 0001:00006360       Windows.CreateWindow
 0001:000063B8       Windows.HwndMSWheel
 0001:000064B0       Windows.Finalization
 0001:000067CC       SysUtils..Exception
 0001:00006834       SysUtils..EAbort
 0001:00006888       SysUtils..EHeapException
 0001:000068E4       SysUtils..EOutOfMemory
 0001:00006940       SysUtils..EInOutError
 0001:00006998       SysUtils..EExternal
 0001:000069F0       SysUtils..EExternalException
 0001:00006A50       SysUtils..EIntError
 0001:00006AA8       SysUtils..EDivByZero
 0001:00006B00       SysUtils..ERangeError
 0001:00006B58       SysUtils..EIntOverflow
 0001:00006BB4       SysUtils..EMathError
 0001:00006C0C       SysUtils..EInvalidOp
 0001:00006C64       SysUtils..EZeroDivide
 0001:00006CBC       SysUtils..EOverflow
 0001:00006D14       SysUtils..EUnderflow
 0001:00006D6C       SysUtils..EInvalidPointer
 0001:00006DC8       SysUtils..EInvalidCast
 0001:00006E24       SysUtils..EConvertError
 0001:00006E80       SysUtils..EAccessViolation
 0001:00006EE0       SysUtils..EPrivilege
 0001:00006F38       SysUtils..EStackOverflow
 0001:00006F94       SysUtils..EControlC
 0001:00006FEC       SysUtils..EVariantError
 0001:00007048       SysUtils..EAssertionFailed
 0001:000070A8       SysUtils..EAbstractError
 0001:00007104       SysUtils..EIntfCastError
 0001:00007160       SysUtils..EOSError
 0001:000071B8       SysUtils..ESafecallException
 0001:0000726C       SysUtils..TThreadLocalCounter
 0001:00007348       SysUtils..TMultiReadExclusiveWriteSynchronizer
 0001:000073BC       SysUtils.DivMod
 0001:000073D8       SysUtils.ConvertErrorFmt
 0001:000073FC       SysUtils.DoExitProc
 0001:00007428       SysUtils.AddExitProc
 0001:00007460       SysUtils.UpperCase
 0001:000074FC       SysUtils.LowerCase
 0001:00007598       SysUtils.CompareStr
 0001:000075C8       SysUtils.CompareMem
 0001:0000765C       SysUtils.CompareText
 0001:000076F8       SysUtils.SameText
 0001:0000771C       SysUtils.AnsiCompareText
 0001:00007760       SysUtils.AnsiStrLIComp
 0001:00007780       SysUtils.Trim
 0001:000077D4       SysUtils.IsValidIdent
 0001:000078A0       SysUtils.CvtInt
 0001:000078EC       SysUtils.IntToStr
 0001:0000790C       SysUtils.CvtInt64
 0001:000079D8       SysUtils.IntToStr
 0001:00007A00       SysUtils.IntToHex
 0001:00007A28       SysUtils.StrToInt
 0001:00007A64       SysUtils.StrToIntDef
 0001:00007A7C       SysUtils.TryStrToInt
 0001:00007A9C       SysUtils.VerifyBoolStrArray
 0001:00007B2C       SysUtils.CompareWith
 0001:00007BB0       SysUtils.TryStrToBool
 0001:00007C4C       SysUtils.BoolToStr
 0001:00007C98       SysUtils.FileOpen
 0001:00007CF0       SysUtils.FileRead
 0001:00007D1C       SysUtils.FileWrite
 0001:00007D48       SysUtils.FileSeek
 0001:00007D98       SysUtils.AnsiLastChar
 0001:00007DCC       SysUtils.LastDelimiter
 0001:00007E20       SysUtils.ExtractFileName
 0001:00007E58       SysUtils.ExpandFileName
 0001:00007E94       SysUtils.BackfillGetDiskFreeSpaceEx
 0001:00007F08       SysUtils.StrLen
 0001:00007F20       SysUtils.StrEnd
 0001:00007F34       SysUtils.StrMove
 0001:00007F44       SysUtils.StrCopy
 0001:00007F7C       SysUtils.StrLCopy
 0001:00007FB0       SysUtils.StrPCopy
 0001:00007FD8       SysUtils.StrPLCopy
 0001:00007FF8       SysUtils.StrComp
 0001:00008084       SysUtils.StrLIComp
 0001:000080C8       SysUtils.StrScan
 0001:000080DC       SysUtils.StrPos
 0001:00008130       SysUtils.StrAlloc
 0001:00008144       SysUtils.StrBufSize
 0001:00008150       SysUtils.StrNew
 0001:0000817C       SysUtils.StrDispose
 0001:0000818C       SysUtils.FormatError
 0001:000081E4       SysUtils.FormatVarToStr
 0001:00008208       SysUtils.FormatClearStr
 0001:00008214       SysUtils.FormatBuf
 0001:0000858C       SysUtils.StrFmt
 0001:000085CC       SysUtils.StrLFmt
 0001:0000860C       SysUtils.Format
 0001:00008620       SysUtils.FmtStr
 0001:000086FC       SysUtils.PutExponent
 0001:00008740       SysUtils.FloatToText
 0001:00008A14       SysUtils.FloatToDecimal
 0001:00008C40       SysUtils.TextToFloat
 0001:00008D54       SysUtils.FloatToStr
 0001:00008D84       SysUtils.CurrToStr
 0001:00008DB4       SysUtils.TryStrToFloat
 0001:00008DD0       SysUtils.TryStrToFloat
 0001:00008DFC       SysUtils.TryStrToFloat
 0001:00008E28       SysUtils.TryStrToCurr
 0001:00008E44       SysUtils.DateTimeToTimeStamp
 0001:00008E88       SysUtils.TryEncodeTime
 0001:00008EF8       SysUtils.DecodeTime
 0001:00008F54       SysUtils.IsLeapYear
 0001:00008F90       SysUtils.TryEncodeDate
 0001:0000905C       SysUtils.DecodeDateFully
 0001:000091A8       SysUtils.DecodeDate
 0001:000091C8       SysUtils.DayOfWeek
 0001:000091F0       SysUtils.CurrentYear
 0001:00009204       SysUtils.AppendChars
 0001:00009248       SysUtils.AppendString
 0001:00009264       SysUtils.AppendNumber
 0001:000092B0       SysUtils.GetCount
 0001:000092DC       SysUtils.GetDate
 0001:00009314       SysUtils.GetTime
 0001:00009354       SysUtils.ConvertEraString
 0001:000094D0       SysUtils.ConvertYearString
 0001:000095E8       SysUtils.AppendFormat
 0001:00009DA0       SysUtils.DateTimeToString
 0001:00009DFC       SysUtils.ScanBlanks
 0001:00009E20       SysUtils.ScanNumber
 0001:00009EB4       SysUtils.ScanString
 0001:00009F8C       SysUtils.ScanChar
 0001:00009FC8       SysUtils.GetDateOrder
 0001:0000A014       SysUtils.ScanToNumber
 0001:0000A05C       SysUtils.GetEraYearOffset
 0001:0000A0B0       SysUtils.EraToYear
 0001:0000A10C       SysUtils.ScanDate
 0001:0000A458       SysUtils.ScanTime
 0001:0000A650       SysUtils.TryStrToTime
 0001:0000A688       SysUtils.TryStrToDateTime
 0001:0000A724       SysUtils.SysErrorMessage
 0001:0000A770       SysUtils.GetLocaleStr
 0001:0000A7BC       SysUtils.GetLocaleChar
 0001:0000A7E8       SysUtils.LocalGetLocaleStr
 0001:0000A824       SysUtils.GetMonthDayNames
 0001:0000A948       SysUtils.EnumEraNames
 0001:0000A984       SysUtils.EnumEraYearOffsets
 0001:0000A9FC       SysUtils.GetEraNamesAndYearOffsets
 0001:0000AAAC       SysUtils.TranslateDateFormat
 0001:0000ACDC       SysUtils.ConvertAddr
 0001:0000ACE8       SysUtils.ExceptionErrorMessage
 0001:0000AE70       SysUtils.ShowException
 0001:0000AF38       SysUtils.Exception.Create
 0001:0000AF74       SysUtils.Exception.CreateFmt
 0001:0000AFF4       SysUtils.Exception.CreateRes
 0001:0000B030       SysUtils.Exception.CreateResFmt
 0001:0000B0C4       SysUtils.EHeapException.FreeInstance
 0001:0000B0F0       SysUtils.CreateInOutError
 0001:0000B170       SysUtils.ErrorHandler
 0001:0000B1C0       SysUtils.CreateAssertException
 0001:0000B26C       SysUtils.RaiseAssertException
 0001:0000B27C       SysUtils.AssertErrorHandler
 0001:0000B298       SysUtils.AbstractErrorHandler
 0001:0000B2B0       SysUtils.MapException
 0001:0000B330       SysUtils.GetExceptionClass
 0001:0000B348       SysUtils.CreateAVObject
 0001:0000B514       SysUtils.GetExceptionObject
 0001:0000B5DC       SysUtils.ExceptHandler
 0001:0000B5EC       SysUtils.InitExceptions
 0001:0000B670       SysUtils.DoneExceptions
 0001:0000B6F0       SysUtils.InitPlatformId
 0001:0000B760       SysUtils.CheckWin32Version
 0001:0000B780       SysUtils.GetFileVersion
 0001:0000B86C       SysUtils.ByteTypeTest
 0001:0000B8E0       SysUtils.ByteType
 0001:0000B904       SysUtils.StrByteType
 0001:0000B91C       SysUtils.ByteToCharLen
 0001:0000B940       SysUtils.ByteToCharIndex
 0001:0000B9A8       SysUtils.CountChars
 0001:0000BA38       SysUtils.CharToByteIndex
 0001:0000BABC       SysUtils.CharToByteLen
 0001:0000BB2C       SysUtils.StrCharLength
 0001:0000BB4C       SysUtils.StrNextChar
 0001:0000BB54       SysUtils.CharLength
 0001:0000BB8C       SysUtils.NextCharIndex
 0001:0000BBC4       SysUtils.AnsiPos
 0001:0000BBFC       SysUtils.AnsiStrPos
 0001:0000BC9C       SysUtils.AnsiStrRScan
 0001:0000BCD0       SysUtils.AnsiStrScan
 0001:0000BD10       SysUtils.InitLeadBytes
 0001:0000BD6C       SysUtils.InitSysLocale
 0001:0000BE30       SysUtils.GetFormatSettings
 0001:0000C1FC       SysUtils.ModuleUnloaded
 0001:0000C3D4       SysUtils.Sleep
 0001:0000C3DC       SysUtils.RaiseLastOSError
 0001:0000C3E8       SysUtils.RaiseLastOSError
 0001:0000C480       SysUtils.Win32Check
 0001:0000C490       SysUtils.CallTerminateProcs
 0001:0000C4B0       SysUtils.FreeTerminateProcs
 0001:0000C4D4       SysUtils.InitDriveSpacePtr
 0001:0000C530       SysUtils.InterlockedIncrement
 0001:0000C53C       SysUtils.InterlockedDecrement
 0001:0000C548       SysUtils.InterlockedExchange
 0001:0000C550       SysUtils.InterlockedExchangeAdd
 0001:0000C558       SysUtils.TThreadLocalCounter.Destroy
 0001:0000C5B0       SysUtils.TThreadLocalCounter.HashIndex
 0001:0000C5CC       SysUtils.TThreadLocalCounter.Open
 0001:0000C644       SysUtils.TThreadLocalCounter.Delete
 0001:0000C654       SysUtils.TThreadLocalCounter.Recycle
 0001:0000C698       SysUtils.TMultiReadExclusiveWriteSynchronizer.Create
 0001:0000C70C       SysUtils.TMultiReadExclusiveWriteSynchronizer.Destroy
 0001:0000C754       SysUtils.TMultiReadExclusiveWriteSynchronizer.BlockReaders
 0001:0000C760       SysUtils.TMultiReadExclusiveWriteSynchronizer.UnblockReaders
 0001:0000C76C       SysUtils.TMultiReadExclusiveWriteSynchronizer.UnblockOneWriter
 0001:0000C778       SysUtils.TMultiReadExclusiveWriteSynchronizer.WaitForReadSignal
 0001:0000C788       SysUtils.TMultiReadExclusiveWriteSynchronizer.WaitForWriteSignal
 0001:0000C798       SysUtils.TMultiReadExclusiveWriteSynchronizer.BeginWrite
 0001:0000C844       SysUtils.TMultiReadExclusiveWriteSynchronizer.EndWrite
 0001:0000C894       SysUtils.TMultiReadExclusiveWriteSynchronizer.BeginRead
 0001:0000C904       SysUtils.TMultiReadExclusiveWriteSynchronizer.EndRead
 0001:0000C96C       SysUtils.FreeAndNil
 0001:0000C97C       SysUtils.Supports
 0001:0000C9A0       SysUtils.Supports
 0001:0000CA38       SysUtils.SafeLoadLibrary
 0001:0000CABC       SysUtils.ClearHashTables
 0001:0000CDBC       SysUtils.Finalization
 0001:0000CF4C       VarUtils.VariantInit
 0001:0000CF54       VarUtils.VariantClear
 0001:0000CF5C       VarUtils.VariantCopy
 0001:0000CF64       VarUtils.VariantChangeType
 0001:0000CF6C       VarUtils.BackupVariantChangeTypeEx
 0001:0000CF9C       VarUtils.UniUnimplemented
 0001:0000CFA8       VarUtils.BiUnimplemented
 0001:0000CFB4       VarUtils.CmpUnimplemented
 0001:0000CFC0       VarUtils.BackupVarI4FromStr
 0001:0000D02C       VarUtils.BackupVarR4FromStr
 0001:0000D098       VarUtils.BackupVarR8FromStr
 0001:0000D104       VarUtils.BackupVarDateFromStr
 0001:0000D170       VarUtils.BackupVarCyFromStr
 0001:0000D1DC       VarUtils.BackupVarBoolFromStr
 0001:0000D25C       VarUtils.BackupVarBStrFromCy
 0001:0000D2CC       VarUtils.BackupVarBStrFromDate
 0001:0000D340       VarUtils.BackupVarBStrFromBool
 0001:0000D3B4       VarUtils.SafeArrayCreate
 0001:0000D3BC       VarUtils.SafeArrayGetLBound
 0001:0000D3C4       VarUtils.SafeArrayGetUBound
 0001:0000D3CC       VarUtils.SafeArrayPtrOfIndex
 0001:0000D3D4       VarUtils.FindProc
 0001:0000D400       VarUtils.InitializeVarUtils
 0001:0000D70C       VarUtils.Finalization
 0001:0000D78C       Variants..TCustomVariantType
 0001:0000D858       Variants..EVariantInvalidOpError
 0001:0000D8BC       Variants..EVariantTypeCastError
 0001:0000D920       Variants..EVariantOverflowError
 0001:0000D984       Variants..EVariantInvalidArgError
 0001:0000D9E8       Variants..EVariantBadVarTypeError
 0001:0000DA4C       Variants..EVariantBadIndexError
 0001:0000DAB0       Variants..EVariantArrayLockedError
 0001:0000DB18       Variants..EVariantArrayCreateError
 0001:0000DB80       Variants..EVariantNotImplError
 0001:0000DBE4       Variants..EVariantOutOfMemoryError
 0001:0000DC4C       Variants..EVariantUnexpectedError
 0001:0000DCB0       Variants..EVariantDispatchError
 0001:0000DD14       Variants.VarCastError
 0001:0000DD68       Variants.VarCastError
 0001:0000DE04       Variants.VarInvalidOp
 0001:0000DE58       Variants.VarOverflowError
 0001:0000DEF4       Variants.VarArrayCreateError
 0001:0000DF48       Variants.TranslateResult
 0001:0000E19C       Variants.VarResultCheck
 0001:0000E1A8       Variants.VarResultCheck
 0001:0000E1DC       Variants.@DispInvokeError
 0001:0000E230       Variants.@VarNull
 0001:0000E244       Variants.InBounds
 0001:0000E274       Variants.Increment
 0001:0000E2D0       Variants.VarArrayClear
 0001:0000E44C       Variants.VarClearDeep
 0001:0000E4C8       Variants.@VarClear
 0001:0000E4DC       Variants.@VarClr
 0001:0000E4E4       Variants.InBounds
 0001:0000E514       Variants.Increment
 0001:0000E570       Variants.VarArrayCopyForEach
 0001:0000E73C       Variants.VarCopyCopyProc
 0001:0000E744       Variants.VarCopyDeep
 0001:0000E7F0       Variants.@VarCopy
 0001:0000E834       Variants.CurrToWStrViaOS
 0001:0000E86C       Variants.DateToWStrViaOS
 0001:0000E8A4       Variants.BoolToWStrViaOS
 0001:0000E96C       Variants.VarToLStrViaOS
 0001:0000EA38       Variants.VarToLStrAny
 0001:0000EA9C       Variants.VarToLStrCustom
 0001:0000EB24       Variants.@VarToLStr
 0001:0000F060       Variants.VarToWStrViaOS
 0001:0000F118       Variants.VarToWStrAny
 0001:0000F17C       Variants.VarToWStrCustom
 0001:0000F244       Variants.@VarToWStr
 0001:0000F798       Variants.@VarFromInt
 0001:0000F7D4       Variants.@VarFromInt64
 0001:0000F800       Variants.@VarFromBool
 0001:0000F828       Variants.@VarFromReal
 0001:0000F83C       Variants.@VarFromTDateTime
 0001:0000F850       Variants.@VarFromCurr
 0001:0000F864       Variants.@VarFromLStr
 0001:0000F890       Variants.@VarFromWStr
 0001:0000F8C8       Variants.@VarAddRef
 0001:0000FA4C       Variants.VarTypeAsText
 0001:0000FBBC       Variants.SetVarAsError
 0001:0000FBD4       Variants.SetClearVarToEmptyParam
 0001:0000FC04       Variants.ClearVariantTypeList
 0001:0000FC70       Variants.TCustomVariantType.BinaryOp
 0001:0000FC7C       Variants.TCustomVariantType.Cast
 0001:0000FCB4       Variants.TCustomVariantType.CastTo
 0001:0000FCFC       Variants.TCustomVariantType.Compare
 0001:0000FD08       Variants.TCustomVariantType.CompareOp
 0001:0000FD40       Variants.TCustomVariantType.CastToOle
 0001:0000FD7C       Variants.TCustomVariantType.Destroy
 0001:0000FE08       Variants.TCustomVariantType.IsClear
 0001:0000FE0C       Variants.TCustomVariantType.LeftPromotion
 0001:0000FE20       Variants.TCustomVariantType.OlePromotion
 0001:0000FE28       Variants.TCustomVariantType.RaiseCastError
 0001:0000FE30       Variants.TCustomVariantType.RaiseInvalidOp
 0001:0000FE38       Variants.TCustomVariantType.RaiseDispError
 0001:0000FE40       Variants.TCustomVariantType.RightPromotion
 0001:0000FE54       Variants.TCustomVariantType.UnaryOp
 0001:0000FE5C       Variants.TCustomVariantType.DispInvoke
 0001:0000FE68       Variants.TCustomVariantType._AddRef
 0001:0000FE74       Variants.TCustomVariantType._Release
 0001:0000FE80       Variants.TCustomVariantType.QueryInterface
 0001:0000FEA8       Variants.FindCustomVariantType
 0001:0000FF64       Variants.FindCustomVariantType
 0001:0001004C       Variants.Null
 0001:00010054       Variants.Finalization
 0001:000101F0       TypInfo.GetTypeData
 0001:000101FC       TypInfo.GetEnumNameValue
 0001:00010248       TypInfo.GetEnumValue
 0001:00010334       TypInfo.GetPropInfo
 0001:000103A4       TypInfo.GetOrdProp
 0001:00010418       TypInfo.SetOrdProp
 0001:00010474       TypInfo.GetSetElementValue
 0001:00010514       TypInfo.SetShortStrProp
 0001:00010568       TypInfo.SetShortStrPropAsLongStr
 0001:0001059C       TypInfo.AssignLongStr
 0001:000105B0       TypInfo.SetLongStrProp
 0001:000105F0       TypInfo.SetWideStrPropAsLongStr
 0001:00010648       TypInfo.SetStrProp
 0001:00010678       TypInfo.SetWideStrProp
 0001:00010750       TypInfo.SetFloatProp
 0001:00010948       TypInfo.AssignVariant
 0001:0001095C       TypInfo.SetVariantProp
 0001:0001099C       TypInfo.SetMethodProp
 0001:000109D4       TypInfo.SetInt64Prop
 0001:00010A10       TypInfo.SetInterfaceProp
 0001:00010A84       TypInfo.Finalization
 0001:00010CBC       Classes..EStreamError
 0001:00010D18       Classes..EFileStreamError
 0001:00010D78       Classes..EFCreateError
 0001:00010DD4       Classes..EFOpenError
 0001:00010E2C       Classes..EFilerError
 0001:00010E84       Classes..EReadError
 0001:00010EDC       Classes..EWriteError
 0001:00010F34       Classes..EClassNotFound
 0001:00010F90       Classes..EResNotFound
 0001:00010FEC       Classes..EListError
 0001:00011044       Classes..EBitsError
 0001:0001109C       Classes..EStringListError
 0001:000110FC       Classes..EComponentError
 0001:00011158       Classes..EOutOfResources
 0001:000111B4       Classes..EInvalidOperation
 0001:00011214       Classes..TList
 0001:00011278       Classes..TThreadList
 0001:000112D0       Classes..TBits
 0001:00011324       Classes..TPersistent
 0001:00011414       Classes..TInterfacedPersistent
 0001:00011500       Classes..TStrings
 0001:00011638       Classes..TStringList
 0001:00011750       Classes..TStream
 0001:000117C0       Classes..THandleStream
 0001:00011838       Classes..TFileStream
 0001:000118C0       Classes..TCustomMemoryStream
 0001:0001193C       Classes..TMemoryStream
 0001:000119B8       Classes..TResourceStream
 0001:00011B44       Classes..TStreamAdapter
 0001:00011BCC       Classes..TClassFinder
 0001:00011C28       Classes..TFiler
 0001:00011C8C       Classes..TReader
 0001:00011D20       Classes..EThread
 0001:00011E68       Classes..TComponent
 0001:00011FC8       Classes..TBasicActionLink
 0001:00012048       Classes..TBasicAction
 0001:00012140       Classes.Point
 0001:00012158       Classes.SmallPoint
 0001:00012168       Classes.Rect
 0001:00012190       Classes.Bounds
 0001:000121B8       Classes.InvalidPoint
 0001:000121CC       Classes..TRegGroup
 0001:00012224       Classes..TRegGroups
 0001:0001227C       Classes.TRegGroup.AddClass
 0001:00012288       Classes.TRegGroup.BestClass
 0001:000122E8       Classes.TRegGroup.BestGroup
 0001:00012358       Classes.TRegGroup.Create
 0001:000123B4       Classes.TRegGroup.Destroy
 0001:000123F4       Classes.TRegGroup.GetClass
 0001:0001245C       Classes.TRegGroup.InGroup
 0001:000124A0       Classes.TRegGroup.RegisterClass
 0001:00012560       Classes.TRegGroup.Registered
 0001:00012584       Classes.PointerInModule
 0001:000125A4       Classes.TRegGroup.UnregisterModuleClasses
 0001:00012650       Classes.TRegGroups.Activate
 0001:0001269C       Classes.TRegGroups.Create
 0001:00012710       Classes.TRegGroups.Destroy
 0001:00012770       Classes.TRegGroups.FindGroup
 0001:000127B4       Classes.TRegGroups.GetClass
 0001:000127F8       Classes.Error
 0001:00012888       Classes.TRegGroups.GroupWith
 0001:00012954       Classes.TRegGroups.Lock
 0001:00012960       Classes.TRegGroups.RegisterClass
 0001:00012978       Classes.TRegGroups.Registered
 0001:000129BC       Classes.TRegGroups.StartGroup
 0001:00012A0C       Classes.TRegGroups.Unlock
 0001:00012A18       Classes.TRegGroups.UnregisterModuleClasses
 0001:00012A68       Classes.TClassFinder.Create
 0001:00012B94       Classes.TClassFinder.Destroy
 0001:00012BC4       Classes.TClassFinder.GetClass
 0001:00012C4C       Classes.GetFieldClassTable
 0001:00012C58       Classes.ClassNotFound
 0001:00012CC4       Classes.GetClass
 0001:00012D18       Classes.FindClass
 0001:00012D38       Classes.RegisterClass
 0001:00012DA8       Classes.UnRegisterModuleClasses
 0001:00012DF4       Classes.StartClassGroup
 0001:00012E40       Classes.GroupDescendentsWith
 0001:00012E94       Classes.ActivateClassGroup
 0001:00012EF0       Classes..TIntConst
 0001:00012F48       Classes.TIntConst.Create
 0001:00012F80       Classes.RegisterIntegerConsts
 0001:00012FAC       Classes.FindIdentToInt
 0001:00013028       Classes.IdentToInt
 0001:00013068       Classes.IntToIdent
 0001:000130AC       Classes.RegisterFindGlobalComponentProc
 0001:000130EC       Classes.UnregisterFindGlobalComponentProc
 0001:00013104       Classes.FindGlobalComponent
 0001:00013144       Classes.IsUniqueGlobalComponentName
 0001:00013168       Classes.InternalReadComponentRes
 0001:000131EC       Classes.BeginGlobalLoading
 0001:00013244       Classes.NotifyGlobalLoading
 0001:00013274       Classes.EndGlobalLoading
 0001:000132D0       Classes.InitComponent
 0001:00013378       Classes.InitInheritedComponent
 0001:00013440       Classes.TList.Destroy
 0001:00013460       Classes.TList.Add
 0001:00013494       Classes.TList.Clear
 0001:000134AC       Classes.TList.Delete
 0001:00013510       Classes.ReturnAddr
 0001:00013514       Classes.TList.Error
 0001:0001354C       Classes.TList.Error
 0001:000135A0       Classes.TList.Expand
 0001:000135B8       Classes.TList.First
 0001:000135C0       Classes.TList.Get
 0001:000135E8       Classes.TList.Grow
 0001:0001361C       Classes.TList.IndexOf
 0001:0001363C       Classes.TList.Insert
 0001:000136A8       Classes.TList.Last
 0001:000136B4       Classes.TList.Put
 0001:00013704       Classes.TList.Remove
 0001:00013724       Classes.TList.SetCapacity
 0001:00013760       Classes.TList.SetCount
 0001:000137D4       Classes.TList.Notify
 0001:000137D8       Classes.TThreadList.Create
 0001:0001382C       Classes.TThreadList.Destroy
 0001:000138A8       Classes.TThreadList.Add
 0001:00013930       Classes.TThreadList.LockList
 0001:00013944       Classes.TThreadList.Remove
 0001:00013994       Classes.TThreadList.UnlockList
 0001:000139A0       Classes.TBits.Destroy
 0001:000139D0       Classes.TBits.Error
 0001:000139E8       Classes.Min
 0001:000139F4       Classes.TBits.SetSize
 0001:00013A98       Classes.TBits.SetBit
 0001:00013AC4       Classes.TBits.OpenBit
 0001:00013B3C       Classes.TPersistent.Destroy
 0001:00013B68       Classes.TPersistent.Assign
 0001:00013B7C       Classes.TPersistent.AssignError
 0001:00013C4C       Classes.TPersistent.AssignTo
 0001:00013C54       Classes.TPersistent.DefineProperties
 0001:00013C58       Classes.TPersistent.GetNamePath
 0001:00013D08       Classes.TPersistent.GetOwner
 0001:00013D0C       Classes.TInterfacedPersistent.AfterConstruction
 0001:00013D5C       Classes.TInterfacedPersistent._AddRef
 0001:00013D7C       Classes.TInterfacedPersistent._Release
 0001:00013D9C       Classes.TInterfacedPersistent.QueryInterface
 0001:00013DC4       Classes.TCollection.Add
 0001:00013DE4       Classes.TCollection.Clear
 0001:00013E4C       Classes.TStrings.Destroy
 0001:00013E7C       Classes.TStrings.Add
 0001:00013EA0       Classes.TStrings.AddObject
 0001:00013EC4       Classes.TStrings.AddStrings
 0001:00013F7C       Classes.TStrings.Assign
 0001:00014034       Classes.TStrings.BeginUpdate
 0001:0001404C       Classes.DoWrite
 0001:000140A4       Classes.TStrings.DefineProperties
 0001:000140F0       Classes.TStrings.EndUpdate
 0001:00014104       Classes.TStrings.Equals
 0001:000141AC       Classes.ReturnAddr
 0001:000141B0       Classes.TStrings.Error
 0001:000141E8       Classes.TStrings.Error
 0001:00014240       Classes.TStrings.Exchange
 0001:0001432C       Classes.TStrings.GetCapacity
 0001:00014334       Classes.TStrings.GetObject
 0001:00014338       Classes.TStrings.GetText
 0001:0001438C       Classes.TStrings.GetTextStr
 0001:000144C4       Classes.TStrings.IndexOf
 0001:00014550       Classes.TStrings.IndexOfName
 0001:00014624       Classes.TStrings.IndexOfObject
 0001:00014658       Classes.TStrings.InsertObject
 0001:00014688       Classes.TStrings.LoadFromFile
 0001:000146DC       Classes.TStrings.LoadFromStream
 0001:00014788       Classes.TStrings.Move
 0001:00014838       Classes.TStrings.Put
 0001:00014868       Classes.TStrings.PutObject
 0001:0001486C       Classes.TStrings.ReadData
 0001:0001491C       Classes.TStrings.SaveToFile
 0001:00014974       Classes.TStrings.SaveToStream
 0001:000149D4       Classes.TStrings.SetCapacity
 0001:000149D8       Classes.TStrings.SetStringsAdapter
 0001:00014A0C       Classes.TStrings.SetText
 0001:00014A5C       Classes.TStrings.SetTextStr
 0001:00014C00       Classes.TStrings.SetUpdateState
 0001:00014C04       Classes.TStrings.WriteData
 0001:00014C88       Classes.TStrings.GetLineBreak
 0001:00014CBC       Classes.TStrings.SetLineBreak
 0001:00014CE8       Classes.TStrings.CompareStrings
 0001:00014D2C       Classes.TStrings.GetNameValueSeparator
 0001:00014D44       Classes.TStrings.SetNameValueSeparator
 0001:00014D60       Classes.TStringList.Destroy
 0001:00014DBC       Classes.TStringList.Add
 0001:00014DCC       Classes.TStringList.AddObject
 0001:00014E30       Classes.TStringList.Changed
 0001:00014E4C       Classes.TStringList.Changing
 0001:00014E68       Classes.TStringList.Clear
 0001:00014EA8       Classes.TStringList.Delete
 0001:00014F14       Classes.TStringList.Exchange
 0001:00014F70       Classes.TStringList.ExchangeItems
 0001:00014F94       Classes.TStringList.Find
 0001:00015018       Classes.TStringList.Get
 0001:0001504C       Classes.TStringList.GetCapacity
 0001:00015050       Classes.TStringList.GetCount
 0001:00015054       Classes.TStringList.GetObject
 0001:0001507C       Classes.TStringList.Grow
 0001:000150B0       Classes.TStringList.IndexOf
 0001:000150EC       Classes.TStringList.Insert
 0001:000150FC       Classes.TStringList.InsertObject
 0001:00015150       Classes.TStringList.InsertItem
 0001:000151CC       Classes.TStringList.Put
 0001:00015228       Classes.TStringList.PutObject
 0001:00015268       Classes.TStringList.QuickSort
 0001:000152FC       Classes.TStringList.SetCapacity
 0001:00015318       Classes.TStringList.SetSorted
 0001:00015338       Classes.TStringList.SetUpdateState
 0001:00015350       Classes.StringListCompareStrings
 0001:00015370       Classes.TStringList.Sort
 0001:00015380       Classes.TStringList.CustomSort
 0001:000153B8       Classes.TStringList.CompareStrings
 0001:0001543C       Classes.TStream.GetPosition
 0001:0001545C       Classes.TStream.SetPosition
 0001:00015470       Classes.TStream.GetSize
 0001:000154BC       Classes.TStream.SetSize
 0001:000154C0       Classes.TStream.SetSize64
 0001:000154D4       Classes.TStream.SetSize
 0001:00015528       Classes.RaiseException
 0001:00015574       Classes.TStream.Seek
 0001:000155F8       Classes.TStream.Seek
 0001:00015668       Classes.TStream.ReadBuffer
 0001:000156A0       Classes.TStream.WriteBuffer
 0001:000156D8       Classes.TStream.CopyFrom
 0001:000157CC       Classes.TStream.ReadComponent
 0001:0001582C       Classes.THandleStream.Create
 0001:00015868       Classes.THandleStream.Read
 0001:00015878       Classes.THandleStream.Write
 0001:00015888       Classes.THandleStream.Seek
 0001:000158B4       Classes.THandleStream.SetSize
 0001:000158C8       Classes.THandleStream.SetSize
 0001:000158F0       Classes.TFileStream.Create
 0001:00015934       Classes.TFileStream.Create
 0001:00015AA8       Classes.TFileStream.Destroy
 0001:00015ADC       Classes.TCustomMemoryStream.SetPointer
 0001:00015AE4       Classes.TCustomMemoryStream.Read
 0001:00015B1C       Classes.TCustomMemoryStream.Seek
 0001:00015B40       Classes.TMemoryStream.Destroy
 0001:00015B6C       Classes.TMemoryStream.Clear
 0001:00015B84       Classes.TMemoryStream.LoadFromStream
 0001:00015BBC       Classes.TMemoryStream.SetCapacity
 0001:00015BE4       Classes.TMemoryStream.SetSize
 0001:00015C10       Classes.TMemoryStream.Realloc
 0001:00015C90       Classes.TMemoryStream.Write
 0001:00015CE0       Classes.TResourceStream.Create
 0001:00015D38       Classes.Error
 0001:00015DD8       Classes.TResourceStream.Initialize
 0001:00015E44       Classes.TResourceStream.Destroy
 0001:00015E74       Classes.TResourceStream.Write
 0001:00015E8C       Classes.TFiler.Create
 0001:00015ED4       Classes.TFiler.Destroy
 0001:00015EFC       Classes.TFiler.SetRoot
 0001:00015F00       Classes..TPropFixup
 0001:00015F78       Classes..TPropIntfFixup
 0001:00015FD8       Classes.TPropFixup.Create
 0001:00016030       Classes.TPropFixup.MakeGlobalReference
 0001:00016078       Classes.TPropFixup.ResolveReference
 0001:00016088       Classes.TPropIntfFixup.ResolveReference
 0001:0001610C       Classes.FindNestedComponent
 0001:000161D8       Classes.AddFinished
 0001:00016210       Classes.AddNotFinished
 0001:00016258       Classes.GlobalFixupReferences
 0001:00016424       Classes.RemoveFixupReferences
 0001:000164D0       Classes.RemoveFixups
 0001:00016554       Classes.ReadError
 0001:0001656C       Classes.PropValueError
 0001:00016578       Classes.PropertyNotFound
 0001:000165A4       Classes.SetElementValue
 0001:000165BC       Classes.TReader.Destroy
 0001:000165F8       Classes.TReader.CheckValue
 0001:0001661C       Classes.TReader.DefineProperty
 0001:00016658       Classes.TReader.DefineBinaryProperty
 0001:00016740       Classes.TReader.EndOfList
 0001:00016754       Classes.TReader.Error
 0001:00016778       Classes.TReader.FindMethodInstance
 0001:00016800       Classes.TReader.FindMethod
 0001:00016868       Classes.RemoveGlobalFixup
 0001:000168E4       Classes.TReader.DoFixupReferences
 0001:00016A28       Classes.TReader.FlushBuffer
 0001:00016A4C       Classes.TReader.FreeFixups
 0001:00016A88       Classes.TReader.GetFieldClass
 0001:00016B20       Classes.TReader.GetPosition
 0001:00016B38       Classes.TReader.NextValue
 0001:00016B48       Classes.TReader.PropertyError
 0001:00016B5C       Classes.TReader.Read
 0001:00016BA8       Classes.TReader.ReadBuffer
 0001:00016BE4       Classes.TReader.ReadBoolean
 0001:00016BF8       Classes.TReader.ReadChar
 0001:00016C58       Classes.TReader.ReadWideChar
 0001:00016CB4       Classes.TReader.ReadCollection
 0001:00016D84       Classes.AddSubComponentsToLoaded
 0001:00016DC0       Classes.CheckSubComponents
 0001:00016E38       Classes.SetSubComponentState
 0001:00016EA0       Classes.ComponentCreated
 0001:00016EC0       Classes.Recover
 0001:00016F20       Classes.CreateComponent
 0001:00017030       Classes.SetCompName
 0001:000170D0       Classes.FindExistingComponent
 0001:00017174       Classes.TReader.ReadComponent
 0001:000173B4       Classes.TReader.ReadData
 0001:00017424       Classes.TReader.ReadDataInner
 0001:000174F4       Classes.TReader.ReadFloat
 0001:0001752C       Classes.TReader.ReadDouble
 0001:00017570       Classes.TReader.ReadSingle
 0001:000175B4       Classes.TReader.ReadCurrency
 0001:00017604       Classes.TReader.ReadDate
 0001:00017648       Classes.TReader.ReadIdent
 0001:00017744       Classes.TReader.ReadInteger
 0001:000177B0       Classes.TReader.ReadInt64
 0001:000177F4       Classes.TReader.ReadListBegin
 0001:000177FC       Classes.TReader.ReadListEnd
 0001:00017804       Classes.TReader.ReadPrefix
 0001:00017844       Classes.HandleException
 0001:00017944       Classes.PropPathError
 0001:00017960       Classes.TReader.ReadProperty
 0001:00017B64       Classes.SetIntIdent
 0001:00017BAC       Classes.SetObjectIdent
 0001:00017BEC       Classes.SetVariantReference
 0001:00017C48       Classes.SetInterfaceReference
 0001:00017D08       Classes.TReader.ReadPropValue
 0001:00018020       Classes.FindUniqueName
 0001:00018080       Classes.TReader.ReadRootComponent
 0001:000183B4       Classes.TReader.ReadSet
 0001:00018470       Classes.TReader.ReadSignature
 0001:00018494       Classes.TReader.ReadStr
 0001:000184D0       Classes.TReader.ReadString
 0001:0001858C       Classes.TReader.ReadWideString
 0001:00018670       Classes.TReader.ReadValue
 0001:00018684       Classes.TReader.SkipSetBody
 0001:000186CC       Classes.SkipList
 0001:000186F4       Classes.SkipBinary
 0001:00018724       Classes.SkipCollection
 0001:00018780       Classes.TReader.SkipValue
 0001:00018930       Classes.TReader.SkipProperty
 0001:00018978       Classes.TReader.SkipComponent
 0001:00018A20       Classes.TReader.FindAncestorComponent
 0001:00018AD8       Classes.TReader.ReferenceName
 0001:00018AF0       Classes.TReader.SetName
 0001:00018B18       Classes.TReader.FindComponentClass
 0001:00018B8C       Classes.TReader.SkipBytes
 0001:00018BD4       Classes.ReadCustomVariant
 0001:00018D9C       Classes.TReader.ReadVariant
 0001:00018FBC       Classes.TWriter.Write
 0001:00019008       Classes.TWriter.WriteBuffer
 0001:00019020       Classes.TWriter.WriteBoolean
 0001:00019034       Classes.TWriter.WriteInteger
 0001:000190A8       Classes.TWriter.WriteListBegin
 0001:000190B0       Classes.TWriter.WriteListEnd
 0001:000190B8       Classes.TWriter.WriteMinStr
 0001:00019164       Classes.TWriter.WriteString
 0001:000191B8       Classes.TWriter.WriteValue
 0001:000191CC       Classes.InitThreadSynchronization
 0001:00019200       Classes.DoneThreadSynchronization
 0001:00019218       Classes.ResetSyncEvent
 0001:00019224       Classes.WaitForSyncEvent
 0001:00019240       Classes.CheckSynchronize
 0001:00019418       Classes.TComponent.Create
 0001:00019464       Classes.TComponent.Destroy
 0001:000194E0       Classes.TComponent.BeforeDestruction
 0001:000194EC       Classes.TComponent.FreeNotification
 0001:0001961C       Classes.TComponent.ReadLeft
 0001:00019630       Classes.TComponent.ReadTop
 0001:00019644       Classes.TComponent.WriteLeft
 0001:00019650       Classes.TComponent.WriteTop
 0001:0001965C       Classes.TComponent.Insert
 0001:00019688       Classes.TComponent.Remove
 0001:000196B0       Classes.TComponent.InsertComponent
 0001:00019714       Classes.TComponent.RemoveComponent
 0001:0001974C       Classes.TComponent.DestroyComponents
 0001:000197A8       Classes.TComponent.Destroying
 0001:000197E4       Classes.TComponent.RemoveNotification
 0001:00019808       Classes.TComponent.RemoveFreeNotification
 0001:00019824       Classes.TComponent.Notification
 0001:00019884       Classes.TComponent.DefineProperties
 0001:0001990C       Classes.TComponent.HasParent
 0001:00019910       Classes.TComponent.GetChildren
 0001:00019918       Classes.TComponent.GetChildOwner
 0001:0001991C       Classes.TComponent.GetChildParent
 0001:00019920       Classes.TComponent.GetNamePath
 0001:00019934       Classes.TComponent.GetOwner
 0001:00019938       Classes.TComponent.SetChildOrder
 0001:0001993C       Classes.TComponent.GetParentComponent
 0001:00019940       Classes.TComponent.SetParentComponent
 0001:00019944       Classes.TComponent.Updating
 0001:00019950       Classes.TComponent.Updated
 0001:0001995C       Classes.TComponent.Loaded
 0001:00019968       Classes.TComponent.PaletteCreated
 0001:0001996C       Classes.TComponent.ReadState
 0001:00019974       Classes.TComponent.WriteState
 0001:0001997C       Classes.TComponent.ValidateRename
 0001:000199FC       Classes.TComponent.ValidateContainer
 0001:00019A10       Classes.TComponent.ValidateInsert
 0001:00019A14       Classes.TComponent.FindComponent
 0001:00019A64       Classes.TComponent.SetName
 0001:00019AF4       Classes.TComponent.ChangeName
 0001:00019B08       Classes.TComponent.GetComponent
 0001:00019B34       Classes.TComponent.GetComponentCount
 0001:00019B44       Classes.TComponent.SetComponentIndex
 0001:00019B98       Classes.TComponent.SetDesigning
 0001:00019BE8       Classes.TComponent.SetReference
 0001:00019C30       Classes.TComponent.ExecuteAction
 0001:00019C58       Classes.TComponent.UpdateAction
 0001:00019C80       Classes.TComponent.SafeCallException
 0001:00019C98       Classes.TComponent.UpdateRegistry
 0001:00019CA0       Classes.TComponent.QueryInterface
 0001:00019CE0       Classes.TComponent._AddRef
 0001:00019D00       Classes.TComponent._Release
 0001:00019D20       Classes.TComponent.IntfGetComponent
 0001:00019D24       Classes.TBasicActionLink.Create
 0001:00019D68       Classes.TBasicActionLink.AssignClient
 0001:00019D6C       Classes.TBasicActionLink.Destroy
 0001:00019DA0       Classes.TBasicActionLink.Change
 0001:00019DB8       Classes.TBasicActionLink.Execute
 0001:00019DD4       Classes.TBasicActionLink.SetAction
 0001:00019E00       Classes.TBasicActionLink.IsOnExecuteLinked
 0001:00019E04       Classes.TBasicActionLink.SetOnExecute
 0001:00019E0C       Classes.TBasicActionLink.Update
 0001:00019E18       Classes.TBasicAction.Create
 0001:00019E5C       Classes.TBasicAction.Destroy
 0001:00019EBC       Classes.TBasicAction.HandlesTarget
 0001:00019EC0       Classes.TBasicAction.ExecuteTarget
 0001:00019EC4       Classes.TBasicAction.Notification
 0001:00019EEC       Classes.TBasicAction.UpdateTarget
 0001:00019EF0       Classes.TBasicAction.Execute
 0001:00019F0C       Classes.TBasicAction.Update
 0001:00019F28       Classes.TBasicAction.SetOnExecute
 0001:00019F84       Classes.TBasicAction.Change
 0001:00019F98       Classes.TBasicAction.RegisterChanges
 0001:00019FA4       Classes.TBasicAction.UnRegisterChanges
 0001:00019FE4       Classes.TBasicAction.SetActionComponent
 0001:0001A010       Classes.TStreamAdapter.Create
 0001:0001A05C       Classes.TStreamAdapter.Destroy
 0001:0001A094       Classes.TStreamAdapter.Read
 0001:0001A0FC       Classes.TStreamAdapter.Write
 0001:0001A164       Classes.TStreamAdapter.Seek
 0001:0001A1E8       Classes.TStreamAdapter.SetSize
 0001:0001A24C       Classes.TStreamAdapter.CopyTo
 0001:0001A454       Classes.TStreamAdapter.Commit
 0001:0001A460       Classes.TStreamAdapter.Revert
 0001:0001A46C       Classes.TStreamAdapter.LockRegion
 0001:0001A478       Classes.TStreamAdapter.UnlockRegion
 0001:0001A484       Classes.TStreamAdapter.Stat
 0001:0001A500       Classes.TStreamAdapter.Clone
 0001:0001A518       Classes.FreeIntConstList
 0001:0001A584       Classes.ModuleUnload
 0001:0001A58C       Classes.StdWndProc
 0001:0001A5AC       Classes.CalcJmpOffset
 0001:0001A5B4       Classes.MakeObjectInstance
 0001:0001A64C       Classes.FreeObjectInstance
 0001:0001A670       Classes.AllocateHWnd
 0001:0001A724       Classes.DeallocateHWnd
 0001:0001A74C       Classes.Finalization
 0001:0001A814       IniFiles.Finalization
 0001:0001A85C       Registry..ERegistryException
 0001:0001A8BC       Registry..TRegistry
 0001:0001A924       Registry.ReadError
 0001:0001A950       Registry.IsRelative
 0001:0001A964       Registry.DataTypeToRegData
 0001:0001A98C       Registry.TRegistry.Create
 0001:0001A9D0       Registry.TRegistry.Destroy
 0001:0001A9FC       Registry.TRegistry.CloseKey
 0001:0001AA2C       Registry.TRegistry.SetRootKey
 0001:0001AA58       Registry.TRegistry.ChangeKey
 0001:0001AA7C       Registry.TRegistry.GetBaseKey
 0001:0001AA90       Registry.TRegistry.OpenKeyReadOnly
 0001:0001AC48       Registry.TRegistry.GetDataInfo
 0001:0001AC98       Registry.TRegistry.GetDataSize
 0001:0001ACC0       Registry.TRegistry.ReadString
 0001:0001AD38       Registry.TRegistry.GetData
 0001:0001ADC4       Registry.Finalization
 0001:0001B034       Graphics..EInvalidGraphic
 0001:0001B090       Graphics..EInvalidGraphicOperation
 0001:0001B388       Graphics..TGraphicsObject
 0001:0001B45C       Graphics..TFont
 0001:0001B5FC       Graphics..TPen
 0001:0001B6FC       Graphics..TBrush
 0001:0001B7C0       Graphics..TCanvas
 0001:0001B944       Graphics..TGraphic
 0001:0001BA30       Graphics..TSharedImage
 0001:0001BA90       Graphics..TBitmapImage
 0001:0001BAF0       Graphics..TBitmap
 0001:0001BBDC       Graphics..TIconImage
 0001:0001BC38       Graphics..TIcon
 0001:0001BD14       Graphics.InternalDeletePalette
 0001:0001BD28       Graphics..TResourceManager
 0001:0001BD90       Graphics..TBrushResourceManager
 0001:0001BDFC       Graphics.GetHashCode
 0001:0001BE10       Graphics.TResourceManager.Create
 0001:0001BE4C       Graphics.TResourceManager.Destroy
 0001:0001BE70       Graphics.TResourceManager.Lock
 0001:0001BE7C       Graphics.TResourceManager.Unlock
 0001:0001BE88       Graphics.TResourceManager.AllocResource
 0001:0001BF6C       Graphics.TResourceManager.FreeResource
 0001:0001C030       Graphics.TResourceManager.ChangeResource
 0001:0001C0A8       Graphics.TResourceManager.FreeObjects
 0001:0001C0AC       Graphics.TResourceManager.AssignResource
 0001:0001C118       Graphics.TBrushResourceManager.FreeObjects
 0001:0001C128       Graphics.ClearColor
 0001:0001C198       Graphics.PaletteChanged
 0001:0001C684       Graphics.ColorToRGB
 0001:0001C694       Graphics.ColorToIdent
 0001:0001C6A4       Graphics.IdentToColor
 0001:0001C6B4       Graphics.TGraphicsObject.Changed
 0001:0001C6C8       Graphics.TGraphicsObject.Lock
 0001:0001C6D8       Graphics.TGraphicsObject.Unlock
 0001:0001C89C       Graphics.CharsetToIdent
 0001:0001C8AC       Graphics.IdentToCharset
 0001:0001C8BC       Graphics.GetFontData
 0001:0001C97C       Graphics.TFont.Create
 0001:0001C9D0       Graphics.TFont.Destroy
 0001:0001C9F8       Graphics.TFont.Changed
 0001:0001CA14       Graphics.TFont.Assign
 0001:0001CAE8       Graphics.TFont.GetData
 0001:0001CB00       Graphics.TFont.SetData
 0001:0001CB50       Graphics.TFont.SetColor
 0001:0001CB64       Graphics.IsDefaultFont
 0001:0001CB90       Graphics.TFont.GetHandle
 0001:0001CDCC       Graphics.TFont.SetHandle
 0001:0001CDF0       Graphics.TFont.GetHeight
 0001:0001CDF8       Graphics.TFont.SetHeight
 0001:0001CE20       Graphics.TFont.GetName
 0001:0001CE38       Graphics.TFont.SetName
 0001:0001CE94       Graphics.TFont.GetSize
 0001:0001CEB0       Graphics.TFont.SetSize
 0001:0001CED0       Graphics.TFont.GetStyle
 0001:0001CEDC       Graphics.TFont.SetStyle
 0001:0001CF08       Graphics.TFont.GetPitch
 0001:0001CF10       Graphics.TFont.SetPitch
 0001:0001CF38       Graphics.TFont.GetCharset
 0001:0001CF40       Graphics.TFont.SetCharset
 0001:0001CF68       Graphics.TFont.GetOrientation
 0001:0001CF70       Graphics.TFont.SetOrientation
 0001:0001CF98       Graphics.TPen.Create
 0001:0001CFDC       Graphics.TPen.Destroy
 0001:0001D004       Graphics.TPen.Assign
 0001:0001D0BC       Graphics.TPen.GetData
 0001:0001D0D4       Graphics.TPen.SetData
 0001:0001D124       Graphics.TPen.GetColor
 0001:0001D12C       Graphics.TPen.SetColor
 0001:0001D154       Graphics.TPen.GetHandle
 0001:0001D1EC       Graphics.TPen.SetMode
 0001:0001D200       Graphics.TPen.GetStyle
 0001:0001D208       Graphics.TPen.SetStyle
 0001:0001D230       Graphics.TPen.GetWidth
 0001:0001D238       Graphics.TPen.SetWidth
 0001:0001D264       Graphics.TBrush.Create
 0001:0001D2A4       Graphics.TBrush.Destroy
 0001:0001D2CC       Graphics.TBrush.Assign
 0001:0001D374       Graphics.TBrush.GetData
 0001:0001D390       Graphics.TBrush.SetData
 0001:0001D3E0       Graphics.TBrush.SetBitmap
 0001:0001D404       Graphics.TBrush.GetColor
 0001:0001D40C       Graphics.TBrush.SetColor
 0001:0001D440       Graphics.TBrush.GetHandle
 0001:0001D520       Graphics.TBrush.GetStyle
 0001:0001D528       Graphics.TBrush.SetStyle
 0001:0001D55C       Graphics.TCanvas.Create
 0001:0001D620       Graphics.TCanvas.Destroy
 0001:0001D67C       Graphics.TCanvas.CopyRect
 0001:0001D704       Graphics.TCanvas.Draw
 0001:0001D7B0       Graphics.TCanvas.FillRect
 0001:0001D7EC       Graphics.TCanvas.LineTo
 0001:0001D824       Graphics.TCanvas.Lock
 0001:0001D84C       Graphics.TCanvas.MoveTo
 0001:0001D878       Graphics.TCanvas.StretchDraw
 0001:0001D8B4       Graphics.TCanvas.TextExtent
 0001:0001D8FC       Graphics.TCanvas.TextWidth
 0001:0001D918       Graphics.TCanvas.TextHeight
 0001:0001D938       Graphics.TCanvas.TryLock
 0001:0001D994       Graphics.TCanvas.Unlock
 0001:0001D9BC       Graphics.TCanvas.SetFont
 0001:0001D9CC       Graphics.TCanvas.SetPen
 0001:0001D9D8       Graphics.TCanvas.SetBrush
 0001:0001D9E4       Graphics.TCanvas.GetPenPos
 0001:0001DA0C       Graphics.TCanvas.SetPenPos
 0001:0001DA2C       Graphics.TCanvas.GetPixel
 0001:0001DA58       Graphics.TCanvas.SetPixel
 0001:0001DAA0       Graphics.TCanvas.GetHandle
 0001:0001DAC4       Graphics.TCanvas.DeselectHandles
 0001:0001DB24       Graphics.TCanvas.CreateHandle
 0001:0001DB28       Graphics.TCanvas.SetHandle
 0001:0001DB7C       Graphics.TCanvas.RequiredState
 0001:0001DBF4       Graphics.TCanvas.Changing
 0001:0001DC08       Graphics.TCanvas.Changed
 0001:0001DC1C       Graphics.TCanvas.CreateFont
 0001:0001DC48       Graphics.TCanvas.CreatePen
 0001:0001DC78       Graphics.TCanvas.CreateBrush
 0001:0001DCF4       Graphics.TCanvas.FontChanged
 0001:0001DD14       Graphics.TCanvas.PenChanged
 0001:0001DD34       Graphics.TCanvas.BrushChanged
 0001:0001DD54       Graphics.InvalidOperation
 0001:0001DD6C       Graphics.InvalidGraphic
 0001:0001DD84       Graphics.InvalidBitmap
 0001:0001DD90       Graphics.InvalidIcon
 0001:0001DD9C       Graphics.OutOfResources
 0001:0001DDF0       Graphics.GDIError
 0001:0001DE98       Graphics.GDICheck
 0001:0001DEA8       Graphics.DupBits
 0001:0001E008       Graphics.GetDInColors
 0001:0001E028       Graphics.BytesPerScanline
 0001:0001E048       Graphics.TransparentStretchBlt
 0001:0001E2D4       Graphics.RGBTripleToQuad
 0001:0001E310       Graphics.RGBQuadToTriple
 0001:0001E38C       Graphics.ByteSwapColors
 0001:0001E3E0       Graphics.CreateSystemPalette
 0001:0001E4F8       Graphics.SystemPaletteOverride
 0001:0001E590       Graphics.PaletteFromDIBColorTable
 0001:0001E634       Graphics.PaletteToDIBColorTable
 0001:0001E688       Graphics.TwoBitsFromDIB
 0001:0001E848       Graphics.AdjustColor
 0001:0001E854       Graphics.BetterSize
 0001:0001E8E4       Graphics.ReadIcon
 0001:0001EBF0       Graphics.InitializeBitmapInfoHeader
 0001:0001ECD4       Graphics.InternalGetDIBSizes
 0001:0001ED3C       Graphics.GetDIBSizes
 0001:0001ED44       Graphics.InternalGetDIB
 0001:0001EDF8       Graphics.GetDIB
 0001:0001EE0C       Graphics.WinError
 0001:0001EE10       Graphics.CheckBool
 0001:0001EE1C       Graphics.WriteIcon
 0001:0001F01C       Graphics.TGraphic.Create
 0001:0001F054       Graphics.TGraphic.Changed
 0001:0001F06C       Graphics.DoWrite
 0001:0001F0C4       Graphics.TGraphic.DefineProperties
 0001:0001F110       Graphics.TGraphic.Equals
 0001:0001F25C       Graphics.TGraphic.GetPalette
 0001:0001F260       Graphics.TGraphic.GetTransparent
 0001:0001F268       Graphics.TGraphic.LoadFromFile
 0001:0001F2BC       Graphics.TGraphic.Progress
 0001:0001F2E8       Graphics.TGraphic.ReadData
 0001:0001F2F4       Graphics.TGraphic.SaveToFile
 0001:0001F34C       Graphics.TGraphic.SetPalette
 0001:0001F350       Graphics.TGraphic.SetSize
 0001:0001F36C       Graphics.TGraphic.SetTransparent
 0001:0001F37C       Graphics.TGraphic.WriteData
 0001:0001F388       Graphics..TBitmapCanvas
 0001:0001F424       Graphics.FreeMemoryContexts
 0001:0001F4D0       Graphics.DeselectBitmap
 0001:0001F54C       Graphics.TBitmapCanvas.Create
 0001:0001F588       Graphics.TBitmapCanvas.Destroy
 0001:0001F5B4       Graphics.TBitmapCanvas.FreeContext
 0001:0001F654       Graphics.TBitmapCanvas.CreateHandle
 0001:0001F740       Graphics.TSharedImage.Reference
 0001:0001F744       Graphics.TSharedImage.Release
 0001:0001F764       Graphics.TBitmapImage.Destroy
 0001:0001F7C0       Graphics.TBitmapImage.FreeHandle
 0001:0001F80C       Graphics.UpdateDIBColorTable
 0001:0001F8C8       Graphics.FixupBitFields
 0001:0001F914       Graphics.CopyBitmap
 0001:0001FF78       Graphics.CopyPalette
 0001:0001FFDC       Graphics.CopyBitmapAsMask
 0001:000201E8       Graphics.TBitmap.Create
 0001:00020250       Graphics.TBitmap.Destroy
 0001:0002028C       Graphics.TBitmap.Assign
 0001:00020388       Graphics.TBitmap.CopyImage
 0001:00020448       Graphics.TBitmap.Changing
 0001:0002046C       Graphics.TBitmap.Changed
 0001:00020478       Graphics.TBitmap.Dormant
 0001:000204EC       Graphics.TBitmap.Draw
 0001:0002073C       Graphics.TBitmap.FreeImage
 0001:000207A0       Graphics.TBitmap.GetEmpty
 0001:000207BC       Graphics.TBitmap.GetCanvas
 0001:00020804       Graphics.TBitmap.GetHandle
 0001:00020828       Graphics.TBitmap.GetHandleType
 0001:00020854       Graphics.TBitmap.GetHeight
 0001:00020864       Graphics.TBitmap.GetMaskHandle
 0001:00020878       Graphics.TBitmap.GetMonochrome
 0001:00020894       Graphics.TBitmap.GetPalette
 0001:000208A8       Graphics.TBitmap.GetTransparentColor
 0001:000208F0       Graphics.TBitmap.GetWidth
 0001:000208F8       Graphics.TBitmap.DIBNeeded
 0001:0002096C       Graphics.TBitmap.FreeContext
 0001:0002097C       Graphics.TBitmap.HandleNeeded
 0001:00020A1C       Graphics.TBitmap.MaskHandleNeeded
 0001:00020A7C       Graphics.TBitmap.PaletteNeeded
 0001:00020B34       Graphics.TBitmap.LoadFromClipboardFormat
 0001:00020BB8       Graphics.TBitmap.LoadFromStream
 0001:00020BDC       Graphics.TBitmap.NewImage
 0001:00020CDC       Graphics.TBitmap.ReadData
 0001:00020D04       Graphics.TBitmap.ReadDIB
 0001:00021274       Graphics.TBitmap.ReadStream
 0001:000212E4       Graphics.TBitmap.SetHandle
 0001:000213A8       Graphics.TBitmap.SetHandleType
 0001:000214E4       Graphics.TBitmap.SetHeight
 0001:00021500       Graphics.TBitmap.SetMonochrome
 0001:0002157C       Graphics.TBitmap.SetPalette
 0001:00021650       Graphics.TBitmap.SetWidth
 0001:0002166C       Graphics.TBitmap.WriteData
 0001:00021674       Graphics.TBitmap.WriteStream
 0001:0002192C       Graphics.TBitmap.SaveToStream
 0001:00021934       Graphics.TBitmap.SaveToClipboardFormat
 0001:000219D4       Graphics.TBitmap.SetSize
 0001:00021A38       Graphics.TIconImage.Destroy
 0001:00021A68       Graphics.TIconImage.FreeHandle
 0001:00021A80       Graphics.TIcon.Create
 0001:00021AD4       Graphics.TIcon.Destroy
 0001:00021B04       Graphics.TIcon.Assign
 0001:00021B64       Graphics.TIcon.Draw
 0001:00021BA8       Graphics.TIcon.GetEmpty
 0001:00021BC0       Graphics.TIcon.GetHandle
 0001:00021BD4       Graphics.TIcon.GetHeight
 0001:00021BE8       Graphics.TIcon.GetWidth
 0001:00021BFC       Graphics.TIcon.HandleNeeded
 0001:00021C74       Graphics.TIcon.ImageNeeded
 0001:00021D28       Graphics.TIcon.LoadFromStream
 0001:00021DE0       Graphics.TIcon.NewImage
 0001:00021E54       Graphics.TIcon.SetHandle
 0001:00021E6C       Graphics.TIcon.SetHeight
 0001:00021E84       Graphics.TIcon.SetSize
 0001:00021EA4       Graphics.TIcon.SetTransparent
 0001:00021EA8       Graphics.TIcon.SetWidth
 0001:00021EC0       Graphics.TIcon.SaveToStream
 0001:00021EE8       Graphics.TIcon.LoadFromClipboardFormat
 0001:00021EFC       Graphics.TIcon.SaveToClipboardFormat
 0001:00021F10       Graphics.InitScreenLogPixels
 0001:00021F48       Graphics.GetDefFontCharSet
 0001:00021F8C       Graphics.InitDefFontData
 0001:0002210C       Graphics..TPatternManager
 0001:00022168       Graphics.TPatternManager.Create
 0001:000221A0       Graphics.TPatternManager.Destroy
 0001:000221CC       Graphics.TPatternManager.Lock
 0001:000221D8       Graphics.TPatternManager.Unlock
 0001:000221E4       Graphics.TPatternManager.AllocPattern
 0001:00022298       Graphics.TPatternManager.CreateBitmap
 0001:00022398       Graphics.TPatternManager.FreePatterns
 0001:00022418       Graphics.AllocPatternBitmap
 0001:00022450       Graphics.Finalization
 0001:00022524       Contnrs..TObjectList
 0001:0002258C       Contnrs..TOrderedList
 0001:000225F4       Contnrs..TStack
 0001:00022654       Contnrs.TObjectList.Create
 0001:00022690       Contnrs.TObjectList.GetItem
 0001:000226A4       Contnrs.TObjectList.Notify
 0001:000226D0       Contnrs.TOrderedList.Pop
 0001:000226D8       Contnrs.TOrderedList.Push
 0001:000226E8       Contnrs.TOrderedList.Create
 0001:0002272C       Contnrs.TOrderedList.Destroy
 0001:0002275C       Contnrs.TOrderedList.PeekItem
 0001:00022770       Contnrs.TOrderedList.PopItem
 0001:00022790       Contnrs.TStack.PushItem
 0001:0002279C       CommCtrl.ImageList_Create
 0001:000227A4       CommCtrl.ImageList_Destroy
 0001:000227AC       CommCtrl.ImageList_GetImageCount
 0001:000227B4       CommCtrl.ImageList_Add
 0001:000227BC       CommCtrl.ImageList_SetBkColor
 0001:000227C4       CommCtrl.ImageList_GetBkColor
 0001:000227CC       CommCtrl.ImageList_Draw
 0001:000227D4       CommCtrl.ImageList_DrawEx
 0001:000227DC       CommCtrl.ImageList_Remove
 0001:000227E4       CommCtrl.ImageList_BeginDrag
 0001:000227EC       CommCtrl.ImageList_EndDrag
 0001:000227F4       CommCtrl.ImageList_DragEnter
 0001:000227FC       CommCtrl.ImageList_DragLeave
 0001:00022804       CommCtrl.ImageList_DragMove
 0001:0002280C       CommCtrl.ImageList_DragShowNolock
 0001:00022814       CommCtrl.ImageList_Read
 0001:0002281C       CommCtrl.ImageList_Write
 0001:00022824       CommCtrl.ImageList_GetIconSize
 0001:0002282C       CommCtrl.ImageList_SetIconSize
 0001:00022834       CommCtrl._TrackMouseEvent
 0001:0002283C       MultiMon.InitAnApi
 0001:00022920       MultiMon._GetSystemMetrics
 0001:000229A8       MultiMon.xMonitorFromRect
 0001:00022A38       MultiMon.xMonitorFromWindow
 0001:00022AD0       MultiMon.xMonitorFromPoint
 0001:00022B68       MultiMon.xGetMonitorInfo
 0001:00022C3C       MultiMon.xGetMonitorInfoA
 0001:00022D10       MultiMon.xGetMonitorInfoW
 0001:00022DE4       MultiMon.xEnumDisplayMonitors
 0001:00022F14       MultiMon.InitMultiMonStubs
 0001:00022F80       MultiMon.Finalization
 0001:000230D4       HelpIntfs..EHelpSystemException
 0001:00023260       HelpIntfs..THelpManager
 0001:000232FC       HelpIntfs.EnsureHelpManager
 0001:00023318       HelpIntfs.GetHelpSystem
 0001:00023360       HelpIntfs.THelpManager.Create
 0001:000233D4       HelpIntfs.THelpManager.UnloadAllViewers
 0001:00023414       HelpIntfs.THelpManager.DoSoftShutDown
 0001:00023444       HelpIntfs.THelpManager.DoTableOfContents
 0001:000235E4       HelpIntfs.THelpManager.CallSpecialWinHelp
 0001:000236EC       HelpIntfs.THelpManager.ShowHelp
 0001:00023920       HelpIntfs.DefaultContextHelp
 0001:000239B4       HelpIntfs.THelpManager.ShowContextHelp
 0001:00023C5C       HelpIntfs.THelpManager.ShowTableOfContents
 0001:00023C64       HelpIntfs.THelpManager.ShowTopicHelp
 0001:00023D44       HelpIntfs.THelpManager.AssignHelpSelector
 0001:00023DA0       HelpIntfs.THelpManager.Hook
 0001:00023E5C       HelpIntfs.THelpManager.UnderstandsKeyword
 0001:00023F68       HelpIntfs.THelpManager.GetHandle
 0001:00023F6C       HelpIntfs.THelpManager.GetHelpFile
 0001:00023F80       HelpIntfs.THelpManager.Release
 0001:0002400C       HelpIntfs.THelpManager.Destroy
 0001:00024070       HelpIntfs.Finalization
 0001:000240B0       Printers.Finalization
 0001:000240EC       FlatSB.FlatSB_SetScrollProp
 0001:00024120       FlatSB.InitializeFlatSB
 0001:00024148       FlatSB.InitFlatSB
 0001:000243CC       FlatSB.Finalization
 0001:000243FC       SyncObjs..TSynchroObject
 0001:00024460       SyncObjs..TCriticalSection
 0001:000244C8       SyncObjs.TSynchroObject.Acquire
 0001:000244CC       SyncObjs.TSynchroObject.Release
 0001:000244D0       SyncObjs.TCriticalSection.Create
 0001:00024510       SyncObjs.TCriticalSection.Destroy
 0001:00024540       SyncObjs.TCriticalSection.Acquire
 0001:0002454C       SyncObjs.TCriticalSection.Release
 0001:00024558       SyncObjs.TCriticalSection.Enter
 0001:00024560       SyncObjs.TCriticalSection.Leave
 0001:00024568       UxTheme.FreeThemeLibrary
 0001:00024728       UxTheme.InitThemeLibrary
 0001:00024E8C       UxTheme.UseThemes
 0001:00024EB4       UxTheme.Finalization
 0001:00024F08       Themes..TThemeServices
 0001:00025130       Themes.ThemeServices
 0001:00025150       Themes.TThemeServices.Create
 0001:000251C4       Themes.TThemeServices.Destroy
 0001:000251F8       Themes.TThemeServices.GetTheme
 0001:00025238       Themes.TThemeServices.GetThemesEnabled
 0001:00025250       Themes.TThemeServices.DoOnThemeChange
 0001:00025264       Themes.TThemeServices.UnloadThemeData
 0001:00025294       Themes.TThemeServices.ApplyThemeChange
 0001:000252A8       Themes.TThemeServices.DrawEdge
 0001:000252F4       Themes.TThemeServices.DrawElement
 0001:00025338       Themes.TThemeServices.DrawParentBackground
 0001:000253A0       Themes.TThemeServices.GetElementDetails
 0001:000253DC       Themes.TThemeServices.GetElementDetails
 0001:00025478       Themes.TThemeServices.GetElementDetails
 0001:00025804       Themes.TThemeServices.PaintBorder
 0001:00025970       Themes.TThemeServices.UpdateThemes
 0001:0002598C       Themes.Finalization
 0001:000259DC       StdCtrls..TButtonActionLink
 0001:00025AD0       StdCtrls..TButtonControl
 0001:00025C54       StdCtrls..TButton
 0001:00026418       StdCtrls..TCustomCheckBox
 0001:000265CC       StdCtrls..TCheckBox
 0001:00026DC8       StdCtrls.TButtonActionLink.AssignClient
 0001:00026DEC       StdCtrls.TButtonActionLink.IsCheckedLinked
 0001:00026E24       StdCtrls.TButtonActionLink.SetChecked
 0001:00026E88       StdCtrls.TButtonControl.Create
 0001:00026EDC       StdCtrls.TButtonControl.ActionChange
 0001:00026F28       StdCtrls.TButtonControl.GetActionLinkClass
 0001:00026F30       StdCtrls.TButtonControl.GetChecked
 0001:00026F34       StdCtrls.TButtonControl.IsCheckedStored
 0001:00026F54       StdCtrls.TButtonControl.SetChecked
 0001:00026F58       StdCtrls.TButtonControl.WndProc
 0001:00026FD0       StdCtrls.TButtonControl.CNCtlColorStatic
 0001:00027034       StdCtrls.TButtonControl.WMEraseBkGnd
 0001:00027060       StdCtrls.TButtonControl.CreateParams
 0001:00027084       StdCtrls.TButtonControl.SetWordWrap
 0001:00027098       StdCtrls.TButton.Create
 0001:000270FC       StdCtrls.TButton.Click
 0001:00027124       StdCtrls.TButton.UseRightToLeftAlignment
 0001:00027128       StdCtrls.TButton.SetButtonStyle
 0001:0002717C       StdCtrls.TButton.SetDefault
 0001:000271B4       StdCtrls.TButton.CreateParams
 0001:000271F0       StdCtrls.TButton.CreateWnd
 0001:0002720C       StdCtrls.TButton.CNCommand
 0001:00027220       StdCtrls.TButton.CMDialogKey
 0001:00027290       StdCtrls.TButton.CMDialogChar
 0001:00027314       StdCtrls.TButton.CMFocusChanged
 0001:00027368       StdCtrls.TButton.WMEraseBkgnd
 0001:00027394       StdCtrls.TButton.CNCtlColorBtn
 0001:000273F8       StdCtrls.TCustomCheckBox.Create
 0001:00027464       StdCtrls.TCustomCheckBox.GetControlsAlignment
 0001:00027490       StdCtrls.TCustomCheckBox.Toggle
 0001:000274D0       StdCtrls.TCustomCheckBox.Click
 0001:000274E4       StdCtrls.TCustomCheckBox.GetChecked
 0001:000274F0       StdCtrls.TCustomCheckBox.SetAlignment
 0001:00027504       StdCtrls.TCustomCheckBox.SetChecked
 0001:00027518       StdCtrls.TCustomCheckBox.SetState
 0001:00027568       StdCtrls.TCustomCheckBox.CreateParams
 0001:000275C0       StdCtrls.TCustomCheckBox.CreateWnd
 0001:000275E8       StdCtrls.TCustomCheckBox.WMSize
 0001:00027600       StdCtrls.TCustomCheckBox.CMCtl3DChanged
 0001:00027608       StdCtrls.TCustomCheckBox.CMDialogChar
 0001:000276A4       StdCtrls.TCustomCheckBox.CNCommand
 0001:000283C8       GraphUtil.Finalization
 0001:00028410       ExtCtrls..TTimer
 0001:00028524       ExtCtrls.TTimer.Create
 0001:00028574       ExtCtrls.TTimer.Destroy
 0001:000285AC       ExtCtrls.TTimer.WndProc
 0001:00028620       ExtCtrls.TTimer.UpdateTimer
 0001:000286AC       ExtCtrls.TTimer.SetEnabled
 0001:000286BC       ExtCtrls.TTimer.SetInterval
 0001:000286CC       ExtCtrls.TTimer.SetOnTimer
 0001:000286E4       ExtCtrls.TTimer.Timer
 0001:000286F8       ExtCtrls.Finalization
 0001:00028728       Dialogs..TCommonDialog
 0001:00028898       Dialogs.TCommonDialog.Create
 0001:000288E0       Dialogs.TCommonDialog.Destroy
 0001:00028928       Dialogs.TCommonDialog.Execute
 0001:0002896C       Dialogs.TCommonDialog.MessageHook
 0001:00028994       Dialogs.TCommonDialog.DefaultHandler
 0001:000289CC       Dialogs.TCommonDialog.MainWndProc
 0001:00028A18       Dialogs.TCommonDialog.WndProc
 0001:00028A20       Dialogs.TCommonDialog.WMDestroy
 0001:00028A38       Dialogs.TCommonDialog.WMInitDialog
 0001:00028A50       Dialogs.TCommonDialog.WMNCDestroy
 0001:00028A64       Dialogs.TCommonDialog.TaskModalDialog
 0001:00028B20       Dialogs.TCommonDialog.DoClose
 0001:00028B34       Dialogs.TCommonDialog.DoShow
 0001:00028BEC       Dialogs.InitGlobals
 0001:00028D40       Dialogs.Finalization
 0001:00028D9C       Clipbrd.Finalization
 0001:00028DD8       StdActns..THintAction
 0001:00028ECC       StdActns.THintAction.Create
 0001:00028F68       Forms..TControlScrollBar
 0001:00029204       Forms..TScrollingWinControl
 0001:000298D0       Forms..TCustomForm
 0001:00029C4C       Forms..TForm
 0001:0002AB38       Forms..TCustomDockForm
 0001:0002AD20       Forms..TMonitor
 0001:0002AD78       Forms..TScreen
 0001:0002AE7C       Forms..TApplication
 0001:0002AF6C       Forms.SaveFocusState
 0001:0002AF74       Forms.RestoreFocusState
 0001:0002AF7C       Forms.ShowMDIClientEdge
 0001:0002AFC8       Forms.DoneApplication
 0001:0002B000       Forms.DoDisableWindow
 0001:0002B050       Forms.DisableTaskWindows
 0001:0002B114       Forms.EnableTaskWindows
 0001:0002B14C       Forms.DoFindWindow
 0001:0002B1B0       Forms.FindTopMostWindow
 0001:0002B1EC       Forms.SendFocusMessage
 0001:0002B20C       Forms.CheckTaskWindow
 0001:0002B22C       Forms.ForegroundTask
 0001:0002B258       Forms.FindGlobalComponent
 0001:0002B2D8       Forms.KeysToShiftState
 0001:0002B330       Forms.KeyDataToShiftState
 0001:0002B370       Forms.KeyboardStateToShiftState
 0001:0002B3BC       Forms.IsAccel
 0001:0002B42C       Forms.GetRealParentForm
 0001:0002B470       Forms.GetParentForm
 0001:0002B480       Forms.ValidParentForm
 0001:0002B500       Forms.TControlScrollBar.Create
 0001:0002B58C       Forms.TControlScrollBar.IsIncrementStored
 0001:0002B594       Forms.TControlScrollBar.Assign
 0001:0002B5E4       Forms.TControlScrollBar.ChangeBiDiPosition
 0001:0002B61C       Forms.ProcessHorz
 0001:0002B68C       Forms.ProcessVert
 0001:0002B6F8       Forms.TControlScrollBar.CalcAutoRange
 0001:0002B7A4       Forms.TControlScrollBar.IsScrollBarVisible
 0001:0002B7DC       Forms.ScrollBarVisible
 0001:0002B810       Forms.Adjustment
 0001:0002B88C       Forms.TControlScrollBar.ControlSize
 0001:0002B90C       Forms.TControlScrollBar.NeedsScrollBarVisible
 0001:0002B924       Forms.GetRealScrollPosition
 0001:0002B984       Forms.TControlScrollBar.ScrollMessage
 0001:0002BC9C       Forms.TControlScrollBar.SetButtonSize
 0001:0002BCE0       Forms.TControlScrollBar.SetColor
 0001:0002BCFC       Forms.TControlScrollBar.SetParentColor
 0001:0002BD14       Forms.TControlScrollBar.SetPosition
 0001:0002BDD8       Forms.TControlScrollBar.SetSize
 0001:0002BE1C       Forms.TControlScrollBar.SetStyle
 0001:0002BE34       Forms.TControlScrollBar.SetThumbSize
 0001:0002BE4C       Forms.TControlScrollBar.DoSetRange
 0001:0002BE64       Forms.TControlScrollBar.SetRange
 0001:0002BE78       Forms.TControlScrollBar.IsRangeStored
 0001:0002BE88       Forms.TControlScrollBar.SetVisible
 0001:0002BE94       Forms.UpdateScrollProperties
 0001:0002BF9C       Forms.TControlScrollBar.Update
 0001:0002C0B8       Forms.TScrollingWinControl.Create
 0001:0002C130       Forms.TScrollingWinControl.Destroy
 0001:0002C16C       Forms.TScrollingWinControl.CreateParams
 0001:0002C17C       Forms.TScrollingWinControl.CreateWnd
 0001:0002C1BC       Forms.TScrollingWinControl.AlignControls
 0001:0002C1DC       Forms.TScrollingWinControl.AutoScrollEnabled
 0001:0002C1FC       Forms.TScrollingWinControl.DoFlipChildren
 0001:0002C314       Forms.TScrollingWinControl.CalcAutoRange
 0001:0002C338       Forms.TScrollingWinControl.SetAutoScroll
 0001:0002C374       Forms.TScrollingWinControl.SetHorzScrollBar
 0001:0002C384       Forms.TScrollingWinControl.SetVertScrollBar
 0001:0002C394       Forms.TScrollingWinControl.UpdateScrollBars
 0001:0002C48C       Forms.TScrollingWinControl.AutoScrollInView
 0001:0002C4A4       Forms.TScrollingWinControl.ScrollInView
 0001:0002C5F8       Forms.TScrollingWinControl.ScaleScrollBars
 0001:0002C69C       Forms.TScrollingWinControl.ChangeScale
 0001:0002C6C0       Forms.TScrollingWinControl.Resizing
 0001:0002C6C4       Forms.TScrollingWinControl.WMSize
 0001:0002C7B4       Forms.TScrollingWinControl.WMHScroll
 0001:0002C7D8       Forms.TScrollingWinControl.WMVScroll
 0001:0002C7FC       Forms.TScrollingWinControl.AdjustClientRect
 0001:0002C87C       Forms.TScrollingWinControl.CMBiDiModeChanged
 0001:0002C90C       Forms.TCustomForm.Create
 0001:0002CA98       Forms.TCustomForm.AfterConstruction
 0001:0002CAD0       Forms.TCustomForm.CreateNew
 0001:0002CC54       Forms.TCustomForm.BeforeDestruction
 0001:0002CCBC       Forms.TCustomForm.Destroy
 0001:0002CDBC       Forms.TCustomForm.DoCreate
 0001:0002CE38       Forms.TCustomForm.DoDestroy
 0001:0002CE98       Forms.TCustomForm.Loaded
 0001:0002CEE4       Forms.TCustomForm.Notification
 0001:0002D020       Forms.TCustomForm.ReadState
 0001:0002D2B0       Forms.TCustomForm.DefineProperties
 0001:0002D360       Forms.TCustomForm.ReadIgnoreFontProperty
 0001:0002D380       Forms.TCustomForm.ReadTextHeight
 0001:0002D398       Forms.TCustomForm.WriteTextHeight
 0001:0002D3B4       Forms.TCustomForm.WritePixelsPerInch
 0001:0002D3D0       Forms.TCustomForm.GetLeft
 0001:0002D3F0       Forms.TCustomForm.GetTop
 0001:0002D40C       Forms.TCustomForm.GetTextHeight
 0001:0002D430       Forms.TCustomForm.BeginAutoDrag
 0001:0002D434       Forms.TCustomForm.ChangeScale
 0001:0002D4BC       Forms.TCustomForm.IconChanged
 0001:0002D518       Forms.TCustomForm.IsClientSizeStored
 0001:0002D528       Forms.TCustomForm.IsFormSizeStored
 0001:0002D550       Forms.TCustomForm.IsAutoScrollStored
 0001:0002D584       Forms.TCustomForm.DoClose
 0001:0002D5A4       Forms.TCustomForm.DoHide
 0001:0002D5C4       Forms.TCustomForm.DoShow
 0001:0002D5E4       Forms.TCustomForm.GetClientRect
 0001:0002D66C       Forms.TCustomForm.GetChildren
 0001:0002D6D8       Forms.TCustomForm.GetFloating
 0001:0002D704       Forms.TCustomForm.GetOwnerWindow
 0001:0002D71C       Forms.TCustomForm.SetChildOrder
 0001:0002D7B0       Forms.TCustomForm.SetParentBiDiMode
 0001:0002D7D8       Forms.TCustomForm.SetClientWidth
 0001:0002D80C       Forms.TCustomForm.SetClientHeight
 0001:0002D840       Forms.TCustomForm.SetVisible
 0001:0002D884       Forms.TCustomForm.VisibleChanging
 0001:0002D8F0       Forms.TCustomForm.WantChildKey
 0001:0002D8F4       Forms.TCustomForm.SetParent
 0001:0002D9B0       Forms.TCustomForm.ValidateRename
 0001:0002D9F0       Forms.TCustomForm.WndProc
 0001:0002DEC8       Forms.Default
 0001:0002DF14       Forms.MaximizedChildren
 0001:0002DF54       Forms.TCustomForm.ClientWndProc
 0001:0002E134       Forms.TCustomForm.AlignControls
 0001:0002E1A0       Forms.TCustomForm.CMBiDiModeChanged
 0001:0002E238       Forms.TCustomForm.CMParentBiDiModeChanged
 0001:0002E2C4       Forms.TCustomForm.CMPopupHwndDestroy
 0001:0002E32C       Forms.TCustomForm.GetBorderIconStyles
 0001:0002E3F8       Forms.TCustomForm.SetBorderIcons
 0001:0002E4E4       Forms.TCustomForm.GetBorderStyles
 0001:0002E5F8       Forms.TCustomForm.SetBorderStyle
 0001:0002E798       Forms.TCustomForm.Dock
 0001:0002E7DC       Forms.TCustomForm.DoDock
 0001:0002E834       Forms.TCustomForm.GetActiveMDIChild
 0001:0002E868       Forms.TCustomForm.GetMDIChildCount
 0001:0002E8B4       Forms.TCustomForm.GetMDIChildren
 0001:0002E904       Forms.EnumMonitorsProc
 0001:0002E934       Forms.TCustomForm.GetMonitor
 0001:0002E9D4       Forms.TCustomForm.GetCanvas
 0001:0002E9DC       Forms.TCustomForm.SetIcon
 0001:0002E9E8       Forms.TCustomForm.IsForm
 0001:0002E9F0       Forms.TCustomForm.IsIconStored
 0001:0002EA18       Forms.TCustomForm.SetFormStyle
 0001:0002EB8C       Forms.TCustomForm.RefreshMDIMenu
 0001:0002EC08       Forms.TCustomForm.SetObjectMenuItem
 0001:0002EC2C       Forms.TCustomForm.SetWindowMenu
 0001:0002EC54       Forms.TCustomForm.SetMenu
 0001:0002EE78       Forms.TCustomForm.GetPixelsPerInch
 0001:0002EE8C       Forms.TCustomForm.GetPopupChildren
 0001:0002EEB4       Forms.TCustomForm.GetRecreateChildren
 0001:0002EEDC       Forms.TCustomForm.SetPixelsPerInch
 0001:0002EF10       Forms.TCustomForm.SetPosition
 0001:0002EF2C       Forms.TCustomForm.SetPopupMode
 0001:0002EF80       Forms.TCustomForm.SetPopupParent
 0001:0002EFE0       Forms.TCustomForm.GetScaled
 0001:0002EFEC       Forms.TCustomForm.SetScaled
 0001:0002F01C       Forms.TCustomForm.CMColorChanged
 0001:0002F040       Forms.TCustomForm.NormalColor
 0001:0002F058       Forms.TCustomForm.CMCtl3DChanged
 0001:0002F0A0       Forms.TCustomForm.CMFontChanged
 0001:0002F0C0       Forms.TCustomForm.CMMenuChanged
 0001:0002F0DC       Forms.TCustomForm.SetWindowState
 0001:0002F11C       Forms.TCustomForm.SetWindowToMonitor
 0001:0002F480       Forms.GetNonToolWindowPopupParent
 0001:0002F4F0       Forms.TCustomForm.CreateParams
 0001:0002F830       Forms.TCustomForm.CreateWnd
 0001:0002FA04       Forms.TCustomForm.CreateWindowHandle
 0001:0002FB3C       Forms.DestroyPopupWindow
 0001:0002FB80       Forms.TCustomForm.DestroyHandle
 0001:0002FC84       Forms.TCustomForm.DestroyWindowHandle
 0001:0002FCC8       Forms.TCustomForm.DefaultHandler
 0001:0002FD2C       Forms.TCustomForm.SetActiveControl
 0001:0002FDEC       Forms.TCustomForm.DefocusControl
 0001:0002FE34       Forms.TCustomForm.FocusControl
 0001:0002FE58       Forms.TCustomForm.SetFocusedControl
 0001:000300FC       Forms.TCustomForm.ActiveChanged
 0001:00030100       Forms.TCustomForm.SetWindowFocus
 0001:00030178       Forms.TCustomForm.SetActive
 0001:000301DC       Forms.TCustomForm.SendCancelMode
 0001:0003022C       Forms.TCustomForm.MergeMenu
 0001:000302D4       Forms.DoNestedActivation
 0001:00030320       Forms.TCustomForm.Activate
 0001:00030350       Forms.TCustomForm.Deactivate
 0001:00030380       Forms.TCustomForm.Paint
 0001:000303A0       Forms.TCustomForm.GetIconHandle
 0001:000303BC       Forms.TCustomForm.PaintWindow
 0001:00030478       Forms.TCustomForm.PaletteChanged
 0001:0003051C       Forms.TCustomForm.WMPaint
 0001:0003059C       Forms.TCustomForm.WMNCPaint
 0001:000305C4       Forms.TCustomForm.WMIconEraseBkgnd
 0001:00030624       Forms.TCustomForm.WMEraseBkgnd
 0001:0003065C       Forms.TCustomForm.WMQueryDragIcon
 0001:00030670       Forms.ModifySystemMenu
 0001:0003076C       Forms.TCustomForm.WMNCCreate
 0001:000307A0       Forms.TCustomForm.WMNCHitTest
 0001:000307B8       Forms.TCustomForm.WMNCLButtonDown
 0001:00030848       Forms.TCustomForm.WMDestroy
 0001:000309B0       Forms.TCustomForm.WMCommand
 0001:000309E4       Forms.TCustomForm.WMInitMenuPopup
 0001:000309FC       Forms.TCustomForm.WMMenuChar
 0001:00030A34       Forms.TCustomForm.WMMenuSelect
 0001:00030ADC       Forms.TCustomForm.WMActivate
 0001:00030AFC       Forms.TCustomForm.Resizing
 0001:00030B34       Forms.TCustomForm.WMClose
 0001:00030B3C       Forms.TCustomForm.WMQueryEndSession
 0001:00030B58       Forms.TCustomForm.CMAppSysCommand
 0001:00030BB0       Forms.TCustomForm.WMSysCommand
 0001:00030C38       Forms.TCustomForm.WMShowWindow
 0001:00030CD0       Forms.TCustomForm.WMMDIActivate
 0001:00030D28       Forms.TCustomForm.WMNextDlgCtl
 0001:00030D54       Forms.TCustomForm.WMEnterMenuLoop
 0001:00030D70       Forms.GetMenuHelpContext
 0001:00030DB0       Forms.ControlHasHelp
 0001:00030DE8       Forms.GetHelpInfo
 0001:00030E1C       Forms.TCustomForm.WMHelp
 0001:00030F94       Forms.TCustomForm.WMGetMinMaxInfo
 0001:00031008       Forms.HandleEdge
 0001:00031034       Forms.TCustomForm.WMWindowPosChanging
 0001:00031120       Forms.TCustomForm.WMNCCalcSize
 0001:0003116C       Forms.TCustomForm.CMActivate
 0001:00031190       Forms.TCustomForm.CMDeactivate
 0001:000311B4       Forms.TCustomForm.CMDialogKey
 0001:00031250       Forms.TCustomForm.CMShowingChanged
 0001:0003186C       Forms.TCustomForm.CMIconChanged
 0001:0003188C       Forms.TCustomForm.CMRelease
 0001:00031894       Forms.TCustomForm.CMTextChanged
 0001:000318E4       Forms.TCustomForm.CMUIActivate
 0001:000318EC       Forms.TCustomForm.CMParentFontChanged
 0001:00031958       Forms.TCustomForm.CMIsShortCut
 0001:00031984       Forms.TCustomForm.Close
 0001:00031A28       Forms.TCustomForm.CloseQuery
 0001:00031A8C       Forms.TCustomForm.CloseModal
 0001:00031B24       Forms.TCustomForm.Hide
 0001:00031B2C       Forms.TCustomForm.Show
 0001:00031B44       Forms.TCustomForm.SetFocus
 0001:00031BD0       Forms.TCustomForm.RecreateAsPopup
 0001:00031C00       Forms.TCustomForm.Release
 0001:00031C1C       Forms.TCustomForm.ShowModal
 0001:00031F20       Forms.TraverseClients
 0001:00031F90       Forms.TCustomForm.UpdateActions
 0001:00031FF8       Forms.TCustomForm.RequestAlign
 0001:00032018       Forms.TCustomForm.WMSettingChange
 0001:00032038       Forms.ProcessExecute
 0001:00032068       Forms.TraverseClients
 0001:000320E4       Forms.TCustomForm.CMActionExecute
 0001:00032138       Forms.ProcessUpdate
 0001:00032168       Forms.TraverseClients
 0001:000321E4       Forms.TCustomForm.CMActionUpdate
 0001:00032238       Forms.DispatchShortCut
 0001:000322B4       Forms.TCustomForm.IsShortCut
 0001:0003232C       Forms.TCustomForm.QueryInterface
 0001:00032368       Forms.TCustomForm.MouseWheelHandler
 0001:000323A0       Forms.TCustomForm.HandleCreateException
 0001:000323B0       Forms.TCustomForm.SetLayeredAttribs
 0001:00032488       Forms.TCustomForm.SetAlphaBlend
 0001:0003249C       Forms.TCustomForm.SetAlphaBlendValue
 0001:000324B0       Forms.TCustomForm.SetTransparentColorValue
 0001:000324C4       Forms.TCustomForm.SetTransparentColor
 0001:000324D8       Forms.TCustomForm.InitAlphaBlending
 0001:00032504       Forms.TCustomForm.SetLeft
 0001:00032540       Forms.TCustomForm.SetTop
 0001:00032580       Forms.TCustomDockForm.Create
 0001:000325E8       Forms.TCustomDockForm.DoAddDockClient
 0001:000326D8       Forms.TCustomDockForm.DoRemoveDockClient
 0001:000326F8       Forms.TCustomDockForm.Loaded
 0001:00032744       Forms.TCustomDockForm.GetSiteInfo
 0001:00032770       Forms.TCustomDockForm.WMNCHitTest
 0001:00032798       Forms.TCustomDockForm.WMNCLButtonDown
 0001:00032830       Forms.TCustomDockForm.CMControlListChange
 0001:00032888       Forms.TCustomDockForm.CMDockNotification
 0001:0003296C       Forms.TCustomDockForm.CMUnDockClient
 0001:00032984       Forms.TCustomDockForm.CMVisibleChanged
 0001:000329C4       Forms.TMonitor.GetLeft
 0001:000329DC       Forms.TMonitor.GetHeight
 0001:000329F8       Forms.TMonitor.GetTop
 0001:00032A10       Forms.TMonitor.GetWidth
 0001:00032A2C       Forms.TMonitor.GetBoundsRect
 0001:00032A5C       Forms.TMonitor.GetWorkareaRect
 0001:00032A8C       Forms.TMonitor.GetPrimary
 0001:00032AB0       Forms.TScreen.Create
 0001:00032C08       Forms.TScreen.Destroy
 0001:00032CD0       Forms.TScreen.GetHeight
 0001:00032CDC       Forms.TScreen.GetWidth
 0001:00032CE8       Forms.TScreen.GetDesktopTop
 0001:00032CF4       Forms.TScreen.GetDesktopLeft
 0001:00032D00       Forms.TScreen.GetDesktopHeight
 0001:00032D0C       Forms.TScreen.GetDesktopWidth
 0001:00032D18       Forms.TScreen.GetMonitor
 0001:00032D2C       Forms.TScreen.GetMonitorCount
 0001:00032D48       Forms.TScreen.GetForm
 0001:00032D5C       Forms.TScreen.GetFormCount
 0001:00032D64       Forms.TScreen.GetCustomForms
 0001:00032D78       Forms.TScreen.GetCustomFormCount
 0001:00032D80       Forms.TScreen.UpdateLastActive
 0001:00032DCC       Forms.TScreen.AddForm
 0001:00032E04       Forms.TScreen.RemoveForm
 0001:00032E54       Forms.TScreen.AddDataModule
 0001:00032E60       Forms.TScreen.RemoveDataModule
 0001:00032E6C       Forms.TScreen.CreateCursors
 0001:00032EC8       Forms.TScreen.DestroyCursors
 0001:00032F28       Forms.TScreen.InsertCursor
 0001:00032F50       Forms.TScreen.GetImes
 0001:00033150       Forms.TScreen.GetDefaultIME
 0001:0003316C       Forms.TScreen.IconFontChanged
 0001:000331BC       Forms.TScreen.GetDataModule
 0001:000331D0       Forms.TScreen.GetDataModuleCount
 0001:000331D8       Forms.TScreen.GetCursors
 0001:00033200       Forms.TScreen.SetCursor
 0001:0003329C       Forms.TScreen.GetMetricSettings
 0001:000333F0       Forms.TScreen.DisableAlign
 0001:000333F8       Forms.TScreen.EnableAlign
 0001:00033418       Forms.TScreen.Realign
 0001:00033420       Forms.InsertBefore
 0001:000334A8       Forms.DoPosition
 0001:00033664       Forms.DoAlign
 0001:000337B4       Forms.AlignWork
 0001:0003380C       Forms.TScreen.AlignForms
 0001:00033894       Forms.TScreen.AlignForm
 0001:0003391C       Forms.TScreen.ResetFonts
 0001:00033928       Forms.GetHint
 0001:00033960       Forms.GetHintControl
 0001:00033980       Forms.HintTimerProc
 0001:000339D4       Forms.HintMouseThread
 0001:00033A30       Forms.HintGetMsgHook
 0001:00033A74       Forms.HookHintHooks
 0001:00033AE8       Forms.UnhookHintHooks
 0001:00033B44       Forms.GetAnimation
 0001:00033B74       Forms.SetAnimation
 0001:00033B9C       Forms.ShowWinNoAnimate
 0001:00033BCC       Forms.TScreen.ClearMonitors
 0001:00033C04       Forms.TScreen.GetMonitors
 0001:00033C28       Forms.TScreen.GetPrimaryMonitor
 0001:00033CB8       Forms.TApplication.Create
 0001:00033ED4       Forms.TApplication.Destroy
 0001:0003400C       Forms.TApplication.CreateHandle
 0001:000341BC       Forms.TApplication.ControlDestroyed
 0001:0003421C       Forms.GetTopMostWindows
 0001:0003428C       Forms.TApplication.DoNormalizeTopMosts
 0001:0003433C       Forms.TApplication.ModalStarted
 0001:00034368       Forms.TApplication.ModalFinished
 0001:00034394       Forms.TApplication.NormalizeTopMosts
 0001:0003439C       Forms.TApplication.NormalizeAllTopMosts
 0001:000343A4       Forms.TApplication.RemovePopupForm
 0001:000343F4       Forms.TApplication.RestoreTopMosts
 0001:00034460       Forms.GetPopupOwnerWindows
 0001:000344D0       Forms.TApplication.DoShowOwnedPopups
 0001:00034598       Forms.TApplication.UseRightToLeftReading
 0001:000345B0       Forms.TApplication.UseRightToLeftAlignment
 0001:000345C8       Forms.TApplication.CheckIniChange
 0001:00034620       Forms.TApplication.SettingChange
 0001:0003468C       Forms.Default
 0001:000346C8       Forms.DrawAppIcon
 0001:00034714       Forms.TApplication.WndProc
 0001:00034E28       Forms.TApplication.GetIconHandle
 0001:00034E44       Forms.TApplication.Minimize
 0001:00034F08       Forms.TApplication.Restore
 0001:00035014       Forms.TApplication.BringToFront
 0001:00035050       Forms.TApplication.GetTitle
 0001:0003509C       Forms.TApplication.IsDlgMsg
 0001:000350E4       Forms.TApplication.IsMDIMsg
 0001:00035134       Forms.TApplication.IsKeyMsg
 0001:00035228       Forms.TApplication.IsHintMsg
 0001:0003525C       Forms.TApplication.IsShortCut
 0001:000352C8       Forms.TApplication.PopupControlProc
 0001:00035364       Forms.TApplication.ProcessMessage
 0001:00035478       Forms.TApplication.HandleMessage
 0001:0003549C       Forms.TApplication.HookMainWindow
 0001:000354F8       Forms.TApplication.UnhookMainWindow
 0001:00035574       Forms.TApplication.Initialize
 0001:0003558C       Forms.TApplication.CreateForm
 0001:0003560C       Forms.TApplication.Run
 0001:000356F8       Forms.TApplication.Terminate
 0001:0003570C       Forms.IsClass
 0001:00035768       Forms.TApplication.HandleException
 0001:000357F8       Forms.TApplication.MessageBox
 0001:00035974       Forms.TApplication.ShowException
 0001:00035A4C       Forms.TApplication.InvokeHelp
 0001:00035B70       Forms.TApplication.DoOnHelp
 0001:00035C3C       Forms.TApplication.HelpKeyword
 0001:00035CCC       Forms.TApplication.HelpContext
 0001:00035D54       Forms.TApplication.HelpCommand
 0001:00035D5C       Forms.TApplication.SetShowHint
 0001:00035DAC       Forms.TApplication.DoActionIdle
 0001:00035E10       Forms.TApplication.DoMouseIdle
 0001:00035E34       Forms.IdleTimerProc
 0001:00035E9C       Forms.TApplication.Idle
 0001:00035FF8       Forms.TApplication.NotifyForms
 0001:00036034       Forms.TApplication.IconChanged
 0001:00036098       Forms.TApplication.SetHint
 0001:0003612C       Forms.SetVisible
 0001:00036188       Forms.TApplication.UpdateVisible
 0001:00036210       Forms.TApplication.ValidateHelpSystem
 0001:00036230       Forms.TApplication.StartHintTimer
 0001:00036274       Forms.TApplication.StopHintTimer
 0001:0003629C       Forms.TApplication.HintMouseMessage
 0001:000363BC       Forms.TApplication.HintTimerExpired
 0001:000363F4       Forms.TApplication.HideHint
 0001:00036468       Forms.TApplication.CancelHint
 0001:00036490       Forms.FindScanline
 0001:000364A0       Forms.GetCursorHeightMargin
 0001:000365F8       Forms.ValidateHintWindow
 0001:00036658       Forms.MultiLineWidth
 0001:00036708       Forms.TApplication.ActivateHint
 0001:00036AA0       Forms.TApplication.AddPopupForm
 0001:00036B68       Forms.TApplication.GetCurrentHelpFile
 0001:00036BA4       Forms.TApplication.GetActiveFormHandle
 0001:00036BEC       Forms.TApplication.GetMainFormHandle
 0001:00036C2C       Forms.TApplication.DispatchAction
 0001:00036CC4       Forms.TApplication.ExecuteAction
 0001:00036CEC       Forms.TApplication.UpdateAction
 0001:00036D14       Forms.InitProcs
 0001:00036D60       Forms.TApplication.WakeMainThread
 0001:00036D70       Forms.TApplication.HookSynchronizeWakeup
 0001:00036D80       Forms.TApplication.UnhookSynchronizeWakeup
 0001:00036D90       Forms.TApplication.IsPreProcessMessage
 0001:00036E0C       Forms.Finalization
 0001:00036EF8       Controls..TDragObject
 0001:00036F9C       Controls..TBaseDragControlObject
 0001:00037060       Controls..TDragControlObject
 0001:000370EC       Controls..TDragControlObjectEx
 0001:0003717C       Controls..TDragDockObject
 0001:00037244       Controls..TDragDockObjectEx
 0001:000372E4       Controls..TControlCanvas
 0001:00037384       Controls..TCustomControlAction
 0001:0003746C       Controls..TControlActionLink
 0001:00037770       Controls..TSizeConstraints
 0001:000378BC       Controls..TMargins
 0001:000379D4       Controls..TPadding
 0001:00038328       Controls..TControl
 0001:00038798       Controls..TWinControlActionLink
 0001:00038A28       Controls..TWinControl
 0001:00038E38       Controls..TCustomControl
 0001:00038FA4       Controls..THintWindow
 0001:00039134       Controls..TDockZone
 0001:00039280       Controls..TDockTree
 0001:00039324       Controls..TMouse
 0001:00039378       Controls.InitWndProc
 0001:00039488       Controls.ObjectFromHWnd
 0001:000394BC       Controls.FindControl
 0001:00039518       Controls.IsVCLControl
 0001:00039548       Controls.SendAppMessage
 0001:0003970C       Controls.CursorToIdent
 0001:0003971C       Controls.IdentToCursor
 0001:0003972C       Controls.GetShortHint
 0001:00039770       Controls.GetLongHint
 0001:000397B4       Controls.PerformEraseBackground
 0001:00039808       Controls.GetCaptureControl
 0001:00039830       Controls.SetCaptureControl
 0001:00039874       Controls..TSiteList
 0001:000398DC       Controls.TSiteList.Find
 0001:00039914       Controls.GetTopParent
 0001:00039940       Controls.TSiteList.AddSite
 0001:000399C4       Controls.TSiteList.Clear
 0001:000399F8       Controls.TSiteList.GetTopSite
 0001:00039A5C       Controls.TDragObject.Assign
 0001:00039A9C       Controls.TDragObject.Capture
 0001:00039AB4       Controls.TDragObject.Finished
 0001:00039ABC       Controls.TDragObject.GetName
 0001:00039AE4       Controls.TDragObject.ReleaseCapture
 0001:00039AF8       Controls.TDragObject.WndProc
 0001:00039C28       Controls.TDragObject.GetDragImages
 0001:00039C2C       Controls.TDragObject.GetDragCursor
 0001:00039C44       Controls.TDragObject.HideDragImage
 0001:00039C48       Controls.TDragObject.Instance
 0001:00039C50       Controls.TDragObject.ShowDragImage
 0001:00039C54       Controls.TDragObject.MainWndProc
 0001:00039CA0       Controls.TDragObject.BeforeDestruction
 0001:00039CB0       Controls.TDragObject.AfterConstruction
 0001:00039CC0       Controls.TBaseDragControlObject.Create
 0001:00039CE4       Controls.TBaseDragControlObject.Assign
 0001:00039D10       Controls.TBaseDragControlObject.EndDrag
 0001:00039D34       Controls.TBaseDragControlObject.Finished
 0001:00039D68       Controls.TDragControlObject.GetDragCursor
 0001:00039D80       Controls.TDragControlObject.GetDragImages
 0001:00039D8C       Controls.TDragControlObject.HideDragImage
 0001:00039DAC       Controls.TDragControlObject.ShowDragImage
 0001:00039DCC       Controls.TDragControlObjectEx.BeforeDestruction
 0001:00039DD0       Controls.TDragDockObject.Create
 0001:00039E38       Controls.TDragDockObject.Destroy
 0001:00039E68       Controls.TDragDockObject.Assign
 0001:00039EC8       Controls.TDragDockObject.EndDrag
 0001:00039EE4       Controls.AbsMin
 0001:00039F08       Controls.TDragDockObject.AdjustDockRect
 0001:00039F84       Controls.TDragDockObject.DrawDragDockImage
 0001:00039F98       Controls.TDragDockObject.EraseDragDockImage
 0001:00039FAC       Controls.TDragDockObject.GetDragCursor
 0001:00039FB8       Controls.TDragDockObject.GetEraseWhenMoving
 0001:00039FBC       Controls.TDragDockObject.GetFrameWidth
 0001:00039FC4       Controls.TDragDockObjectEx.BeforeDestruction
 0001:00039FC8       Controls.IsBeforeTargetWindow
 0001:0003A034       Controls.ValidDockTarget
 0001:0003A1D0       Controls.IsSiteChildOfClient
 0001:0003A214       Controls.GetDockSiteAtPos
 0001:0003A368       Controls.RegisterDockSite
 0001:0003A3C4       Controls.DragMessage
 0001:0003A41C       Controls.IsDelphiHandle
 0001:0003A47C       Controls.DragFindWindow
 0001:0003A4A8       Controls.DragFindTarget
 0001:0003A4F8       Controls.DoDragOver
 0001:0003A534       Controls.GetDropCtl
 0001:0003A5D4       Controls.DragTo
 0001:0003A8BC       Controls.DragInit
 0001:0003AA2C       Controls.DragInitControl
 0001:0003ABF0       Controls.CheckUndock
 0001:0003AC64       Controls.DragDone
 0001:0003AF88       Controls.CancelDrag
 0001:0003AFA0       Controls.FindVCLWindow
 0001:0003AFD4       Controls.FindDragTarget
 0001:0003B020       Controls.ListAdd
 0001:0003B048       Controls.ListRemove
 0001:0003B068       Controls.MoveWindowOrg
 0001:0003B098       Controls.FreeDeviceContext
 0001:0003B154       Controls.FreeDeviceContexts
 0001:0003B200       Controls.TControlCanvas.Destroy
 0001:0003B22C       Controls.TControlCanvas.CreateHandle
 0001:0003B2D4       Controls.TControlCanvas.FreeHandle
 0001:0003B308       Controls.TControlCanvas.SetControl
 0001:0003B320       Controls.TControlCanvas.UpdateTextFlags
 0001:0003B34C       Controls.TSizeConstraints.Create
 0001:0003B388       Controls.TSizeConstraints.AssignTo
 0001:0003B3D0       Controls.TSizeConstraints.SetConstraints
 0001:0003B45C       Controls.TSizeConstraints.Change
 0001:0003B470       Controls.TControlActionLink.AssignClient
 0001:0003B48C       Controls.TControlActionLink.DoShowHint
 0001:0003B57C       Controls.TControlActionLink.IsCaptionLinked
 0001:0003B5F0       Controls.TControlActionLink.IsDropdownMenuLinked
 0001:0003B604       Controls.TControlActionLink.IsEnabledLinked
 0001:0003B638       Controls.TControlActionLink.IsEnableDropdownLinked
 0001:0003B64C       Controls.TControlActionLink.IsHintLinked
 0001:0003B684       Controls.TControlActionLink.IsPopupMenuLinked
 0001:0003B6C4       Controls.TControlActionLink.IsVisibleLinked
 0001:0003B6F8       Controls.TControlActionLink.IsOnExecuteLinked
 0001:0003B720       Controls.TControlActionLink.SetCaption
 0001:0003B740       Controls.TControlActionLink.SetDropdownMenu
 0001:0003B744       Controls.TControlActionLink.SetEnabled
 0001:0003B764       Controls.TControlActionLink.SetEnableDropdown
 0001:0003B768       Controls.TControlActionLink.SetHint
 0001:0003B78C       Controls.TControlActionLink.SetVisible
 0001:0003B7AC       Controls.TControlActionLink.SetOnExecute
 0001:0003B7D8       Controls.TControlActionLink.IsHelpLinked
 0001:0003B840       Controls.TControlActionLink.SetHelpKeyword
 0001:0003B860       Controls.TControlActionLink.SetHelpContext
 0001:0003B880       Controls.TControlActionLink.SetHelpType
 0001:0003B8A0       Controls.TControlActionLink.SetPopupMenu
 0001:0003B8C4       Controls.TControl.Create
 0001:0003B9BC       Controls.TControl.Destroy
 0001:0003BA84       Controls.TControl.GetDragImages
 0001:0003BA88       Controls.TControl.GetEnabled
 0001:0003BA90       Controls.TControl.GetPalette
 0001:0003BA94       Controls.TControl.HasParent
 0001:0003BA9C       Controls.TControl.GetParentComponent
 0001:0003BAA0       Controls.TControl.SetParentComponent
 0001:0003BAC8       Controls.TControl.PaletteChanged
 0001:0003BB44       Controls.TControl.GetAction
 0001:0003BB54       Controls.TControl.SetAnchors
 0001:0003BBF4       Controls.TControl.SetAction
 0001:0003BC70       Controls.TControl.IsAnchorsStored
 0001:0003BC88       Controls.TControl.SetDesignVisible
 0001:0003BCC0       Controls.TControl.SetDragMode
 0001:0003BCC4       Controls.TControl.RequestAlign
 0001:0003BCD4       Controls.TControl.Resize
 0001:0003BCF4       Controls.TControl.ReadState
 0001:0003BD88       Controls.TControl.Notification
 0001:0003BDE0       Controls.TControl.SetAlign
 0001:0003BEC8       Controls.TControl.SetBounds
 0001:0003BF68       Controls.TControl.UpdateAnchorRules
 0001:0003C0EC       Controls.TControl.SetLeft
 0001:0003C120       Controls.TControl.SetTop
 0001:0003C154       Controls.TControl.SetWidth
 0001:0003C188       Controls.TControl.SetHeight
 0001:0003C1BC       Controls.TControl.Dock
 0001:0003C2EC       Controls.TControl.DoDock
 0001:0003C344       Controls.TControl.SetHelpContext
 0001:0003C358       Controls.TControl.SetHelpKeyword
 0001:0003C37C       Controls.TControl.GetBoundsRect
 0001:0003C39C       Controls.TControl.SetBoundsRect
 0001:0003C3C0       Controls.TControl.GetClientRect
 0001:0003C3D8       Controls.TControl.GetClientWidth
 0001:0003C3F0       Controls.TControl.SetClientWidth
 0001:0003C41C       Controls.TControl.GetClientHeight
 0001:0003C434       Controls.TControl.SetClientHeight
 0001:0003C45C       Controls.TControl.GetClientOrigin
 0001:0003C4EC       Controls.TControl.ClientToScreen
 0001:0003C518       Controls.TControl.ScaleConstraints
 0001:0003C59C       Controls.TControl.ScreenToClient
 0001:0003C5C8       Controls.TControl.SendCancelMode
 0001:0003C5F8       Controls.TControl.SendDockNotification
 0001:0003C664       Controls.TControl.Changed
 0001:0003C674       Controls.TControl.ChangeScale
 0001:0003C838       Controls.TControl.SetAutoSize
 0001:0003C854       Controls.TControl.SetName
 0001:0003C8F8       Controls.TControl.SetClientSize
 0001:0003C940       Controls.TControl.SetParent
 0001:0003C98C       Controls.TControl.SetVisible
 0001:0003C9C4       Controls.TControl.SetEnabled
 0001:0003C9DC       Controls.TControl.GetTextLen
 0001:0003C9EC       Controls.TControl.GetTextBuf
 0001:0003C9F8       Controls.TControl.GetUndockHeight
 0001:0003CA0C       Controls.TControl.GetUndockWidth
 0001:0003CA20       Controls.TControl.SetPopupMenu
 0001:0003CA48       Controls.TControl.SetTextBuf
 0001:0003CA6C       Controls.TControl.GetText
 0001:0003CA9C       Controls.TControl.SetText
 0001:0003CB00       Controls.TControl.SetBiDiMode
 0001:0003CB1C       Controls.TControl.FontChanged
 0001:0003CB60       Controls.TControl.SetFont
 0001:0003CB70       Controls.TControl.IsFontStored
 0001:0003CB84       Controls.TControl.IsShowHintStored
 0001:0003CB90       Controls.TControl.IsBiDiModeStored
 0001:0003CB98       Controls.TControl.SetParentFont
 0001:0003CBBC       Controls.TControl.SetShowHint
 0001:0003CBE0       Controls.TControl.SetParentShowHint
 0001:0003CC0C       Controls.TControl.SetColor
 0001:0003CC28       Controls.TControl.IsColorStored
 0001:0003CC30       Controls.TControl.SetParentColor
 0001:0003CC54       Controls.TControl.SetParentBiDiMode
 0001:0003CC78       Controls.TControl.SetCursor
 0001:0003CC94       Controls.TControl.GetMouseCapture
 0001:0003CCA4       Controls.TControl.SetMouseCapture
 0001:0003CCCC       Controls.TControl.BringToFront
 0001:0003CCE0       Controls.TControl.SetZOrderPosition
 0001:0003CD68       Controls.TControl.SetZOrder
 0001:0003CD8C       Controls.TControl.GetDeviceContext
 0001:0003CE34       Controls.BackgroundClipped
 0001:0003CEC0       Controls.TControl.InvalidateControl
 0001:0003CF4C       Controls.TControl.Invalidate
 0001:0003CF60       Controls.TControl.MouseActivate
 0001:0003CFA8       Controls.TControl.MouseWheelHandler
 0001:0003D028       Controls.TControl.Update
 0001:0003D03C       Controls.TControl.Repaint
 0001:0003D138       Controls.TControl.GetControlsAlignment
 0001:0003D13C       Controls.TControl.UseRightToLeftReading
 0001:0003D154       Controls.TControl.UseRightToLeftAlignment
 0001:0003D16C       Controls.TControl.UseRightToLeftScrollBar
 0001:0003D188       Controls.TControl.BeginAutoDrag
 0001:0003D1A4       Controls.TControl.BeginDrag
 0001:0003D290       Controls.TControl.DragCanceled
 0001:0003D294       Controls.TControl.Dragging
 0001:0003D2A0       Controls.TControl.DragOver
 0001:0003D2DC       Controls.TControl.DragDrop
 0001:0003D308       Controls.TControl.DoStartDrag
 0001:0003D328       Controls.TControl.DoEndDrag
 0001:0003D354       Controls.TControl.PositionDockRect
 0001:0003D428       Controls.TControl.DockTrackNoTarget
 0001:0003D440       Controls.TControl.DoEndDock
 0001:0003D46C       Controls.TControl.DoStartDock
 0001:0003D48C       Controls.TControl.DoMouseActivate
 0001:0003D4C0       Controls.TControl.DoMouseWheel
 0001:0003D594       Controls.TControl.DoMouseWheelDown
 0001:0003D5E0       Controls.TControl.DoMouseWheelUp
 0001:0003D62C       Controls.TControl.DefaultDockImage
 0001:0003D758       Controls.TControl.DrawDragDockImage
 0001:0003D768       Controls.TControl.EraseDragDockImage
 0001:0003D778       Controls.TControl.DoDragMsg
 0001:0003D868       Controls.TControl.ManualDock
 0001:0003DA48       Controls.TControl.ManualFloat
 0001:0003DADC       Controls.TControl.DoConstraintsChange
 0001:0003DAEC       Controls.TControl.CanAutoSize
 0001:0003DAF0       Controls.TControl.CanResize
 0001:0003DB20       Controls.TControl.DoCanAutoSize
 0001:0003DB8C       Controls.TControl.DoCanResize
 0001:0003DBBC       Controls.TControl.ConstrainedResize
 0001:0003DBEC       Controls.TControl.CalcCursorPos
 0001:0003DC18       Controls.TControl.DesignWndProc
 0001:0003DC4C       Controls.TControl.DoConstrainedResize
 0001:0003DD20       Controls.TControl.Perform
 0001:0003DD54       Controls.TControl.CalcDockSizes
 0001:0003DDC8       Controls.TControl.UpdateBoundsRect
 0001:0003DDF8       Controls.TControl.VisibleChanging
 0001:0003DDFC       Controls.TControl.WndProc
 0001:0003E0CC       Controls.TControl.DefaultHandler
 0001:0003E154       Controls.TControl.ReadIsControl
 0001:0003E168       Controls.TControl.WriteIsControl
 0001:0003E174       Controls.DoWriteIsControl
 0001:0003E1A8       Controls.DoWriteExplicit
 0001:0003E3C8       Controls.TControl.DefineProperties
 0001:0003E558       Controls.TControl.Click
 0001:0003E5C4       Controls.TControl.DblClick
 0001:0003E5E4       Controls.TControl.MouseDown
 0001:0003E61C       Controls.TControl.DoMouseDown
 0001:0003E6A0       Controls.TControl.WMLButtonDown
 0001:0003E6EC       Controls.TControl.WMNCLButtonDown
 0001:0003E708       Controls.TControl.WMLButtonDblClk
 0001:0003E75C       Controls.TControl.GetPopupMenu
 0001:0003E764       Controls.TControl.CheckNewSize
 0001:0003E800       Controls.TControl.WMRButtonDown
 0001:0003E82C       Controls.TControl.WMRButtonDblClk
 0001:0003E858       Controls.TControl.WMMButtonDown
 0001:0003E884       Controls.TControl.WMMButtonDblClk
 0001:0003E8B0       Controls.TControl.MouseMove
 0001:0003E8E4       Controls.TControl.WMMouseMove
 0001:0003E95C       Controls.TControl.MouseUp
 0001:0003E994       Controls.TControl.DoMouseUp
 0001:0003E9CC       Controls.TControl.WMLButtonUp
 0001:0003EA50       Controls.TControl.WMRButtonUp
 0001:0003EA70       Controls.TControl.WMMButtonUp
 0001:0003EA90       Controls.TControl.WMMouseWheel
 0001:0003EAE8       Controls.TControl.WMCancelMode
 0001:0003EB28       Controls.TControl.WMWindowPosChanged
 0001:0003EBD8       Controls.TControl.CMVisibleChanged
 0001:0003EC00       Controls.TControl.CMEnabledChanged
 0001:0003EC10       Controls.TControl.CMFontChanged
 0001:0003EC20       Controls.TControl.CMColorChanged
 0001:0003EC30       Controls.TControl.CMParentColorChanged
 0001:0003EC60       Controls.TControl.CMParentBiDiModeChanged
 0001:0003EC84       Controls.TControl.CMMouseWheel
 0001:0003ECF4       Controls.TControl.CMBiDiModeChanged
 0001:0003ED14       Controls.TControl.CMParentShowHintChanged
 0001:0003ED50       Controls.TControl.CMParentFontChanged
 0001:0003ED80       Controls.TControl.CMSysFontChanged
 0001:0003EDA4       Controls.TControl.CMHitTest
 0001:0003EDAC       Controls.TControl.CMMouseEnter
 0001:0003EDE8       Controls.TControl.CMMouseLeave
 0001:0003EE24       Controls.TControl.CMDesignHitTest
 0001:0003EE2C       Controls.TControl.CreateFloatingDockSite
 0001:0003EEB0       Controls.UpdateFloatingDockSitePos
 0001:0003EF3C       Controls.TControl.CMFloat
 0001:0003EF9C       Controls.TControl.ActionChange
 0001:0003F09C       Controls.TControl.DoActionChange
 0001:0003F0C0       Controls.TControl.GetActionLinkClass
 0001:0003F0C8       Controls.TControl.IsCaptionStored
 0001:0003F0E8       Controls.TControl.IsEnabledStored
 0001:0003F108       Controls.TControl.IsHintStored
 0001:0003F128       Controls.TControl.IsHelpContextStored
 0001:0003F148       Controls.TControl.IsVisibleStored
 0001:0003F168       Controls.TControl.IsOnClickStored
 0001:0003F188       Controls.TControl.Loaded
 0001:0003F1C0       Controls.TControl.AssignTo
 0001:0003F26C       Controls.MinVar
 0001:0003F2A8       Controls.TControl.GetDockEdge
 0001:0003F358       Controls.TControl.GetFloating
 0001:0003F384       Controls.TControl.GetFloatingDockSiteClass
 0001:0003F38C       Controls.TControl.AdjustSize
 0001:0003F3AC       Controls.TControl.DrawTextBiDiModeFlagsReadingOnly
 0001:0003F3C8       Controls.TControl.InitiateAction
 0001:0003F3D8       Controls.TControl.CMHintShow
 0001:0003F408       Controls.TControl.WMContextMenu
 0001:0003F54C       Controls.TControl.DoContextPopup
 0001:0003F580       Controls.TControl.SetConstraints
 0001:0003F58C       Controls.TControl.CMMouseActivate
 0001:0003F5B0       Controls.TControl.DoMarginChange
 0001:0003F5B8       Controls.TControl.SetMargins
 0001:0003F5C4       Controls.TControl.GetAlignWithMargins
 0001:0003F5CC       Controls.TControl.SetAlignWithMargins
 0001:0003F5FC       Controls.TControl.UpdateExplicitBounds
 0001:0003F630       Controls.TControl.WriteExplicitTop
 0001:0003F640       Controls.TControl.WriteExplicitHeight
 0001:0003F650       Controls.TControl.WriteExplicitLeft
 0001:0003F660       Controls.TControl.ReadExplicitWidth
 0001:0003F678       Controls.TControl.WriteExplicitWidth
 0001:0003F688       Controls.TControl.ReadExplicitTop
 0001:0003F6A0       Controls.TControl.ReadExplicitHeight
 0001:0003F6B8       Controls.TControl.ReadExplicitLeft
 0001:0003F6D0       Controls.TWinControlActionLink.AssignClient
 0001:0003F6F4       Controls.TWinControlActionLink.IsHelpContextLinked
 0001:0003F6FC       Controls.TWinControlActionLink.SetHelpContext
 0001:0003F704       Controls.TWinControl.Create
 0001:0003F848       Controls.TWinControl.Destroy
 0001:0003F928       Controls.TWinControl.FixupTabList
 0001:0003F9FC       Controls.TWinControl.ReadState
 0001:0003FA74       Controls.TWinControl.AdjustClientRect
 0001:0003FAA4       Controls.TWinControl.ArrangeControl
 0001:0003FE84       Controls.GetClientSize
 0001:0003FEE4       Controls.InsertBefore
 0001:00040014       Controls.DoPosition
 0001:0004005C       Controls.DoAlign
 0001:000401E8       Controls.AlignWork
 0001:0004023C       Controls.TWinControl.AlignControls
 0001:00040340       Controls.TWinControl.AlignControl
 0001:000403D4       Controls.TWinControl.DisableAlign
 0001:000403DC       Controls.TWinControl.EnableAlign
 0001:000403FC       Controls.TWinControl.Realign
 0001:00040404       Controls.TWinControl.DoFlipChildren
 0001:000404D8       Controls.TWinControl.FlipChildren
 0001:00040620       Controls.TWinControl.ContainsControl
 0001:00040634       Controls.TWinControl.RemoveFocus
 0001:00040654       Controls.TWinControl.Insert
 0001:000406A0       Controls.TWinControl.Remove
 0001:000406E8       Controls.TWinControl.InsertControl
 0001:000407DC       Controls.TWinControl.RemoveControl
 0001:0004087C       Controls.TWinControl.GetControl
 0001:000408B8       Controls.TWinControl.GetControlCount
 0001:000408D8       Controls.TWinControl.Broadcast
 0001:00040918       Controls.TWinControl.Notification
 0001:00040948       Controls.TWinControl.NotifyControls
 0001:00040970       Controls.TWinControl.CreateSubClass
 0001:000409DC       Controls.TWinControl.AddBiDiModeExStyle
 0001:00040A44       Controls.TWinControl.CreateParams
 0001:00040B70       Controls.TWinControl.CreateWnd
 0001:00040D40       Controls.TWinControl.CreateWindowHandle
 0001:00040D80       Controls.TWinControl.ReadDesignSize
 0001:00040DB8       Controls.TWinControl.WriteDesignSize
 0001:00040E0C       Controls.PointsEqual
 0001:00040E20       Controls.DoWriteDesignSize
 0001:00040F00       Controls.TWinControl.DefineProperties
 0001:00040F5C       Controls.TWinControl.DestroyWnd
 0001:00040FBC       Controls.TWinControl.DestroyWindowHandle
 0001:00041020       Controls.TWinControl.PrecedingWindow
 0001:00041068       Controls.TWinControl.CreateHandle
 0001:00041100       Controls.TWinControl.CustomAlignInsertBefore
 0001:00041124       Controls.TWinControl.CustomAlignPosition
 0001:00041174       Controls.DestroyChildWindow
 0001:000411B8       Controls.TWinControl.DestroyHandle
 0001:0004122C       Controls.TWinControl.RecreateWnd
 0001:00041244       Controls.TWinControl.CMRecreateWnd
 0001:000412D0       Controls.TWinControl.UpdateShowing
 0001:000413F4       Controls.TWinControl.UpdateControlState
 0001:00041438       Controls.TWinControl.SetParentWindow
 0001:0004151C       Controls.TWinControl.MainWndProc
 0001:00041594       Controls.GetControlAtPos
 0001:00041660       Controls.TWinControl.ControlAtPos
 0001:00041724       Controls.TWinControl.IsControlActivateMsg
 0001:00041870       Controls.TWinControl.IsControlMouseMsg
 0001:00041924       Controls.TWinControl.WndProc
 0001:00041DC8       Controls.TWinControl.DefaultHandler
 0001:00041ED0       Controls.DoControlMsg
 0001:00041F04       Controls.TWinControl.PaintHandler
 0001:00042074       Controls.TWinControl.PaintWindow
 0001:0004209C       Controls.TWinControl.PaintControls
 0001:0004236C       Controls.TWinControl.PaintTo
 0001:000424FC       Controls.TWinControl.WMPaint
 0001:0004265C       Controls.TWinControl.WMCommand
 0001:0004267C       Controls.TWinControl.WMNotify
 0001:000426A0       Controls.TWinControl.WMSysColorChange
 0001:000426BC       Controls.TWinControl.WMWinIniChange
 0001:000426D0       Controls.TWinControl.WMFontChange
 0001:000426E0       Controls.TWinControl.WMTimeChange
 0001:000426F0       Controls.TWinControl.WMHScroll
 0001:00042710       Controls.TWinControl.WMVScroll
 0001:00042730       Controls.TWinControl.WMCompareItem
 0001:00042754       Controls.TWinControl.WMDeleteItem
 0001:00042778       Controls.TWinControl.WMDrawItem
 0001:0004279C       Controls.TWinControl.WMMeasureItem
 0001:000427BC       Controls.TWinControl.WMMouseActivate
 0001:000427F0       Controls.TWinControl.WMEraseBkgnd
 0001:00042890       Controls.TWinControl.WMWindowPosChanged
 0001:00042950       Controls.TWinControl.WMWindowPosChanging
 0001:000429A4       Controls.TWinControl.WMSize
 0001:000429DC       Controls.TWinControl.WMMove
 0001:000429F8       Controls.TWinControl.WMSetCursor
 0001:00042AFC       Controls.TWinControl.WMSetFocus
 0001:00042B18       Controls.TWinControl.WMKillFocus
 0001:00042B34       Controls.TWinControl.WMIMEStartComp
 0001:00042B48       Controls.TWinControl.WMIMEEndComp
 0001:00042B5C       Controls.TWinControl.SetIme
 0001:00042C8C       Controls.TWinControl.ResetIme
 0001:00042D6C       Controls.TWinControl.DoAddDockClient
 0001:00042D7C       Controls.TWinControl.DoRemoveDockClient
 0001:00042D80       Controls.TWinControl.DoEnter
 0001:00042DA0       Controls.TWinControl.DoExit
 0001:00042DC0       Controls.TWinControl.DockDrop
 0001:00042E10       Controls.TWinControl.DoDockOver
 0001:00042E44       Controls.TWinControl.DockOver
 0001:00042E88       Controls.TWinControl.DoUnDock
 0001:00042EE4       Controls.TWinControl.ReloadDockedControl
 0001:00042F08       Controls.TWinControl.GetDockClientCount
 0001:00042F1C       Controls.TWinControl.GetDockClients
 0001:00042F40       Controls.TWinControl.GetSiteInfo
 0001:00042F9C       Controls.TWinControl.GetVisibleDockClientCount
 0001:00042FD8       Controls.TWinControl.ControlsAligned
 0001:00042FDC       Controls.TWinControl.CreateDockManager
 0001:00043048       Controls.TWinControl.SetDesignVisible
 0001:0004307C       Controls.TWinControl.SetDockSite
 0001:00043134       Controls.TWinControl.CMDockClient
 0001:00043224       Controls.TWinControl.CMUnDockClient
 0001:0004324C       Controls.TWinControl.CMFloat
 0001:000432D0       Controls.TWinControl.KeyDown
 0001:000432FC       Controls.TWinControl.DoKeyDown
 0001:000433A4       Controls.TWinControl.WMKeyDown
 0001:000433D0       Controls.TWinControl.WMSysKeyDown
 0001:000433FC       Controls.TWinControl.KeyUp
 0001:00043428       Controls.TWinControl.DoKeyUp
 0001:00043490       Controls.TWinControl.WMKeyUp
 0001:000434B0       Controls.TWinControl.WMSysKeyUp
 0001:000434D0       Controls.TWinControl.KeyPress
 0001:000434F0       Controls.TWinControl.DoKeyPress
 0001:00043558       Controls.TWinControl.WMChar
 0001:00043578       Controls.TraverseControls
 0001:00043628       Controls.TWinControl.WMSysCommand
 0001:000436D4       Controls.TWinControl.WMCharToItem
 0001:000436F4       Controls.TWinControl.WMParentNotify
 0001:00043728       Controls.TWinControl.WMVKeyToItem
 0001:00043748       Controls.TWinControl.WMDestroy
 0001:000437AC       Controls.TWinControl.WMNCDestroy
 0001:000437C8       Controls.TWinControl.WMNCHitTest
 0001:000437EC       Controls.TWinControl.PaletteChanged
 0001:00043844       Controls.TWinControl.WMQueryNewPalette
 0001:00043868       Controls.TWinControl.WMPaletteChanged
 0001:00043888       Controls.TWinControl.CMShowHintChanged
 0001:000438A0       Controls.TWinControl.CMBiDiModeChanged
 0001:000438D8       Controls.TWinControl.CMEnter
 0001:00043948       Controls.TWinControl.CMExit
 0001:00043958       Controls.TWinControl.CMDesignHitTest
 0001:00043978       Controls.TWinControl.CMChanged
 0001:0004398C       Controls.TWinControl.CMChildKey
 0001:000439A0       Controls.TWinControl.CMDialogKey
 0001:000439A8       Controls.TWinControl.CMDialogChar
 0001:000439B0       Controls.TWinControl.CMFocusChanged
 0001:000439B8       Controls.TWinControl.CMVisibleChanged
 0001:000439E8       Controls.TWinControl.CMShowingChanged
 0001:00043A10       Controls.TWinControl.CMEnabledChanged
 0001:00043A58       Controls.TWinControl.CMColorChanged
 0001:00043A80       Controls.TWinControl.CMFontChanged
 0001:00043ABC       Controls.TWinControl.CMCursorChanged
 0001:00043AFC       Controls.TWinControl.CMBorderChanged
 0001:00043B3C       Controls.TWinControl.CMCtl3DChanged
 0001:00043B7C       Controls.TWinControl.CMParentCtl3DChanged
 0001:00043BBC       Controls.TWinControl.CMSysColorChange
 0001:00043BC4       Controls.TWinControl.CMWinIniChange
 0001:00043BCC       Controls.TWinControl.CMFontChange
 0001:00043BD4       Controls.TWinControl.CMTimeChange
 0001:00043BDC       Controls.TWinControl.CMDrag
 0001:00043C3C       Controls.TWinControl.CMControlListChange
 0001:00043C50       Controls.TWinControl.CMControlListChanging
 0001:00043C64       Controls.TWinControl.CMSysFontChanged
 0001:00043C80       Controls.TWinControl.IsMenuKey
 0001:00043D18       Controls.TWinControl.CNKeyDown
 0001:00043DFC       Controls.TWinControl.CNKeyUp
 0001:00043E50       Controls.TWinControl.CNChar
 0001:00043EA0       Controls.TWinControl.CNSysKeyDown
 0001:00043EFC       Controls.TWinControl.CNSysChar
 0001:00043F30       Controls.TWinControl.SetBounds
 0001:0004400C       Controls.TWinControl.ScaleControls
 0001:00044054       Controls.TWinControl.ChangeScale
 0001:00044100       Controls.TWinControl.ScrollBy
 0001:000441D8       Controls.TWinControl.ShowControl
 0001:000441F0       Controls.TWinControl.SetZOrderPosition
 0001:000442C8       Controls.TWinControl.SetZOrder
 0001:00044328       Controls.TWinControl.GetDeviceContext
 0001:0004437C       Controls.TWinControl.Invalidate
 0001:0004438C       Controls.TWinControl.CMInvalidate
 0001:00044420       Controls.TWinControl.Update
 0001:0004443C       Controls.TWinControl.Repaint
 0001:00044458       Controls.TWinControl.InvalidateFrame
 0001:00044490       Controls.TWinControl.CanFocus
 0001:000444D0       Controls.TWinControl.SetFocus
 0001:0004450C       Controls.TWinControl.Focused
 0001:00044530       Controls.TWinControl.HandleNeeded
 0001:00044554       Controls.TWinControl.GetHandle
 0001:00044568       Controls.TWinControl.GetControlExtents
 0001:0004469C       Controls.TWinControl.GetClientOrigin
 0001:000446BC       Controls.TWinControl.GetClientRect
 0001:000446D4       Controls.TWinControl.AdjustSize
 0001:00044710       Controls.TWinControl.SetBorderWidth
 0001:00044730       Controls.TWinControl.SetCtl3D
 0001:00044754       Controls.TWinControl.IsCtl3DStored
 0001:00044760       Controls.TWinControl.SetParentCtl3D
 0001:0004478C       Controls.TWinControl.GetTabOrder
 0001:000447B0       Controls.TWinControl.UpdateTabOrder
 0001:0004480C       Controls.TWinControl.SetTabOrder
 0001:00044824       Controls.TWinControl.SetTabStop
 0001:00044884       Controls.TWinControl.SetUseDockManager
 0001:000448F4       Controls.TWinControl.HandleAllocated
 0001:00044900       Controls.TWinControl.UpdateBounds
 0001:000449B8       Controls.TWinControl.GetTabOrderList
 0001:00044A18       Controls.TWinControl.FindNextControl
 0001:00044B24       Controls.TWinControl.SelectNext
 0001:00044B50       Controls.TWinControl.GetChildren
 0001:00044B98       Controls.TWinControl.SetChildOrder
 0001:00044BD8       Controls.TWinControl.CanResize
 0001:00044BE0       Controls.DoCalcConstraints
 0001:00044CA4       Controls.TWinControl.CalcConstraints
 0001:00045130       Controls.TWinControl.ConstrainedResize
 0001:0004516C       Controls.TWinControl.ActionChange
 0001:000451AC       Controls.TWinControl.GetActionLinkClass
 0001:000451B4       Controls.TWinControl.AssignTo
 0001:000451E4       Controls.TWinControl.CanAutoSize
 0001:000453AC       Controls.TWinControl.WMNCCalcSize
 0001:0004543C       Controls.TWinControl.WMNCPaint
 0001:00045730       Controls.TWinControl.WMContextMenu
 0001:000457A8       Controls.TWinControl.UpdateUIState
 0001:000457F4       Controls.TWinControl.WMPrintClient
 0001:00045880       Controls.TWinControl.GetParentBackground
 0001:00045888       Controls.TWinControl.SetParentBackground
 0001:000458C8       Controls.TWinControl.CMTextChanged
 0001:000458E0       Controls.TWinControl.InvalidateDockHostSite
 0001:00045914       Controls.TWinControl.DockReplaceDockClient
 0001:00045920       Controls.TWinControl.PreProcessMessage
 0001:00045924       Controls.TWinControl.RemoveWindowProps
 0001:00045954       Controls.TWinControl.IsQualifyingSite
 0001:00045978       Controls.TWinControl.DoPaddingChange
 0001:00045980       Controls.TWinControl.SetPadding
 0001:0004598C       Controls.TWinControl.UpdateRecreatingFlag
 0001:000459D8       Controls.TWinControl.UpdateControlOriginalParentSize
 0001:00045A54       Controls.TWinControl.SetParent
 0001:00045AD0       Controls.THintWindow.Create
 0001:00045B3C       Controls.THintWindow.CreateParams
 0001:00045BA0       Controls.THintWindow.WMNCHitTest
 0001:00045BA8       Controls.THintWindow.WMNCPaint
 0001:00045C0C       Controls.THintWindow.Paint
 0001:00045CB4       Controls.THintWindow.IsHintMsg
 0001:00045D18       Controls.THintWindow.ReleaseHandle
 0001:00045D24       Controls.THintWindow.CMTextChanged
 0001:00045DBC       Controls.THintWindow.ActivateHint
 0001:00045FB0       Controls.THintWindow.ActivateHintData
 0001:00045FD8       Controls.THintWindow.CalcHintRect
 0001:00046034       Controls.THintWindow.NCPaint
 0001:000460A0       Controls.THintWindow.WMPrint
 0001:000460C4       Controls.THintWindow.ShouldHideHint
 0001:000460C8       Controls.ClientToWindow
 0001:00046108       Controls.TDragImageList.SetDragImage
 0001:00046150       Controls.TDragImageList.SetDragCursor
 0001:00046174       Controls.TDragImageList.BeginDrag
 0001:000461E8       Controls.TDragImageList.DragLock
 0001:0004624C       Controls.TDragImageList.DragUnlock
 0001:00046270       Controls.TDragImageList.DragMove
 0001:000462B4       Controls.TDragImageList.ShowDragImage
 0001:000462CC       Controls.TDragImageList.HideDragImage
 0001:000462E4       Controls.TDragImageList.EndDrag
 0001:00046334       Controls.TCustomControl.Create
 0001:00046390       Controls.TCustomControl.Destroy
 0001:000463C0       Controls.TCustomControl.WMPaint
 0001:000463E0       Controls.TCustomControl.PaintWindow
 0001:0004648C       Controls.TCustomControl.Paint
 0001:00046490       Controls.NextVisibleZone
 0001:000464AC       Controls.IsOrientationSet
 0001:000464D0       Controls.TDockZone.Create
 0001:000464F4       Controls.TDockZone.GetChildCount
 0001:00046508       Controls.TDockZone.GetVisibleChildCount
 0001:0004652C       Controls.TDockZone.GetVisible
 0001:00046564       Controls.TDockZone.GetLimitBegin
 0001:000465AC       Controls.TDockZone.GetLimitSize
 0001:000465F4       Controls.TDockZone.GetTopLeft
 0001:00046678       Controls.TDockZone.GetHeightWidth
 0001:00046730       Controls.TDockZone.ResetChildren
 0001:000467D8       Controls.TDockZone.GetControlName
 0001:0004681C       Controls.TDockZone.SetControlName
 0001:000468A0       Controls.ParentNotLast
 0001:000468D0       Controls.TDockZone.Update
 0001:00046A4C       Controls.TDockZone.GetZoneLimit
 0001:00046A74       Controls.TDockZone.SetZoneLimit
 0001:00046A78       Controls.GetLastChildZone
 0001:00046A88       Controls.TDockZone.ExpandZoneLimit
 0001:00046AC8       Controls.TDockZone.ResetZoneLimits
 0001:00046B28       Controls.TDockZone.NextVisible
 0001:00046B34       Controls.TDockZone.PrevVisible
 0001:00046B50       Controls.TDockZone.FirstVisibleChild
 0001:00046B5C       Controls.TDockTree.Create
 0001:00046CC4       Controls.TDockTree.Destroy
 0001:00046D18       Controls.TDockTree.AdjustDockRect
 0001:00046D30       Controls.TDockTree.BeginUpdate
 0001:00046D34       Controls.TDockTree.EndUpdate
 0001:00046D48       Controls.DoFindControlZone
 0001:00046DA0       Controls.TDockTree.FindControlZone
 0001:00046DCC       Controls.DoForEach
 0001:00046E08       Controls.TDockTree.ForEachAt
 0001:00046E20       Controls.TDockTree.GetControlBounds
 0001:00046E94       Controls.TDockTree.HitTest
 0001:00046EA4       Controls.TDockTree.InsertControl
 0001:000470C0       Controls.TDockTree.InsertNewParent
 0001:00047268       Controls.TDockTree.InsertSibling
 0001:000472E0       Controls.TDockTree.ZoneCaptionHitTest
 0001:000473E4       Controls.TDockTree.FindControlAtPos
 0001:00047470       Controls.DoFindZone
 0001:00047584       Controls.TDockTree.InternalHitTest
 0001:0004760C       Controls.ReadControlName
 0001:00047654       Controls.TDockTree.LoadFromStream
 0001:000479A8       Controls.DrawCloseButton
 0001:00047A3C       Controls.DrawGrabberLine
 0001:00047AC4       Controls.DrawThemedGrabber
 0001:00047B20       Controls.TDockTree.PaintDockFrame
 0001:00047C74       Controls.TDockTree.PaintSite
 0001:00047DA8       Controls.TDockTree.PositionDockRect
 0001:00047F24       Controls.DoPrune
 0001:00047F58       Controls.TDockTree.PruneZone
 0001:00047FB4       Controls.TDockTree.RemoveControl
 0001:00047FF4       Controls.TDockTree.RemoveZone
 0001:00048294       Controls.TDockTree.ResetBounds
 0001:0004837C       Controls.TDockTree.ScaleZone
 0001:000483BC       Controls.WriteControlName
 0001:00048438       Controls.DoSaveZone
 0001:00048548       Controls.TDockTree.SaveToStream
 0001:000486FC       Controls.DoSetNewBounds
 0001:00048784       Controls.TDockTree.SetNewBounds
 0001:000487B4       Controls.TDockTree.SetReplacingControl
 0001:000487CC       Controls.TDockTree.ShiftZone
 0001:00048800       Controls.TDockTree.SplitterMouseDown
 0001:00048860       Controls.TDockTree.SplitterMouseUp
 0001:000488DC       Controls.TDockTree.UpdateAll
 0001:00048904       Controls.TDockTree.UpdateZone
 0001:00048914       Controls.TDockTree.WindowProc
 0001:00048928       Controls.TDockTree.DrawSizeSplitter
 0001:00048A14       Controls.DoGetNextLimit
 0001:00048AA4       Controls.TDockTree.GetNextLimit
 0001:00048AF4       Controls.GetDockAlign
 0001:00048B70       Controls.HideZone
 0001:00048BF0       Controls.ShowZone
 0001:00048D28       Controls.TDockTree.ControlVisibilityChanged
 0001:00048DB0       Controls.TDockTree.WndProc
 0001:00049048       Controls.TDockTree.ActualSize
 0001:00049078       Controls.TDockTree.RelativeSize
 0001:000490B0       Controls.TDockTree.ReferenceFromOrient
 0001:000490DC       Controls.TDockTree.AdjustFrameRect
 0001:0004911C       Controls.TDockTree.MouseDown
 0001:00049240       Controls.CalcSplitterPos
 0001:000492D0       Controls.TDockTree.MouseMove
 0001:00049320       Controls.TDockTree.MouseUp
 0001:00049394       Controls.TDockTree.ShowHint
 0001:00049488       Controls.TMouse.Create
 0001:00049518       Controls.TMouse.CreatePanningWindow
 0001:00049544       Controls.TMouse.Destroy
 0001:00049574       Controls.TMouse.GetCapture
 0001:0004957C       Controls.TMouse.GetCursorPos
 0001:0004958C       Controls.TMouse.GetIsDragging
 0001:00049598       Controls.TMouse.GetIsPanning
 0001:000495BC       Controls.TMouse.GetMouseData
 0001:000495D8       Controls.TMouse.GetNativeData
 0001:00049608       Controls.TMouse.GetRegisteredData
 0001:00049630       Controls.TMouse.SetCapture
 0001:00049658       Controls.TMouse.SetPanningWindow
 0001:00049678       Controls.TMouse.SettingChanged
 0001:000496DC       Controls.InitIMM32
 0001:00049944       Controls.Win32NLSEnableIME
 0001:00049960       Controls.SetImeMode
 0001:00049A38       Controls.Imm32IsIME
 0001:00049A4C       Controls.DoneControls
 0001:00049AD4       Controls.InitControls
 0001:00049CA0       Controls.TMargins.Create
 0001:00049CE4       Controls.TMargins.AssignTo
 0001:00049D2C       Controls.TMargins.Change
 0001:00049D40       Controls.TMargins.InitDefaults
 0001:00049D60       Controls.TMargins.SetMargin
 0001:00049DB8       Controls.TMargins.SetControlBounds
 0001:00049EA4       Controls.TMargins.GetControlBound
 0001:0004A068       Controls.TPadding.InitDefaults
 0001:0004A06C       Controls.Finalization
 0001:0004A0D4       Menus..EMenuError
 0001:0004A388       Menus..TMenuActionLink
 0001:0004A460       Menus..TMenuItem
 0001:0004A884       Menus..TMenu
 0001:0004A980       Menus..TMainMenu
 0001:0004AC64       Menus..TPopupMenu
 0001:0004AF08       Menus..TPopupList
 0001:0004AF74       Menus..TMenuItemStack
 0001:0004B00C       Menus.FindPopupControl
 0001:0004B040       Menus.ReturnAddr
 0001:0004B048       Menus.Error
 0001:0004B068       Menus.ShortCut
 0001:0004B0A0       Menus.GetSpecialName
 0001:0004B0F4       Menus.ShortCutToText
 0001:0004B2EC       Menus.CompareFront
 0001:0004B374       Menus.TextToShortCut
 0001:0004B4B8       Menus.UniqueCommand
 0001:0004B4D8       Menus.Iterate
 0001:0004B53C       Menus.IterateMenus
 0001:0004B648       Menus.TMenuActionLink.AssignClient
 0001:0004B664       Menus.TMenuActionLink.IsAutoCheckLinked
 0001:0004B68C       Menus.TMenuActionLink.IsCaptionLinked
 0001:0004B6C4       Menus.TMenuActionLink.IsCheckedLinked
 0001:0004B6F4       Menus.TMenuActionLink.IsEnabledLinked
 0001:0004B724       Menus.TMenuActionLink.IsHelpContextLinked
 0001:0004B754       Menus.TMenuActionLink.IsHintLinked
 0001:0004B788       Menus.TMenuActionLink.IsGroupIndexLinked
 0001:0004B7C4       Menus.TMenuActionLink.IsImageIndexLinked
 0001:0004B7F8       Menus.TMenuActionLink.IsShortCutLinked
 0001:0004B82C       Menus.TMenuActionLink.IsVisibleLinked
 0001:0004B860       Menus.TMenuActionLink.IsOnExecuteLinked
 0001:0004B888       Menus.TMenuActionLink.SetAutoCheck
 0001:0004B8A8       Menus.TMenuActionLink.SetCaption
 0001:0004B8C8       Menus.TMenuActionLink.SetChecked
 0001:0004B8E8       Menus.TMenuActionLink.SetEnabled
 0001:0004B908       Menus.TMenuActionLink.SetHelpContext
 0001:0004B924       Menus.TMenuActionLink.SetHint
 0001:0004B948       Menus.TMenuActionLink.SetImageIndex
 0001:0004B968       Menus.TMenuActionLink.SetShortCut
 0001:0004B988       Menus.TMenuActionLink.SetVisible
 0001:0004B9A8       Menus.TMenuActionLink.SetOnExecute
 0001:0004B9D4       Menus.TMenuItem.Create
 0001:0004BA50       Menus.TMenuItem.Destroy
 0001:0004BB04       Menus.TMenuItem.AppendTo
 0001:0004BD7C       Menus.AddIn
 0001:0004BD98       Menus.TMenuItem.PopulateMenu
 0001:0004BE08       Menus.TMenuItem.ReadShortCutText
 0001:0004BE60       Menus.TMenuItem.MergeWith
 0001:0004BE9C       Menus.TMenuItem.Loaded
 0001:0004BED8       Menus.TMenuItem.RebuildHandle
 0001:0004BFA8       Menus.TMenuItem.VerifyGroupIndex
 0001:0004C008       Menus.TMenuItem.GetHandle
 0001:0004C054       Menus.TMenuItem.DefineProperties
 0001:0004C098       Menus.TMenuItem.DoDrawText
 0001:0004C2B0       Menus.TMenuItem.DrawItem
 0001:0004C2F0       Menus.NormalDraw
 0001:0004CC50       Menus.BiDiDraw
 0001:0004D5D0       Menus.TMenuItem.AdvancedDrawItem
 0001:0004D728       Menus.TMenuItem.GetImageList
 0001:0004D758       Menus.GetMenuSize
 0001:0004D7A4       Menus.TMenuItem.MeasureItem
 0001:0004D9A4       Menus.TMenuItem.HasParent
 0001:0004D9A8       Menus.TMenuItem.SetBreak
 0001:0004D9B8       Menus.TMenuItem.SetCaption
 0001:0004D9E0       Menus.TMenuItem.TurnSiblingsOff
 0001:0004DA2C       Menus.TMenuItem.SetChecked
 0001:0004DA80       Menus.TMenuItem.SetEnabled
 0001:0004DAF8       Menus.TMenuItem.SetGroupIndex
 0001:0004DB3C       Menus.TMenuItem.GetAction
 0001:0004DB4C       Menus.TMenuItem.GetActionLinkClass
 0001:0004DB54       Menus.TMenuItem.GetCount
 0001:0004DB64       Menus.TMenuItem.GetItem
 0001:0004DB88       Menus.TMenuItem.SetShortCut
 0001:0004DB9C       Menus.TMenuItem.SetVisible
 0001:0004DBAC       Menus.TMenuItem.SetImageIndex
 0001:0004DBBC       Menus.TMenuItem.GetMenuIndex
 0001:0004DBD4       Menus.TMenuItem.SetMenuIndex
 0001:0004DC1C       Menus.TMenuItem.GetChildren
 0001:0004DC54       Menus.TMenuItem.SetChildOrder
 0001:0004DC74       Menus.TMenuItem.SetDefault
 0001:0004DCD0       Menus.TMenuItem.InitiateAction
 0001:0004DCE0       Menus.TMenuItem.Insert
 0001:0004DD98       Menus.TMenuItem.Delete
 0001:0004DE0C       Menus.TMenuItem.Click
 0001:0004DEBC       Menus.TMenuItem.IndexOf
 0001:0004DED4       Menus.TMenuItem.Add
 0001:0004DEF0       Menus.TMenuItem.Remove
 0001:0004DF18       Menus.TMenuItem.MenuChanged
 0001:0004DF5C       Menus.TMenuItem.SubItemChanged
 0001:0004DFB4       Menus.TMenuItem.GetBitmap
 0001:0004DFDC       Menus.TMenuItem.SetAction
 0001:0004E04C       Menus.TMenuItem.SetBitmap
 0001:0004E080       Menus.TMenuItem.InitiateActions
 0001:0004E0AC       Menus.TMenuItem.GetParentComponent
 0001:0004E0C0       Menus.TMenuItem.SetParentComponent
 0001:0004E114       Menus.TMenuItem.GetParentMenu
 0001:0004E124       Menus.TMenuItem.SetRadioItem
 0001:0004E150       Menus.TMenuItem.ActionChange
 0001:0004E274       Menus.TMenuItem.DoActionChange
 0001:0004E298       Menus.TMenuItem.IsCaptionStored
 0001:0004E2B8       Menus.TMenuItem.IsCheckedStored
 0001:0004E2D8       Menus.TMenuItem.IsEnabledStored
 0001:0004E2F8       Menus.TMenuItem.IsHintStored
 0001:0004E318       Menus.TMenuItem.IsHelpContextStored
 0001:0004E338       Menus.TMenuItem.IsImageIndexStored
 0001:0004E358       Menus.TMenuItem.IsShortCutStored
 0001:0004E378       Menus.TMenuItem.IsVisibleStored
 0001:0004E398       Menus.TMenuItem.IsOnClickStored
 0001:0004E3B8       Menus.TMenuItem.AssignTo
 0001:0004E434       Menus.TMenuItem.Notification
 0001:0004E488       Menus.TMenuItem.SetSubMenuImages
 0001:0004E4C4       Menus.TMenuItem.ImageListChange
 0001:0004E4D0       Menus.UpdateItem
 0001:0004E4F8       Menus.TMenuItem.UpdateItems
 0001:0004E50C       Menus.IfHotkeyAvailable
 0001:0004E53C       Menus.CopyToBest
 0001:0004E5C0       Menus.InsertHotkeyFarEastFormat
 0001:0004E740       Menus.TMenuItem.InternalRethinkHotkeys
 0001:0004EBF4       Menus.TMenuItem.SetAutoHotkeys
 0001:0004EC04       Menus.TMenuItem.IsLine
 0001:0004EC28       Menus.TMenuItem.InternalRethinkLines
 0001:0004ED70       Menus.TMenuItem.SetAutoLineReduction
 0001:0004ED80       Menus.TMenuItem.GetAutoHotkeys
 0001:0004EDB0       Menus.TMenuItem.GetAutoLineReduction
 0001:0004EDE0       Menus.TMenu.Create
 0001:0004EE7C       Menus.TMenu.CreateMenuItem
 0001:0004EE8C       Menus.TMenu.Destroy
 0001:0004EEC4       Menus.TMenu.GetChildren
 0001:0004EEE0       Menus.TMenu.GetHandle
 0001:0004EEEC       Menus.TMenu.SetChildOrder
 0001:0004EF00       Menus.UpdateItem
 0001:0004EF28       Menus.TMenu.UpdateItems
 0001:0004EF40       Menus.Find
 0001:0004EFD8       Menus.TMenu.FindItem
 0001:0004F008       Menus.TMenu.GetHelpContext
 0001:0004F078       Menus.TMenu.DispatchCommand
 0001:0004F094       Menus.TMenu.DispatchPopup
 0001:0004F15C       Menus.TMenu.IsOwnerDraw
 0001:0004F170       Menus.GetAltGRStatus
 0001:0004F314       Menus.IsAltGRPressed
 0001:0004F350       Menus.ShortCutFromMessage
 0001:0004F3A0       Menus.NthParentOf
 0001:0004F3B0       Menus.DoClick
 0001:0004F504       Menus.TMenu.IsShortCut
 0001:0004F5F8       Menus.TMenu.IsBiDiModeStored
 0001:0004F600       Menus.TMenu.DoBiDiModeChanged
 0001:0004F6BC       Menus.BuildImage
 0001:0004F768       Menus.TMenu.UpdateImage
 0001:0004F7EC       Menus.TMenu.SetOwnerDraw
 0001:0004F7FC       Menus.TMenu.AdjustBiDiBehavior
 0001:0004F87C       Menus.TMenu.SetWindowHandle
 0001:0004F8B4       Menus.TMenu.DoChange
 0001:0004F8CC       Menus.TMenu.Loaded
 0001:0004F8E4       Menus.TMenu.MenuChanged
 0001:0004F920       Menus.TMenu.ImageListChange
 0001:0004F92C       Menus.TMenu.SetImages
 0001:0004F968       Menus.TMenu.Notification
 0001:0004F994       Menus.TMenu.IsRightToLeft
 0001:0004F9AC       Menus.IsAccelChar
 0001:0004FA08       Menus.IsInitialChar
 0001:0004FB48       Menus.TMenu.ProcessMenuChar
 0001:0004FCC4       Menus.TMenu.DoGetMenuString
 0001:0004FD6C       Menus.TMenu.SetBiDiMode
 0001:0004FD80       Menus.TMenu.SetParentBiDiMode
 0001:0004FD90       Menus.TMenu.ParentBiDiModeChanged
 0001:0004FDB8       Menus.TMenu.ParentBiDiModeChanged
 0001:0004FDE4       Menus.TMenu.GetAutoHotkeys
 0001:0004FDF4       Menus.TMenu.SetAutoHotkeys
 0001:0004FE08       Menus.TMenu.GetAutoLineReduction
 0001:0004FE18       Menus.TMenu.SetAutoLineReduction
 0001:0004FE2C       Menus.TMainMenu.SetAutoMerge
 0001:0004FE4C       Menus.TMainMenu.MenuChanged
 0001:0004FEA8       Menus.TMainMenu.Merge
 0001:0004FEC4       Menus.TMainMenu.Unmerge
 0001:0004FEE0       Menus.TMainMenu.ItemChanged
 0001:0004FF0C       Menus.TMainMenu.GetHandle
 0001:0004FF1C       Menus.TPopupList.MainWndProc
 0001:0004FF68       Menus.TPopupList.WndProc
 0001:000504AC       Menus.TPopupList.Add
 0001:000504D4       Menus.TPopupList.Remove
 0001:000504F0       Menus.TPopupMenu.Create
 0001:00050564       Menus.TPopupMenu.Destroy
 0001:00050598       Menus.TPopupMenu.DoPopup
 0001:000505AC       Menus.TPopupMenu.GetHelpContext
 0001:000505B4       Menus.TPopupMenu.SetHelpContext
 0001:000505BC       Menus.TPopupMenu.SetBiDiModeFromPopupControl
 0001:00050608       Menus.TPopupMenu.UseRightToLeftAlignment
 0001:00050654       Menus.TPopupMenu.Popup
 0001:00050704       Menus.TPopupMenu.SetPopupPoint
 0001:00050724       Menus.TMenuItemStack.ClearItem
 0001:00050760       Menus.DrawMenuItem
 0001:00050848       Menus.StripHotkey
 0001:00050938       Menus.GetHotkey
 0001:000509A0       Menus.AnsiSameCaption
 0001:00050AE8       Menus.Finalization
 0001:00050B58       ActnList..TContainedAction
 0001:00050C7C       ActnList..TCustomActionList
 0001:00050D5C       ActnList..TShortCutList
 0001:00050E78       ActnList..TCustomAction
 0001:00050F80       ActnList..TActionLink
 0001:00051050       ActnList.TContainedAction.Destroy
 0001:00051084       ActnList.TContainedAction.GetIndex
 0001:0005109C       ActnList.TContainedAction.IsCategoryStored
 0001:000510A0       ActnList.TContainedAction.GetParentComponent
 0001:000510B0       ActnList.TContainedAction.HasParent
 0001:000510C0       ActnList.TContainedAction.ReadState
 0001:000510F4       ActnList.TContainedAction.SetIndex
 0001:0005113C       ActnList.TContainedAction.SetCategory
 0001:00051168       ActnList.TContainedAction.SetActionList
 0001:00051190       ActnList.TContainedAction.SetParentComponent
 0001:000511BC       ActnList.TContainedAction.Execute
 0001:00051214       ActnList.TContainedAction.Update
 0001:0005126C       ActnList.TCustomActionList.Create
 0001:000512D8       ActnList.TCustomActionList.Destroy
 0001:00051328       ActnList.TCustomActionList.GetChildren
 0001:00051370       ActnList.TCustomActionList.SetChildOrder
 0001:000513A0       ActnList.TCustomActionList.GetAction
 0001:000513B4       ActnList.TCustomActionList.GetActionCount
 0001:000513BC       ActnList.TCustomActionList.SetImages
 0001:000513F0       ActnList.TCustomActionList.ImageListChange
 0001:000513FC       ActnList.TCustomActionList.Notification
 0001:00051444       ActnList.TCustomActionList.AddAction
 0001:00051464       ActnList.TCustomActionList.RemoveAction
 0001:00051480       ActnList.TCustomActionList.Change
 0001:000514E8       ActnList.TCustomActionList.IsShortCut
 0001:0005158C       ActnList.TCustomActionList.ExecuteAction
 0001:000515AC       ActnList.TCustomActionList.UpdateAction
 0001:000515CC       ActnList.TCustomActionList.SetState
 0001:00051670       ActnList.TActionLink.IsCaptionLinked
 0001:00051684       ActnList.TActionLink.IsCheckedLinked
 0001:00051698       ActnList.TActionLink.IsEnabledLinked
 0001:000516AC       ActnList.TActionLink.IsGroupIndexLinked
 0001:000516C0       ActnList.TActionLink.IsHelpContextLinked
 0001:000516D4       ActnList.TActionLink.IsHelpLinked
 0001:000516E8       ActnList.TActionLink.IsHintLinked
 0001:000516FC       ActnList.TActionLink.IsImageIndexLinked
 0001:00051710       ActnList.TActionLink.IsShortCutLinked
 0001:00051724       ActnList.TActionLink.IsVisibleLinked
 0001:00051738       ActnList.TActionLink.SetAutoCheck
 0001:0005173C       ActnList.TActionLink.SetCaption
 0001:00051740       ActnList.TActionLink.SetChecked
 0001:00051744       ActnList.TActionLink.SetEnabled
 0001:00051748       ActnList.TActionLink.SetGroupIndex
 0001:0005174C       ActnList.TActionLink.SetHelpContext
 0001:00051750       ActnList.TActionLink.SetHelpKeyword
 0001:00051754       ActnList.TActionLink.SetHelpType
 0001:00051758       ActnList.TActionLink.SetHint
 0001:0005175C       ActnList.TActionLink.SetImageIndex
 0001:00051760       ActnList.TActionLink.SetShortCut
 0001:00051764       ActnList.TActionLink.SetVisible
 0001:00051768       ActnList.TCustomAction.Create
 0001:000517BC       ActnList.TCustomAction.Destroy
 0001:0005180C       ActnList.TCustomAction.AssignTo
 0001:000518BC       ActnList.TCustomAction.SetCaption
 0001:0005191C       ActnList.TCustomAction.SetChecked
 0001:00051A24       ActnList.TCustomAction.SetEnabled
 0001:00051AA0       ActnList.TCustomAction.SetHelpKeyword
 0001:00051B08       ActnList.TCustomAction.SetHelpContext
 0001:00051B60       ActnList.TCustomAction.SetHint
 0001:00051BC0       ActnList.TCustomAction.SetImageIndex
 0001:00051C1C       ActnList.TCustomAction.SetShortCut
 0001:00051C80       ActnList.TCustomAction.SetVisible
 0001:00051CE0       ActnList.TCustomAction.SetName
 0001:00051D2C       ActnList.TCustomAction.DoHint
 0001:00051D54       ActnList.TCustomAction.Execute
 0001:00051DB8       ActnList.TCustomAction.GetSecondaryShortCuts
 0001:00051DE0       ActnList.TCustomAction.HandleShortCut
 0001:00051DEC       ActnList.TShortCutList.Add
 0001:00051E18       ActnList.TShortCutList.IndexOfShortCut
 0001:00051E5C       ActnList.Finalization
 0001:00051E8C       ImgList..TChangeLink
 0001:00051F08       ImgList..TCustomImageList
 0001:00051FE0       ImgList.GetRGBColor
 0001:00052000       ImgList.GetColor
 0001:00052020       ImgList.TCustomImageList.Create
 0001:0005206C       ImgList.TCustomImageList.Destroy
 0001:000520D8       ImgList.TCustomImageList.Initialize
 0001:00052190       ImgList.TCustomImageList.HandleAllocated
 0001:00052198       ImgList.TCustomImageList.HandleNeeded
 0001:000521A4       ImgList.TCustomImageList.InitBitmap
 0001:00052268       ImgList.TCustomImageList.SetNewDimensions
 0001:000522A0       ImgList.TCustomImageList.SetHandle
 0001:000522CC       ImgList.TCustomImageList.GetHandle
 0001:000522DC       ImgList.TCustomImageList.GetImageHandle
 0001:00052330       ImgList.TCustomImageList.FreeHandle
 0001:00052368       ImgList.TCustomImageList.CreateImageList
 0001:00052408       ImgList.TCustomImageList.Add
 0001:000524D4       ImgList.TCustomImageList.GetCount
 0001:000524F8       ImgList.TCustomImageList.Delete
 0001:00052584       ImgList.TCustomImageList.Clear
 0001:00052590       ImgList.TCustomImageList.SetBkColor
 0001:000525C8       ImgList.TCustomImageList.GetBkColor
 0001:000525F0       ImgList.TCustomImageList.DoDraw
 0001:000527C4       ImgList.TCustomImageList.Draw
 0001:000527EC       ImgList.TCustomImageList.Draw
 0001:00052838       ImgList.TCustomImageList.CopyImages
 0001:000529E0       ImgList.TCustomImageList.AddImages
 0001:00052A00       ImgList.TCustomImageList.Assign
 0001:00052AC4       ImgList.TCustomImageList.AssignTo
 0001:00052B78       ImgList.TCustomImageList.CheckImage
 0001:00052BF0       ImgList.TCustomImageList.SetDrawingStyle
 0001:00052C08       ImgList.TCustomImageList.GetHotSpot
 0001:00052C18       ImgList.TCustomImageList.Change
 0001:00052C68       ImgList.TCustomImageList.UnRegisterChanges
 0001:00052CAC       ImgList.TCustomImageList.RegisterChanges
 0001:00052CC0       ImgList.StreamsEqual
 0001:00052D04       ImgList.TCustomImageList.Equal
 0001:00052DF4       ImgList.DoWrite
 0001:00052E50       ImgList.TCustomImageList.DefineProperties
 0001:00052EA8       ImgList.TCustomImageList.ReadD2Stream
 0001:0005313C       ImgList.TCustomImageList.ReadD3Stream
 0001:00053304       ImgList.TCustomImageList.ReadData
 0001:00053390       ImgList.TCustomImageList.WriteData
 0001:000534D4       ImgList.TCustomImageList.BeginUpdate
 0001:000534D8       ImgList.TCustomImageList.EndUpdate
 0001:000534F8       ImgList.TChangeLink.Destroy
 0001:0005352C       ImgList.TChangeLink.Change
 0001:00053544       WinSvc.CloseServiceHandle
 0001:0005354C       WinSvc.CreateService
 0001:00053554       WinSvc.OpenSCManager
 0001:0005355C       WinSvc.OpenService
 0001:00053564       WinSvc.StartService
 0001:0005356C       KeyboardLED_D90.SystemVersion
 0001:000535B0       KeyboardLED_D90.LastErrorMsgStr
 0001:00053648       KeyboardLED_D90.PortIn
 0001:00053650       KeyboardLED_D90.PortOut
 0001:00053654       KeyboardLED_D90.CTL_CODE
 0001:00053670       KeyboardLED_D90.Inp32
 0001:000536DC       KeyboardLED_D90.Out32
 0001:00053738       KeyboardLED_D90.start
 0001:00053828       KeyboardLED_D90.inst
 0001:00053A1C       KeyboardLED_D90.Opendriver
 0001:00053A90       KeyboardLED_D90.sendKeyControl
 0001:00053ADC       KeyboardLED_D90.SetKeyboardLED
 0001:00053B24       KeyboardLED_D90.ResetKeyboardLED
 0001:00053B9C       KeyboardLED_D90.Finalization
 0001:00053BE0       Unit1..TForm1
 0001:00053DE0       Unit1.TForm1.btn_Button2Click
 0001:00053E5C       Unit1.TForm1.ResetClick
 0001:00053E64       KeybLEDDemo_D90.Finalization
 0002:00000000       System.System
 0002:00000098       Windows.Windows
 0002:000000AC       SysUtils.SysUtils
 0002:00000134       VarUtils.VarUtils
 0002:00000144       Variants.Variants
 0002:000001F0       TypInfo.TypInfo
 0002:000001F8       Classes.Classes
 0002:0000028C       IniFiles.IniFiles
 0002:00000294       Registry.Registry
 0002:0000029C       Graphics.Graphics
 0002:00000398       MultiMon.MultiMon
 0002:000003A8       HelpIntfs.HelpIntfs
 0002:000003B0       Printers.Printers
 0002:000003B8       FlatSB.FlatSB
 0002:000003C8       UxTheme.UxTheme
 0002:000003E4       Themes.Themes
 0002:000003EC       GraphUtil.GraphUtil
 0002:0000046C       ExtCtrls.ExtCtrls
 0002:000004B0       Dialogs.Dialogs
 0002:000004F0       Clipbrd.Clipbrd
 0002:00000548       Forms.Forms
 0002:00000594       Controls.Controls
 0002:00000624       Menus.Menus
 0002:000006AC       ActnList.ActnList
 0002:000006D8       KeyboardLED_D90.KeyboardLED_D90
 0002:00000700       KeybLEDDemo_D90.KeybLEDDemo_D90
 0003:00000000       System.ExitCode
 0003:00000004       System.ErrorAddr
 0003:00000008       System.FileMode
 0003:0000000C       System.VarClearProc
 0003:00000010       System.VarAddRefProc
 0003:00000014       System.VarCopyProc
 0003:00000018       System.VarToLStrProc
 0003:0000001C       System.VarToWStrProc
 0003:00000020       System.Default8087CW
 0003:00000024       System.DebugHook
 0003:00000028       System.JITEnable
 0003:0000002C       System.NoErrMsg
 0003:00000030       System.DefaultTextLineBreakStyle
 0003:00000034       System.LibModuleList
 0003:00000038       System.ModuleUnloadList
 0003:0000003C       System.Copyright
 0003:00000040       System.SmallBlockTypes
 0003:00000720       System.MemoryManager
 0003:00000738       System.reMap
 0003:00000754       System.errCaption
 0003:0000075C       System.runErrMsg
 0003:0000077C       System.dig
 0003:0000078C       SysInit.TlsIndex
 0003:00000790       SysInit.PtrToNil
 0003:00000794       SysInit.Module
 0003:000007AC       SysUtils.EmptyStr
 0003:000007B0       SysUtils.EmptyWideStr
 0003:000007B4       SysUtils.Win32Platform
 0003:000007B8       SysUtils.Win32MajorVersion
 0003:000007BC       SysUtils.Win32MinorVersion
 0003:000007C0       SysUtils.Win32BuildNumber
 0003:000007C4       SysUtils.Win32CSDVersion
 0003:000007C8       SysUtils.TwoDigitYearCenturyWindow
 0003:000007CC       SysUtils.MonthDays
 0003:000007FC       SysUtils.LeadBytes
 0003:0000081C       SysUtils.HexDisplayPrefix
 0003:00000820       SysUtils.GetDiskFreeSpaceEx
 0003:00000824       SysUtils.ExitProcList
 0003:00000828       SysUtils.cSimpleBoolStrs
 0003:00000830       SysUtils.AccessMode
 0003:0000083C       SysUtils.ShareMode
 0003:00000850       SysUtils.FormatErrorStrs
 0003:00000858       SysUtils.FCon1E18
 0003:00000864       SysUtils.DCon10
 0003:00000868       SysUtils.CWNear
 0003:0000086C       SysUtils.FMSecsPerDay
 0003:00000870       SysUtils.IMSecsPerDay
 0003:00000874       SysUtils.Format
 0003:00000878       SysUtils.DefShortMonthNames
 0003:000008A8       SysUtils.DefLongMonthNames
 0003:000008D8       SysUtils.DefShortDayNames
 0003:000008F4       SysUtils.DefLongDayNames
 0003:00000910       SysUtils.ErrorMap
 0003:00000948       SysUtils.ExceptMap
 0003:000009F8       SysUtils.TerminateProcList
 0003:000009FC       VarUtils.CResult
 0003:00000A04       Variants.NullStrictConvert
 0003:00000A08       Variants.NullAsStringValue
 0003:00000A0C       Variants.PackVarCreation
 0003:00000A10       Variants.BooleanToStringRule
 0003:00000A14       Variants.CInvalidCustomVariantType
 0003:00000A18       Variants.CRangeToType
 0003:00000A2C       Variants.CText
 0003:00000A80       Variants.CRelationshipToBoolean
 0003:00000A94       TypInfo.BooleanIdents
 0003:00000A9C       TypInfo.DotSep
 0003:00000AA0       Classes.AddDataModule
 0003:00000AA8       Classes.RemoveDataModule
 0003:00000AB0       Classes.ApplicationHandleException
 0003:00000AB8       Classes.ApplicationShowException
 0003:00000AC0       Classes.WakeMainThread
 0003:00000AC8       Classes.FilerSignature
 0003:00000ACC       Classes.NilMethod
 0003:00000AD4       Classes.SyncList
 0003:00000AD8       Classes.BlockCode
 0003:00000ADC       Classes.UtilWindowClass
 0003:00000B04       IniFiles.Values
 0003:00000B0C       Registry.Values
 0003:00000B14       Graphics.DefFontData
 0003:00000B44       Graphics.DDBsOnly
 0003:00000B48       Graphics.Colors
 0003:00000CE8       Graphics.FontCharsets
 0003:00000D78       Graphics.DefPenData
 0003:00000D88       Graphics.PenStyles
 0003:00000D9C       Graphics.DefBrushData
 0003:00000DAC       Graphics.PenModes
 0003:00000DCC       Graphics.ClipboardFormats
 0003:00000DD0       Graphics.FileFormats
 0003:00000DD4       Graphics.BitmapCanvasList
 0003:00000DD8       Graphics.DIBPalSizes
 0003:00000DDC       Graphics.PalSize
 0003:00000DE0       Graphics.Pal16
 0003:00000E20       Printers.FPrinter
 0003:00000E24       Themes.ThemeServicesClass
 0003:00000E28       Themes.Copyright
 0003:00000E2C       Themes.ThemeDataNames
 0003:00000E8C       StdCtrls.ButtonStyles
 0003:00000E94       StdCtrls.Alignments
 0003:00000EA4       GraphUtil.WebNamedColors
 0003:000012F4       Dialogs.CreationControl
 0003:000012F8       Dialogs.WndProcPtrAtom
 0003:000012FC       Dialogs.Captions
 0003:00001310       Dialogs.ButtonNames
 0003:0000133C       Dialogs.ButtonCaptions
 0003:00001368       Forms.HintWindowClass
 0003:0000136C       Forms.SetLayeredWindowAttributes
 0003:00001370       Forms.FocusMessages
 0003:00001374       Forms.FocusCount
 0003:00001378       Forms.TaskActiveWindow
 0003:0000137C       Forms.TaskFirstWindow
 0003:00001380       Forms.TaskFirstTopMost
 0003:00001384       Forms.DisablingWindows
 0003:00001388       Forms.TaskWindowList
 0003:0000138C       Forms.SysConsts
 0003:00001394       Forms.SysConsts
 0003:0000139C       Forms.Props
 0003:000013C4       Forms.Styles
 0003:000013D0       Forms.HWND_STYLE
 0003:000013D8       Forms.ShowCommands
 0003:000013E4       Forms.ShowCommands
 0003:000013F0       Forms.ShowCommands
 0003:000013FC       Forms.cUseAlpha
 0003:00001404       Forms.cUseColorKey
 0003:0000140C       Forms.CursorMap
 0003:00001460       Forms.WindowClass
 0003:00001488       Forms.AppVisible
 0003:0000148C       Forms.ShowFlags
 0003:00001490       Controls.AnimateWindowProc
 0003:00001494       Controls.CreationControl
 0003:00001498       Controls.DefaultDockTreeClass
 0003:0000149C       Controls.AnchorAlign
 0003:000014A4       Controls.Cursors
 0003:00001554       Controls.CaptureControl
 0003:00001558       Controls.ShowFlags
 0003:0000155C       Controls.WindowPos
 0003:00001560       Controls.InnerStyles
 0003:00001570       Controls.OuterStyles
 0003:00001580       Controls.EdgeStyles
 0003:00001590       Controls.Ctl3DStyles
 0003:00001598       Controls.AnimationStyle
 0003:000015A4       Controls.OrientArray
 0003:000015AC       Controls.MakeLast
 0003:000015B4       Controls.TreeStreamEndFlag
 0003:000015B8       Controls.SizeCursors
 0003:000015C0       Controls.IMM32DLL
 0003:000015C4       Controls.ModeMap
 0003:000015CC       Menus.ValidMenuHotkeys
 0003:000015D0       Menus.cMenuAutoFlagToItem
 0003:000015D4       Menus.cItemAutoFlagToMenu
 0003:000015D8       Menus.cBooleanToItemAutoFlag
 0003:000015DC       Menus.cItemAutoFlagToBoolean
 0003:000015E0       Menus.MenuKeyCaps
 0003:00001628       Menus.Checks
 0003:00001630       Menus.Enables
 0003:00001638       Menus.Breaks
 0003:00001644       Menus.Separators
 0003:0000164C       Menus.IBreaks
 0003:00001658       Menus.IChecks
 0003:00001660       Menus.IDefaults
 0003:00001668       Menus.IEnables
 0003:00001670       Menus.IRadios
 0003:00001678       Menus.ISeparators
 0003:00001680       Menus.IRTL
 0003:00001688       Menus.IOwnerDraw
 0003:00001690       Menus.Alignments
 0003:00001698       Menus.EdgeStyle
 0003:000016A0       Menus.Alignments
 0003:000016A8       Menus.CurrentKeyboardLayout
 0003:000016AC       Menus.IsAltGRKeyLayout
 0003:000016B0       Menus.Flags
 0003:000016BC       Menus.Buttons
 0003:000016C0       ImgList.DrawingStyles
 0003:000016D0       ImgList.Images
 0003:000016D8       ImgList.Mask
 0004:00000000       System.DispCallByIDProc
 0004:00000004       System.ExceptProc
 0004:00000008       System.ErrorProc
 0004:0000000C       System.ExceptClsProc
 0004:00000010       System.ExceptObjProc
 0004:00000014       System.RaiseExceptionProc
 0004:00000018       System.RTLUnwindProc
 0004:0000001C       System.ExceptionClass
 0004:00000020       System.AssertErrorProc
 0004:00000024       System.ExitProcessProc
 0004:00000028       System.AbstractErrorProc
 0004:0000002C       System.MainInstance
 0004:00000030       System.MainThreadID
 0004:00000034       System.IsLibrary
 0004:00000038       System.CmdShow
 0004:0000003C       System.CmdLine
 0004:00000040       System.InitProc
 0004:00000044       System.ExitProc
 0004:00000048       System.IsConsole
 0004:00000049       System.IsMultiThread
 0004:0000004A       System.Test8086
 0004:0000004C       System.Input
 0004:00000218       System.Output
 0004:000003E4       System.ErrOutput
 0004:000005B0       System.ReportMemoryLeaksOnShutdown
 0004:000005B4       System..6
 0004:000005B8       System.DefaultSystemCodePage
 0004:000005BC       System.AllocSize2SmallBlockTypeIndX4
 0004:00000702       System.MinimumBlockAlignment
 0004:00000704       System.MediumBlockPoolsCircularList
 0004:00000714       System.MediumBlocksLocked
 0004:00000718       System.LastSequentiallyFedMediumBlock
 0004:0000071C       System.MediumSequentialFeedBytesLeft
 0004:00000720       System.MediumBlockBinGroupBitmap
 0004:00000724       System.MediumBlockBinBitmaps
 0004:000007A4       System.MediumBlockBins
 0004:000027A4       System.LargeBlocksLocked
 0004:000027A8       System.LargeBlocksCircularList
 0004:000027B8       System.ExpectedMemoryLeaks
 0004:000027BC       System.ExpectedMemoryLeaksListLocked
 0004:000027C0       System.MMSharingWindow
 0004:000027C4       System.InitContext
 0004:000027F0       SysInit.ModuleIsLib
 0004:000027F1       SysInit.ModuleIsCpp
 0004:000027F4       SysInit.HInstance
 0004:000027F8       SysInit.tlsBuffer
 0004:000027FC       Windows..3
 0004:00002800       Windows.HtmlHelpModule
 0004:00002804       SysUtils.CurrencyString
 0004:00002808       SysUtils.CurrencyFormat
 0004:00002809       SysUtils.NegCurrFormat
 0004:0000280A       SysUtils.ThousandSeparator
 0004:0000280B       SysUtils.DecimalSeparator
 0004:0000280C       SysUtils.CurrencyDecimals
 0004:0000280D       SysUtils.DateSeparator
 0004:00002810       SysUtils.ShortDateFormat
 0004:00002814       SysUtils.LongDateFormat
 0004:00002818       SysUtils.TimeSeparator
 0004:0000281C       SysUtils.TimeAMString
 0004:00002820       SysUtils.TimePMString
 0004:00002824       SysUtils.ShortTimeFormat
 0004:00002828       SysUtils.LongTimeFormat
 0004:0000282C       SysUtils.ShortMonthNames
 0004:0000285C       SysUtils.LongMonthNames
 0004:0000288C       SysUtils.ShortDayNames
 0004:000028A8       SysUtils.LongDayNames
 0004:000028C4       SysUtils.SysLocale
 0004:000028D2       SysUtils.ListSeparator
 0004:000028D4       SysUtils.EraNames
 0004:000028F0       SysUtils.EraYearOffsets
 0004:0000290C       SysUtils.TrueBoolStrs
 0004:00002910       SysUtils.FalseBoolStrs
 0004:00002914       SysUtils..35
 0004:00002918       SysUtils.OutOfMemory
 0004:0000291C       SysUtils.InvalidPointer
 0004:00002920       SysUtils.CharHash
 0004:00002A20       SysUtils.ValidatedUnitHashBuckets
 0004:00002E20       SysUtils.UnitHashBuckets
 0004:00003220       SysUtils.FLanguages
 0004:00003224       VarUtils.VariantChangeTypeEx
 0004:00003228       VarUtils.VarNeg
 0004:0000322C       VarUtils.VarNot
 0004:00003230       VarUtils.VarAdd
 0004:00003234       VarUtils.VarSub
 0004:00003238       VarUtils.VarMul
 0004:0000323C       VarUtils.VarDiv
 0004:00003240       VarUtils.VarIDiv
 0004:00003244       VarUtils.VarMod
 0004:00003248       VarUtils.VarAnd
 0004:0000324C       VarUtils.VarOr
 0004:00003250       VarUtils.VarXor
 0004:00003254       VarUtils.VarCmp
 0004:00003258       VarUtils.VarI4FromStr
 0004:0000325C       VarUtils.VarR4FromStr
 0004:00003260       VarUtils.VarR8FromStr
 0004:00003264       VarUtils.VarDateFromStr
 0004:00003268       VarUtils.VarCyFromStr
 0004:0000326C       VarUtils.VarBoolFromStr
 0004:00003270       VarUtils.VarBstrFromCy
 0004:00003274       VarUtils.VarBstrFromDate
 0004:00003278       VarUtils.VarBstrFromBool
 0004:0000327C       VarUtils..5
 0004:00003280       Variants.EmptyParam
 0004:00003290       Variants.VarDispProc
 0004:00003294       Variants.ClearAnyProc
 0004:00003298       Variants.ChangeAnyProc
 0004:0000329C       Variants.RefAnyProc
 0004:000032A0       Variants..81
 0004:000032A4       Variants.LVarTypes
 0004:000032A8       Variants.LVarTypeSync
 0004:000032C0       TypInfo..6
 0004:000032C4       Classes.GlobalNameSpace
 0004:000032C8       Classes.IsUniqueGlobalComponentNameProc
 0004:000032CC       Classes.SyncEvent
 0004:000032D0       Classes..95
 0004:000032D4       Classes.IntConstList
 0004:000032D8       Classes.RegGroups
 0004:000032DC       Classes.FindGlobalComponentProcs
 0004:000032E0       Classes.GlobalFixupList
 0004:000032E4       Classes.ThreadLock
 0004:000032FC       Classes.InstBlockList
 0004:00003300       Classes.InstFreeList
 0004:00003304       IniFiles..8
 0004:00003308       Registry..5
 0004:0000330C       Graphics.SystemPalette16
 0004:00003310       Graphics..12
 0004:00003314       Graphics.ScreenLogPixels
 0004:00003318       Graphics.StockPen
 0004:0000331C       Graphics.StockBrush
 0004:00003320       Graphics.StockFont
 0004:00003324       Graphics.StockIcon
 0004:00003328       Graphics.BitmapImageLock
 0004:00003340       Graphics.CounterLock
 0004:00003358       Graphics.FontManager
 0004:0000335C       Graphics.PenManager
 0004:00003360       Graphics.BrushManager
 0004:00003364       Graphics.CanvasList
 0004:00003368       Graphics.PatternManager
 0004:0000336C       MultiMon.GetSystemMetrics
 0004:00003370       MultiMon.MonitorFromWindow
 0004:00003374       MultiMon.MonitorFromRect
 0004:00003378       MultiMon.MonitorFromPoint
 0004:0000337C       MultiMon.GetMonitorInfo
 0004:00003380       MultiMon.GetMonitorInfoA
 0004:00003384       MultiMon.GetMonitorInfoW
 0004:00003388       MultiMon.EnumDisplayMonitors
 0004:0000338C       MultiMon..1
 0004:00003390       MultiMon.User32Dll
 0004:00003394       MultiMon.InitApis
 0004:0000339C       MultiMon.MMAvailable
 0004:000033A0       HelpIntfs..2
 0004:000033A4       HelpIntfs.HelpManager
 0004:000033A8       Printers..3
 0004:000033AC       FlatSB.FlatSB_EnableScrollBar
 0004:000033B0       FlatSB.FlatSB_ShowScrollBar
 0004:000033B4       FlatSB.FlatSB_GetScrollRange
 0004:000033B8       FlatSB.FlatSB_GetScrollInfo
 0004:000033BC       FlatSB.FlatSB_GetScrollPos
 0004:000033C0       FlatSB.FlatSB_SetScrollPos
 0004:000033C4       FlatSB.FlatSB_SetScrollInfo
 0004:000033C8       FlatSB.FlatSB_SetScrollRange
 0004:000033CC       FlatSB..1
 0004:000033D0       FlatSB._FlatSB_GetScrollProp
 0004:000033D4       FlatSB._FlatSB_SetScrollProp
 0004:000033D8       FlatSB._InitializeFlatSB
 0004:000033DC       FlatSB._UninitializeFlatSB
 0004:000033E0       UxTheme.OpenThemeData
 0004:000033E4       UxTheme.CloseThemeData
 0004:000033E8       UxTheme.DrawThemeBackground
 0004:000033EC       UxTheme.DrawThemeText
 0004:000033F0       UxTheme.GetThemeBackgroundContentRect
 0004:000033F4       UxTheme.GetThemeBackgroundExtent
 0004:000033F8       UxTheme.GetThemePartSize
 0004:000033FC       UxTheme.GetThemeTextExtent
 0004:00003400       UxTheme.GetThemeTextMetrics
 0004:00003404       UxTheme.GetThemeBackgroundRegion
 0004:00003408       UxTheme.HitTestThemeBackground
 0004:0000340C       UxTheme.DrawThemeEdge
 0004:00003410       UxTheme.DrawThemeIcon
 0004:00003414       UxTheme.IsThemePartDefined
 0004:00003418       UxTheme.IsThemeBackgroundPartiallyTransparent
 0004:0000341C       UxTheme.GetThemeColor
 0004:00003420       UxTheme.GetThemeMetric
 0004:00003424       UxTheme.GetThemeString
 0004:00003428       UxTheme.GetThemeBool
 0004:0000342C       UxTheme.GetThemeInt
 0004:00003430       UxTheme.GetThemeEnumValue
 0004:00003434       UxTheme.GetThemePosition
 0004:00003438       UxTheme.GetThemeFont
 0004:0000343C       UxTheme.GetThemeRect
 0004:00003440       UxTheme.GetThemeMargins
 0004:00003444       UxTheme.GetThemeIntList
 0004:00003448       UxTheme.GetThemePropertyOrigin
 0004:0000344C       UxTheme.SetWindowTheme
 0004:00003450       UxTheme.GetThemeFilename
 0004:00003454       UxTheme.GetThemeSysColor
 0004:00003458       UxTheme.GetThemeSysColorBrush
 0004:0000345C       UxTheme.GetThemeSysBool
 0004:00003460       UxTheme.GetThemeSysSize
 0004:00003464       UxTheme.GetThemeSysFont
 0004:00003468       UxTheme.GetThemeSysString
 0004:0000346C       UxTheme.GetThemeSysInt
 0004:00003470       UxTheme.IsThemeActive
 0004:00003474       UxTheme.IsAppThemed
 0004:00003478       UxTheme.GetWindowTheme
 0004:0000347C       UxTheme.EnableThemeDialogTexture
 0004:00003480       UxTheme.IsThemeDialogTextureEnabled
 0004:00003484       UxTheme.GetThemeAppProperties
 0004:00003488       UxTheme.SetThemeAppProperties
 0004:0000348C       UxTheme.GetCurrentThemeName
 0004:00003490       UxTheme.GetThemeDocumentationProperty
 0004:00003494       UxTheme.DrawThemeParentBackground
 0004:00003498       UxTheme.EnableTheming
 0004:0000349C       UxTheme..1
 0004:000034A0       UxTheme.ThemeLibrary
 0004:000034A4       UxTheme.ReferenceCount
 0004:000034A8       UxTheme.Lock
 0004:000034AC       Themes..2
 0004:000034B0       Themes.InternalServices
 0004:000034B4       GraphUtil..2
 0004:000034B8       ExtCtrls.TCustomTrayIcon.RM_TaskbarCreated
 0004:000034BC       ExtCtrls..83
 0004:000034C0       Dialogs..11
 0004:000034C4       Dialogs.HelpMsg
 0004:000034C8       Dialogs.FindMsg
 0004:000034CC       Clipbrd.CF_PICTURE
 0004:000034CE       Clipbrd.CF_COMPONENT
 0004:000034D0       Clipbrd..2
 0004:000034D4       Clipbrd.FClipboard
 0004:000034D8       Forms.Application
 0004:000034DC       Forms.Screen
 0004:000034E0       Forms..41
 0004:000034E4       Forms.RM_TaskbarCreated
 0004:000034E8       Forms.HintThreadID
 0004:000034EC       Forms.HintDoneEvent
 0004:000034F0       Forms.HintHook
 0004:000034F4       Forms.HintThread
 0004:000034F8       Forms.IdleTimerHandle
 0004:000034FC       Controls.Mouse
 0004:00003500       Controls.IsVCLControlHook
 0004:00003508       Controls.NewStyleControls
 0004:0000350C       Controls..33
 0004:00003510       Controls.WindowAtom
 0004:00003512       Controls.ControlAtom
 0004:00003514       Controls.WindowAtomString
 0004:00003518       Controls.ControlAtomString
 0004:0000351C       Controls.RM_GetObjectInstance
 0004:00003520       Controls.DragControl
 0004:00003524       Controls.DragObject
 0004:00003528       Controls.DragInternalObject
 0004:0000352C       Controls.DragCapture
 0004:00003530       Controls.DragStartPos
 0004:00003538       Controls.DragSaveCursor
 0004:0000353C       Controls.DragThreshold
 0004:00003540       Controls.ActiveDrag
 0004:00003544       Controls.DragImageList
 0004:00003548       Controls.DockSiteList
 0004:0000354C       Controls.QualifyingSites
 0004:00003550       Controls.DragSave
 0004:00003554       Controls.CanvasList
 0004:00003558       Controls._WINNLSEnableIME
 0004:0000355C       Controls._ImmGetContext
 0004:00003560       Controls._ImmReleaseContext
 0004:00003564       Controls._ImmGetConversionStatus
 0004:00003568       Controls._ImmSetConversionStatus
 0004:0000356C       Controls._ImmSetOpenStatus
 0004:00003570       Controls._ImmSetCompositionWindow
 0004:00003574       Controls._ImmSetCompositionFont
 0004:00003578       Controls._ImmGetCompositionString
 0004:0000357C       Controls._ImmIsIME
 0004:00003580       Controls._ImmNotifyIME
 0004:00003584       Menus.PopupList
 0004:00003588       Menus.ShortCutItems
 0004:0000358C       Menus..01
 0004:00003590       Menus.CommandPool
 0004:00003594       ActnList..9
 0004:00003598       ImgList.CachedComCtrlVer
 0004:0000359C       ImgList.ImageListWriteExProc
 0004:000035A0       KeyboardLED_D90..1
 0004:000035A4       KeyboardLED_D90.SysVer
 0004:000035A8       KeyboardLED_D90.hdriver
 0004:000035AC       Unit1.Form1
 0005:00000000       System.RaiseListPtr
 0005:00000004       System.InOutRes
 0005:00000008       Classes.GlobalLoaded
 0005:0000000C       Classes.GlobalLists
 0005:00000010       GraphUtil.CachedHighlightLum
 0005:00000014       GraphUtil.CachedHighlightColor
 0005:00000018       GraphUtil.CachedHighlight
 0005:0000001C       GraphUtil.CachedShadowLum
 0005:00000020       GraphUtil.CachedShadowColor
 0005:00000024       GraphUtil.CachedShadow
 0005:00000028       GraphUtil.CachedColorValue
 0005:0000002C       GraphUtil.CachedLumValue
 0005:00000030       GraphUtil.CachedColorAdjustLuma
 0005:00000034       SysInit.TlsLast


Line numbers for RTLConsts(RTLConsts.pas) segment .text

   320 0001:00000000

Line numbers for TypInfo(TypInfo.pas) segment .text

   763 0001:000101F0   764 0001:000101F2   765 0001:000101F5   766 0001:000101F9
   806 0001:000101FC   807 0001:000101FD   808 0001:000101FE   810 0001:000101FF
   811 0001:00010201   814 0001:00010203   815 0001:00010205   816 0001:00010208
   817 0001:0001020C   818 0001:0001020E   819 0001:00010211   822 0001:00010215
   825 0001:00010219   830 0001:0001021B   831 0001:0001021D   832 0001:00010220
   836 0001:00010222   837 0001:00010226   838 0001:00010229   839 0001:0001022C
   840 0001:0001022E   841 0001:0001022F   844 0001:00010231   847 0001:00010233
   849 0001:00010235   850 0001:00010236   851 0001:0001023A   852 0001:0001023C
   856 0001:0001023E   859 0001:00010241   860 0001:00010242   861 0001:00010243
   862 0001:00010244   865 0001:00010248   866 0001:0001024E   867 0001:00010255
   870 0001:0001025F   871 0001:00010277   873 0001:00010284   874 0001:00010295
   875 0001:00010299   876 0001:000102AA   878 0001:000102AF   881 0001:000102B8
   883 0001:000102C1   891 0001:00010334   892 0001:00010335   893 0001:00010336
   895 0001:00010337   896 0001:00010339   898 0001:0001033B   899 0001:0001033D
   900 0001:0001033F   901 0001:00010341   902 0001:00010344   903 0001:00010346
   906 0001:0001034C   907 0001:0001034E   908 0001:00010351   909 0001:00010355
   910 0001:00010358   911 0001:0001035D   912 0001:0001035F   913 0001:00010361
   916 0001:00010365   917 0001:00010369   918 0001:0001036C   919 0001:0001036E
   922 0001:00010370   923 0001:00010372   924 0001:00010373   925 0001:00010377
   928 0001:00010379   929 0001:0001037C   930 0001:0001037E   931 0001:00010380
   932 0001:00010382   935 0001:00010384   936 0001:00010386   937 0001:00010389
   938 0001:0001038C   941 0001:0001038E   944 0001:00010390   945 0001:00010394
   946 0001:00010398   947 0001:0001039B   948 0001:0001039D   949 0001:0001039E
   952 0001:000103A0   953 0001:000103A1   954 0001:000103A2   955 0001:000103A3
  1228 0001:000103A4  1229 0001:000103A5  1230 0001:000103A6  1231 0001:000103A8
  1232 0001:000103AA  1233 0001:000103AC  1234 0001:000103AF  1235 0001:000103B1
  1236 0001:000103B3  1237 0001:000103B6  1239 0001:000103BA  1240 0001:000103BD
  1241 0001:000103C1  1242 0001:000103C4  1243 0001:000103C6  1246 0001:000103C8
  1247 0001:000103CB  1248 0001:000103CD  1249 0001:000103CF  1252 0001:000103D1
  1253 0001:000103D3  1256 0001:000103D5  1257 0001:000103DB  1258 0001:000103DD
  1259 0001:000103DF  1260 0001:000103E2  1261 0001:000103E4  1262 0001:000103E7
  1263 0001:000103EA  1264 0001:000103EC  1266 0001:000103EE  1267 0001:000103F1
  1268 0001:000103F3  1269 0001:000103F6  1270 0001:000103F8  1271 0001:000103FB
  1272 0001:000103FE  1273 0001:00010400  1274 0001:00010405  1276 0001:00010408
  1277 0001:0001040B  1278 0001:0001040D  1280 0001:00010412  1281 0001:00010413
  1282 0001:00010414  1291 0001:00010418  1292 0001:00010419  1293 0001:0001041A
  1294 0001:0001041B  1296 0001:0001041D  1297 0001:0001041F  1298 0001:00010421
  1299 0001:00010423  1300 0001:00010426  1301 0001:00010428  1302 0001:0001042A
  1303 0001:0001042D  1305 0001:00010431  1306 0001:00010434  1307 0001:0001043A
  1308 0001:0001043C  1310 0001:0001043E  1311 0001:00010441  1312 0001:00010445
  1313 0001:00010447  1316 0001:00010449  1317 0001:0001044C  1318 0001:0001044E
  1319 0001:00010450  1322 0001:00010452  1323 0001:00010454  1326 0001:00010456
  1327 0001:0001045C  1328 0001:0001045E  1329 0001:00010460  1330 0001:00010463
  1331 0001:00010465  1332 0001:00010468  1333 0001:0001046B  1334 0001:0001046D
  1336 0001:0001046F  1337 0001:00010470  1338 0001:00010471  1339 0001:00010472
  1354 0001:00010474  1355 0001:0001048E  1357 0001:00010498  1360 0001:000104A9
  1361 0001:000104B2  1365 0001:000104B6  1366 0001:000104DE  1369 0001:000104E2
  1371 0001:000104ED  1553 0001:00010514  1554 0001:00010515  1555 0001:00010516
  1557 0001:00010518  1558 0001:0001051B  1559 0001:00010521  1560 0001:00010523
  1562 0001:00010525  1563 0001:00010528  1564 0001:0001052C  1565 0001:0001052E
  1568 0001:00010530  1569 0001:00010533  1570 0001:00010535  1571 0001:00010537
  1574 0001:0001053A  1575 0001:0001053C  1578 0001:0001053F  1579 0001:00010545
  1580 0001:00010547  1581 0001:00010549  1582 0001:0001054B  1583 0001:0001054D
  1584 0001:0001054F  1585 0001:00010552  1587 0001:00010556  1588 0001:00010557
  1589 0001:00010559  1590 0001:0001055B  1592 0001:0001055D  1593 0001:0001055E
  1594 0001:00010560  1596 0001:00010562  1597 0001:00010563  1598 0001:00010564
  1613 0001:00010568  1614 0001:00010577  1615 0001:00010585  1616 0001:00010590
  1619 0001:0001059C  1620 0001:000105A2  1621 0001:000105AB  1672 0001:000105B0
  1673 0001:000105B1  1674 0001:000105B2  1676 0001:000105B4  1677 0001:000105B7
  1678 0001:000105BD  1679 0001:000105BF  1681 0001:000105C1  1682 0001:000105C4
  1683 0001:000105C8  1684 0001:000105CA  1687 0001:000105CC  1688 0001:000105CF
  1689 0001:000105D1  1690 0001:000105D3  1693 0001:000105D6  1694 0001:000105D8
  1697 0001:000105DB  1698 0001:000105E1  1699 0001:000105E3  1700 0001:000105E5
  1703 0001:000105EA  1704 0001:000105EB  1705 0001:000105EC  1717 0001:000105F0
  1718 0001:0001060C  1719 0001:00010616  1720 0001:00010622  1735 0001:00010648
  1736 0001:00010649  1737 0001:00010660  1738 0001:00010667  1739 0001:0001066E
  1741 0001:00010673  1794 0001:00010678  1795 0001:0001069A  1797 0001:000106AF
  1800 0001:000106C7  1801 0001:000106CA  1803 0001:000106DA  1804 0001:000106E4
  1808 0001:000106EF  1810 0001:000106F7  1813 0001:00010705  1815 0001:00010708
  1816 0001:0001070B  1817 0001:00010715  1819 0001:0001071F  1823 0001:00010729
  1891 0001:00010750  1892 0001:0001075D  1893 0001:00010760  1895 0001:0001076C
  1897 0001:0001077C  1898 0001:00010786  1899 0001:000107AD  1900 0001:000107B8
  1901 0001:000107C3  1902 0001:000107DB  1903 0001:000107E6  1908 0001:000107F7
  1910 0001:000107FF  1913 0001:0001080D  1915 0001:00010810  1916 0001:00010813
  1918 0001:00010822  1919 0001:00010849  1920 0001:0001085E  1921 0001:00010873
  1922 0001:00010889  1923 0001:0001089E  1928 0001:000108B9  1929 0001:000108DC
  1930 0001:000108EE  1931 0001:00010900  1932 0001:00010913  1933 0001:00010925
  1937 0001:0001093B  1940 0001:00010948  1941 0001:0001094E  1942 0001:00010957
  1992 0001:0001095C  1993 0001:0001095D  1994 0001:0001095E  1996 0001:00010960
  1997 0001:00010963  1998 0001:00010969  1999 0001:0001096B  2001 0001:0001096D
  2002 0001:00010970  2003 0001:00010974  2004 0001:00010976  2007 0001:00010978
  2008 0001:0001097B  2009 0001:0001097D  2010 0001:0001097F  2013 0001:00010982
  2014 0001:00010984  2017 0001:00010987  2018 0001:0001098D  2019 0001:0001098F
  2020 0001:00010991  2023 0001:00010996  2024 0001:00010997  2025 0001:00010998
  2078 0001:0001099C  2079 0001:0001099D  2080 0001:000109A0  2081 0001:000109A4
  2082 0001:000109A6  2083 0001:000109A9  2084 0001:000109AC  2085 0001:000109AE
  2088 0001:000109B0  2089 0001:000109B3  2090 0001:000109B5  2091 0001:000109B7
  2094 0001:000109B9  2095 0001:000109BB  2098 0001:000109BD  2099 0001:000109C3
  2100 0001:000109C5  2101 0001:000109C7  2102 0001:000109CA  2103 0001:000109CC
  2106 0001:000109CF  2107 0001:000109D0  2145 0001:000109D4  2149 0001:000109D7
  2150 0001:000109DB  2151 0001:000109DE  2152 0001:000109E0  2153 0001:000109E3
  2154 0001:000109E6  2155 0001:000109E9  2158 0001:000109EB  2159 0001:000109EE
  2160 0001:000109F0  2161 0001:000109F2  2164 0001:000109F4  2165 0001:000109F6
  2168 0001:000109F8  2169 0001:000109FE  2170 0001:00010A00  2171 0001:00010A03
  2172 0001:00010A06  2173 0001:00010A08  2176 0001:00010A0B  2231 0001:00010A10
  2232 0001:00010A17  2233 0001:00010A1A  2235 0001:00010A2A  2236 0001:00010A34
  2240 0001:00010A3F  2242 0001:00010A47  2245 0001:00010A55  2247 0001:00010A58
  2248 0001:00010A5C  2249 0001:00010A66  2251 0001:00010A71  2253 0001:00010A7C

Line numbers for TypInfo(TypInfo.pas) segment .itext

  2353 0002:000001F0

Line numbers for Classes(Classes.pas) segment .text

  1736 0001:00012140  1737 0001:00012149  1738 0001:00012154  1741 0001:00012158
  1744 0001:00012159  1745 0001:0001215D  1747 0001:00012162  1760 0001:00012168
  1761 0001:00012174  1762 0001:00012187  1770 0001:00012190  1771 0001:0001219C
  1772 0001:000121AF  1781 0001:000121B8  1782 0001:000121C8  1847 0001:0001227C
  1848 0001:00012284  1854 0001:00012288  1855 0001:00012296  1856 0001:00012298
  1858 0001:000122A9  1859 0001:000122B8  1860 0001:000122C7  1861 0001:000122D8
  1862 0001:000122DA  1856 0001:000122DB  1863 0001:000122DE  1870 0001:000122E8
  1871 0001:000122F7  1872 0001:000122FB  1873 0001:00012308  1874 0001:0001230A
  1875 0001:00012310  1876 0001:0001231E  1877 0001:00012320  1878 0001:00012324
  1880 0001:00012328  1883 0001:0001232C  1885 0001:00012331  1887 0001:00012335
  1890 0001:00012339  1891 0001:00012346  1893 0001:0001234A  1894 0001:0001234D
  1897 0001:00012358  1898 0001:00012372  1899 0001:0001237B  1900 0001:0001238C
  1901 0001:00012395  1904 0001:000123B4  1905 0001:000123BF  1906 0001:000123CB
  1907 0001:000123D3  1908 0001:000123DB  1909 0001:000123E3  1914 0001:000123F4
  1915 0001:000123FE  1916 0001:00012405  1918 0001:00012410  1919 0001:0001241C
  1920 0001:0001242A  1916 0001:0001242B  1921 0001:0001242E  1923 0001:00012435
  1924 0001:0001243F  1926 0001:00012443  1927 0001:0001244F  1930 0001:00012451
  1931 0001:00012453  1945 0001:0001245C  1946 0001:00012465  1947 0001:00012469
  1948 0001:00012477  1947 0001:0001248F  1949 0001:00012492  1950 0001:00012496
  1955 0001:000124A0  1956 0001:000124C2  1957 0001:000124DD  1958 0001:000124EB
  1959 0001:0001251B  1960 0001:00012521  1961 0001:00012530  1962 0001:0001253A
  1974 0001:00012560  1975 0001:00012567  1976 0001:0001256E  1978 0001:0001257E
  1979 0001:00012580  1994 0001:00012584  1995 0001:0001258A  1996 0001:000125A0
  2001 0001:000125A4  2009 0001:000125AB  2010 0001:000125B7  2011 0001:000125CC
  2009 0001:000125D7  2012 0001:000125DC  2013 0001:000125E3  2014 0001:000125EC
  2015 0001:00012601  2013 0001:0001260C  2016 0001:00012611  2017 0001:00012618
  2018 0001:00012627  2019 0001:0001263C  2017 0001:00012647  2020 0001:0001264C
  2027 0001:00012650  2028 0001:0001265A  2030 0001:00012662  2031 0001:00012668
  2032 0001:00012676  2033 0001:00012682  2031 0001:00012690  2035 0001:00012693
  2045 0001:0001269C  2046 0001:000126AF  2047 0001:000126B8  2048 0001:000126C7
  2050 0001:000126D0  2051 0001:000126E4  2052 0001:000126EE  2053 0001:000126F2
  2058 0001:00012710  2059 0001:0001271D  2060 0001:00012726  2061 0001:0001272D
  2062 0001:00012738  2061 0001:00012748  2063 0001:0001274B  2064 0001:00012753
  2065 0001:0001275F  2071 0001:00012770  2072 0001:0001277A  2073 0001:0001277C
  2075 0001:0001278A  2076 0001:00012794  2077 0001:000127A8  2073 0001:000127A9
  2078 0001:000127AC  2083 0001:000127B4  2084 0001:000127BE  2085 0001:000127C0
  2086 0001:000127CE  2088 0001:000127D8  2089 0001:000127E8  2090 0001:000127EC
  2085 0001:000127ED  2091 0001:000127F0  2106 0001:000127F8  2107 0001:00012817
  2108 0001:00012862  2115 0001:00012888  2116 0001:0001289A  2117 0001:000128A8
  2118 0001:000128B5  2127 0001:000128C0  2129 0001:000128D9  2130 0001:000128E9
  2132 0001:000128EE  2134 0001:000128F5  2136 0001:000128FE  2137 0001:0001290A
  2141 0001:00012918  2143 0001:00012927  2144 0001:00012931  2146 0001:0001293E
  2134 0001:0001293F  2149 0001:00012944  2127 0001:00012947  2150 0001:0001294C
  2154 0001:00012954  2155 0001:0001295D  2160 0001:00012960  2161 0001:00012963
  2162 0001:0001296A  2163 0001:00012975  2177 0001:00012978  2178 0001:00012981
  2179 0001:00012985  2180 0001:00012993  2179 0001:000129A9  2181 0001:000129AC
  2182 0001:000129B0  2187 0001:000129BC  2189 0001:000129C4  2190 0001:000129D2
  2191 0001:000129EA  2189 0001:000129EB  2193 0001:000129EE  2194 0001:00012A06
  2198 0001:00012A0C  2199 0001:00012A15  2213 0001:00012A18  2214 0001:00012A20
  2216 0001:00012A2C  2217 0001:00012A38  2218 0001:00012A41  2220 0001:00012A4A
  2221 0001:00012A51  2223 0001:00012A5B  2214 0001:00012A5C  2224 0001:00012A61
  2233 0001:00012A68  2234 0001:00012A86  2235 0001:00012A90  2236 0001:00012AA2
  2237 0001:00012AAC  2238 0001:00012ABA  2239 0001:00012ACB  2241 0001:00012ADE
  2242 0001:00012AEF  2243 0001:00012AFD  2244 0001:00012B0A  2239 0001:00012B0B
  2245 0001:00012B0E  2246 0001:00012B14  2248 0001:00012B27  2249 0001:00012B38
  2250 0001:00012B3E  2251 0001:00012B4B  2246 0001:00012B4C  2253 0001:00012B5C
  2255 0001:00012B6E  2258 0001:00012B94  2259 0001:00012B9F  2260 0001:00012BA7
  2261 0001:00012BB3  2266 0001:00012BC4  2267 0001:00012BD2  2268 0001:00012BD7
  2269 0001:00012BE1  2270 0001:00012BEF  2271 0001:00012BFD  2273 0001:00012C07
  2274 0001:00012C12  2275 0001:00012C1F  2270 0001:00012C20  2277 0001:00012C30
  2279 0001:00012C42  2305 0001:00012C4C  2306 0001:00012C4F  2307 0001:00012C51
  2308 0001:00012C53  2310 0001:00012C56  2313 0001:00012C58  2314 0001:00012C74
  2315 0001:00012CA2  2318 0001:00012CC4  2319 0001:00012CCB  2320 0001:00012CD5
  2321 0001:00012CE3  2323 0001:00012CFF  2325 0001:00012D11  2328 0001:00012D18
  2329 0001:00012D1C  2330 0001:00012D25  2331 0001:00012D30  2334 0001:00012D38
  2335 0001:00012D3E  2336 0001:00012D48  2339 0001:00012D58  2340 0001:00012D64
  2341 0001:00012D6C  2337 0001:00012D75  2344 0001:00012D92  2346 0001:00012DA4
  2383 0001:00012DA8  2384 0001:00012DAE  2385 0001:00012DB8  2386 0001:00012DC6
  2388 0001:00012DDF  2390 0001:00012DF1  2393 0001:00012DF4  2394 0001:00012DFA
  2395 0001:00012E04  2396 0001:00012E12  2398 0001:00012E2B  2400 0001:00012E3D
  2403 0001:00012E40  2404 0001:00012E49  2405 0001:00012E53  2406 0001:00012E61
  2408 0001:00012E7C  2410 0001:00012E8E  2413 0001:00012E94  2414 0001:00012E9B
  2415 0001:00012EA5  2416 0001:00012EB3  2417 0001:00012EBE  2419 0001:00012ED7
  2421 0001:00012EE9  2504 0001:00012F48  2505 0001:00012F57  2506 0001:00012F5A
  2507 0001:00012F60  2508 0001:00012F66  2512 0001:00012F80  2513 0001:00012F89
  2514 0001:00012FA5  2556 0001:00012FAC  2557 0001:00012FB5  2558 0001:00012FBA
  2559 0001:00012FC6  2560 0001:00012FD4  2561 0001:00012FDD  2562 0001:00012FE6
  2564 0001:00012FEB  2565 0001:00012FF1  2566 0001:00012FF8  2560 0001:00012FF9
  2568 0001:0001300B  2570 0001:0001301D  2575 0001:00013028  2576 0001:00013034
  2577 0001:0001303F  2579 0001:0001304C  2580 0001:0001304E  2581 0001:00013056
  2582 0001:00013058  2576 0001:0001305B  2583 0001:0001305E  2584 0001:00013060
  2589 0001:00013068  2590 0001:00013076  2591 0001:00013081  2593 0001:00013085
  2594 0001:00013089  2595 0001:00013093  2596 0001:00013095  2590 0001:00013098
  2597 0001:0001309B  2598 0001:0001309F  2604 0001:000130AC  2605 0001:000130B0
  2606 0001:000130B9  2607 0001:000130CA  2608 0001:000130DC  2609 0001:000130E8
  2613 0001:000130EC  2614 0001:000130F5  2615 0001:00013101  2620 0001:00013104
  2621 0001:00013109  2622 0001:0001310B  2624 0001:00013114  2626 0001:00013123
  2627 0001:00013135  2628 0001:00013139  2624 0001:0001313A  2630 0001:0001313F
  2633 0001:00013144  2634 0001:00013147  2635 0001:00013150  2636 0001:0001315A
  2637 0001:00013166  2642 0001:00013168  2643 0001:00013175  2644 0001:0001317F
  2645 0001:0001318F  2646 0001:00013194  2647 0001:00013198  2648 0001:000131AC
  2649 0001:000131BA  2651 0001:000131D3  2653 0001:000131E3  2654 0001:000131E5
  2663 0001:000131EC  2664 0001:000131ED  2665 0001:000131F8  2667 0001:000131FC
  2668 0001:0001320A  2670 0001:00013215  2671 0001:00013227  2672 0001:00013240
  2678 0001:00013244  2679 0001:00013247  2680 0001:00013252  2681 0001:0001325D
  2680 0001:0001326C  2682 0001:0001326F  2687 0001:00013274  2688 0001:00013276
  2689 0001:00013286  2690 0001:00013291  2691 0001:000132A5  2692 0001:000132B0
  2694 0001:000132B6  2695 0001:000132C3  2697 0001:000132CA  2702 0001:000132D0
  2703 0001:000132F0  2704 0001:000132F2  2705 0001:00013302  2706 0001:00013315
  2708 0001:00013350  2712 0001:00013378  2713 0001:00013384  2714 0001:0001338E
  2715 0001:0001339C  2716 0001:000133B8  2717 0001:000133C3  2718 0001:000133D1
  2719 0001:000133E3  2721 0001:000133FB  2724 0001:0001341B  2726 0001:0001342D
  2912 0001:00013440  2913 0001:0001344B  2914 0001:00013452  2917 0001:00013460
  2918 0001:00013467  2919 0001:0001346A  2920 0001:0001346F  2921 0001:00013475
  2922 0001:0001347B  2923 0001:0001347E  2924 0001:00013482  2925 0001:0001348D
  2928 0001:00013494  2929 0001:00013497  2930 0001:000134A0  2931 0001:000134A9
  2936 0001:000134AC  2937 0001:000134B3  2938 0001:000134BC  2939 0001:000134CB
  2940 0001:000134D6  2941 0001:000134D9  2942 0001:000134E0  2944 0001:000134FA
  2945 0001:000134FE  2946 0001:00013509  2952 0001:00013510  2953 0001:00013513
  2955 0001:00013514  2956 0001:0001351D  2957 0001:00013546  2960 0001:0001354C
  2961 0001:00013565  2962 0001:0001357E  2978 0001:000135A0  2979 0001:000135A3
  2980 0001:000135AB  2981 0001:000135B1  2982 0001:000135B3  2986 0001:000135B8
  2987 0001:000135BF  2990 0001:000135C0  2991 0001:000135C6  2992 0001:000135CF
  2993 0001:000135DE  2994 0001:000135E4  3005 0001:000135E8  3006 0001:000135F0
  3008 0001:000135FE  3009 0001:00013603  3011 0001:0001360A  3012 0001:0001360F
  3013 0001:00013618  3016 0001:0001361C  3017 0001:0001361D  3019 0001:00013621
  3018 0001:00013622  3020 0001:0001362F  3021 0001:00013634  3022 0001:00013637
  3025 0001:0001363C  3026 0001:00013645  3027 0001:0001364E  3028 0001:0001365D
  3029 0001:00013665  3030 0001:0001366B  3031 0001:00013672  3033 0001:0001368C
  3034 0001:00013692  3035 0001:00013695  3036 0001:00013699  3037 0001:000136A4
  3041 0001:000136A8  3042 0001:000136B1  3063 0001:000136B4  3064 0001:000136BD
  3065 0001:000136C6  3066 0001:000136D5  3069 0001:000136DF  3070 0001:000136E2
  3071 0001:000136E6  3072 0001:000136F1  3073 0001:000136F5  3075 0001:00013700
  3078 0001:00013704  3079 0001:00013708  3080 0001:00013711  3081 0001:00013715
  3082 0001:0001371E  3131 0001:00013724  3132 0001:0001372A  3133 0001:00013737
  3134 0001:00013746  3136 0001:0001374B  3137 0001:00013759  3139 0001:0001375C
  3144 0001:00013760  3145 0001:00013768  3146 0001:00013774  3147 0001:00013783
  3148 0001:00013788  3149 0001:00013791  3150 0001:00013798  3152 0001:000137B2
  3153 0001:000137BC  3152 0001:000137C6  3154 0001:000137C9  3155 0001:000137CC
  3210 0001:000137D4  3298 0001:000137D8  3299 0001:000137EA  3300 0001:000137F3
  3301 0001:000137FC  3302 0001:0001380B  3303 0001:0001380F  3306 0001:0001382C
  3307 0001:0001383D  3308 0001:00013845  3309 0001:00013853  3310 0001:0001385E
  3312 0001:0001387A  3313 0001:00013882  3315 0001:00013896  3318 0001:000138A8
  3319 0001:000138B2  3320 0001:000138BA  3321 0001:000138C8  3323 0001:000138E1
  3324 0001:000138F0  3325 0001:000138F9  3327 0001:0001391B  3329 0001:0001392B
  3342 0001:00013930  3343 0001:00013933  3344 0001:0001393C  3345 0001:0001393F
  3348 0001:00013944  3349 0001:0001394E  3350 0001:00013956  3351 0001:00013964
  3353 0001:0001397E  3355 0001:0001398E  3359 0001:00013994  3360 0001:0001399D
  3599 0001:000139A0  3600 0001:000139AB  3601 0001:000139B4  3602 0001:000139C0
  3606 0001:000139D0  3607 0001:000139E7  3617 0001:000139E8  3618 0001:000139EA
  3619 0001:000139F0  3621 0001:000139F4  3622 0001:000139FD  3624 0001:00013A06
  3625 0001:00013A11  3626 0001:00013A25  3627 0001:00013A3C  3629 0001:00013A40
  3630 0001:00013A45  3632 0001:00013A49  3633 0001:00013A53  3635 0001:00013A5F
  3637 0001:00013A63  3638 0001:00013A69  3639 0001:00013A7F  3641 0001:00013A89
  3643 0001:00013A8F  3645 0001:00013A92  3649 0001:00013A98  3650 0001:00013A9B
  3652 0001:00013A9D  3653 0001:00013AA0  3654 0001:00013AA2  3655 0001:00013AA4
  3656 0001:00013AA7  3658 0001:00013AA8  3659 0001:00013AAB  3661 0001:00013AAC
  3662 0001:00013AAF  3663 0001:00013AB5  3664 0001:00013AB6  3665 0001:00013AB7
  3666 0001:00013AB8  3667 0001:00013AB9  3668 0001:00013ABE  3669 0001:00013ABF
  3670 0001:00013AC0  3671 0001:00013AC1  3672 0001:00013AC3  3690 0001:00013AC4
  3691 0001:00013ACA  3692 0001:00013ADC  3693 0001:00013AE6  3695 0001:00013AF4
  3696 0001:00013AFA  3698 0001:00013AFC  3700 0001:00013B0B  3701 0001:00013B17
  3702 0001:00013B20  3704 0001:00013B22  3696 0001:00013B23  3705 0001:00013B27
  3692 0001:00013B28  3706 0001:00013B2D  3707 0001:00013B30  3712 0001:00013B3C
  3713 0001:00013B47  3714 0001:00013B4E  3715 0001:00013B5A  3719 0001:00013B68
  3720 0001:00013B79  3725 0001:00013B7C  3726 0001:00013B9E  3727 0001:00013BA2
  3728 0001:00013BBF  3729 0001:00013BCC  3730 0001:00013C1C  3734 0001:00013C4C
  3735 0001:00013C52  3739 0001:00013C54  3744 0001:00013C58  3745 0001:00013C7B
  3746 0001:00013C95  3748 0001:00013CA4  3749 0001:00013CBB  3750 0001:00013CC1
  3752 0001:00013CD7  3756 0001:00013D08  3757 0001:00013D0A  3762 0001:00013D0C
  3763 0001:00013D10  3764 0001:00013D17  3765 0001:00013D26  3766 0001:00013D47
  3769 0001:00013D5C  3770 0001:00013D62  3771 0001:00013D68  3772 0001:00013D73
  3773 0001:00013D76  3776 0001:00013D7C  3777 0001:00013D82  3778 0001:00013D88
  3779 0001:00013D93  3780 0001:00013D96  3786 0001:00013D9C  3787 0001:00013DA3
  3788 0001:00013DBD  3990 0001:00013DC4  3991 0001:00013DC8  3992 0001:00013DD5
  3993 0001:00013DDE  4025 0001:00013DE4  4026 0001:00013DEC  4028 0001:00013DF8
  4029 0001:00013E00  4031 0001:00013E10  4030 0001:00013E1C  4033 0001:00013E35
  4036 0001:00013E45  4269 0001:00013E4C  4270 0001:00013E57  4271 0001:00013E60
  4272 0001:00013E6C  4275 0001:00013E7C  4276 0001:00013E83  4277 0001:00013E8C
  4278 0001:00013E97  4281 0001:00013EA0  4282 0001:00013EA7  4283 0001:00013EB0
  4284 0001:00013EBB  4294 0001:00013EC4  4295 0001:00013EE6  4296 0001:00013EEE
  4297 0001:00013EFC  4298 0001:00013F0E  4297 0001:00013F35  4300 0001:00013F45
  4302 0001:00013F55  4305 0001:00013F7C  4306 0001:00013F87  4308 0001:00013F9C
  4309 0001:00013FA4  4310 0001:00013FB2  4311 0001:00013FBA  4312 0001:00013FC6
  4313 0001:00013FD0  4314 0001:00013FDA  4315 0001:00013FE4  4316 0001:00013FF2
  4317 0001:00013FFC  4319 0001:00014013  4323 0001:00014023  4324 0001:0001402D
  4327 0001:00014034  4328 0001:00014037  4329 0001:00014046  4330 0001:00014049
  4335 0001:0001404C  4336 0001:00014051  4338 0001:0001405E  4339 0001:00014060
  4340 0001:00014074  4342 0001:0001408B  4343 0001:0001409B  4345 0001:000140A4
  4346 0001:000140B1  4347 0001:000140D9  4351 0001:000140F0  4352 0001:000140F3
  4353 0001:00014100  4358 0001:00014104  4359 0001:00014129  4360 0001:0001412D
  4361 0001:00014137  4362 0001:00014143  4363 0001:0001417A  4364 0001:0001417E
  4370 0001:000141AC  4371 0001:000141AF  4373 0001:000141B0  4374 0001:000141B9
  4375 0001:000141E2  4378 0001:000141E8  4379 0001:00014204  4380 0001:0001421A
  4386 0001:00014240  4387 0001:00014266  4388 0001:0001426E  4389 0001:0001427C
  4390 0001:00014289  4391 0001:00014296  4392 0001:000142B0  4393 0001:000142C6
  4394 0001:000142D3  4396 0001:000142ED  4398 0001:000142FD  4413 0001:0001432C
  4414 0001:00014331  4481 0001:00014334  4482 0001:00014336  4485 0001:00014338
  4486 0001:0001434E  4487 0001:00014367  4494 0001:0001438C  4495 0001:000143B3
  4496 0001:000143BE  4497 0001:000143C3  4498 0001:000143CE  4499 0001:00014415
  4500 0001:00014422  4501 0001:0001442A  4503 0001:0001443A  4504 0001:00014448
  4505 0001:00014456  4507 0001:0001445A  4508 0001:00014467  4510 0001:0001446A
  4511 0001:00014478  4513 0001:0001447C  4514 0001:00014489  4516 0001:0001448C
  4501 0001:0001448F  4517 0001:00014492  4530 0001:000144C4  4531 0001:000144E5
  4532 0001:000144FB  4531 0001:0001451C  4533 0001:0001451F  4534 0001:00014526
  4540 0001:00014550  4541 0001:00014576  4543 0001:0001458D  4544 0001:0001459A
  4545 0001:000145B8  4546 0001:000145E1  4541 0001:000145E4  4547 0001:000145E9
  4548 0001:000145F0  4551 0001:00014624  4552 0001:0001462C  4553 0001:0001463D
  4552 0001:0001464B  4554 0001:0001464E  4555 0001:00014651  4559 0001:00014658
  4560 0001:00014666  4561 0001:00014672  4562 0001:0001467E  4567 0001:00014688
  4568 0001:0001468F  4569 0001:000146A2  4570 0001:000146B0  4572 0001:000146C7
  4574 0001:000146D7  4580 0001:000146DC  4581 0001:000146FC  4582 0001:00014704
  4583 0001:00014712  4584 0001:00014723  4585 0001:0001472F  4586 0001:0001473B
  4588 0001:00014753  4590 0001:00014763  4596 0001:00014788  4597 0001:000147AB
  4599 0001:000147AF  4600 0001:000147B7  4601 0001:000147C5  4602 0001:000147D2
  4603 0001:000147DE  4604 0001:000147E8  4606 0001:00014803  4609 0001:00014813
  4614 0001:00014838  4615 0001:00014842  4616 0001:0001484D  4617 0001:00014856
  4618 0001:00014862  4622 0001:00014868  4625 0001:0001486C  4626 0001:0001488B
  4627 0001:00014893  4628 0001:0001489B  4629 0001:000148A9  4630 0001:000148B3
  4632 0001:000148E2  4634 0001:000148F2  4635 0001:000148FA  4640 0001:0001491C
  4641 0001:00014923  4642 0001:00014939  4643 0001:00014947  4645 0001:0001495E
  4647 0001:0001496E  4652 0001:00014974  4653 0001:0001498D  4654 0001:00014997
  4655 0001:000149AF  4660 0001:000149D4  4670 0001:000149D8  4671 0001:000149DE
  4672 0001:000149EC  4673 0001:000149F6  4674 0001:00014A06  4677 0001:00014A0C
  4678 0001:00014A25  4679 0001:00014A39  4687 0001:00014A5C  4688 0001:00014A86
  4689 0001:00014A8E  4690 0001:00014A9C  4692 0001:00014AA4  4693 0001:00014AAC
  4699 0001:00014ACA  4700 0001:00014ACE  4701 0001:00014ADE  4702 0001:00014AEC
  4703 0001:00014AF7  4704 0001:00014AFD  4697 0001:00014B03  4711 0001:00014B0D
  4712 0001:00014B18  4714 0001:00014B22  4715 0001:00014B2A  4718 0001:00014B4C
  4719 0001:00014B4E  4720 0001:00014B6C  4721 0001:00014B76  4722 0001:00014B84
  4723 0001:00014B8F  4724 0001:00014B93  4716 0001:00014B98  4728 0001:00014BAA
  4730 0001:00014BBA  4734 0001:00014C00  4754 0001:00014C04  4755 0001:00014C26
  4756 0001:00014C2E  4757 0001:00014C5C  4758 0001:00014C64  4833 0001:00014C88
  4834 0001:00014C8E  4835 0001:00014C94  4836 0001:00014CA0  4837 0001:00014CAA
  4863 0001:00014CBC  4864 0001:00014CC2  4866 0001:00014CD4  4867 0001:00014CD8
  4869 0001:00014CE2  4890 0001:00014CE8  4891 0001:00014CF0  4892 0001:00014D27
  4895 0001:00014D2C  4896 0001:00014D2F  4897 0001:00014D35  4898 0001:00014D3E
  4899 0001:00014D42  4902 0001:00014D44  4903 0001:00014D4A  4905 0001:00014D55
  4906 0001:00014D59  4908 0001:00014D5C  4931 0001:00014D60  4932 0001:00014D6B
  4933 0001:00014D73  4934 0001:00014D7B  4935 0001:00014D87  4936 0001:00014D9E
  4937 0001:00014DA3  4938 0001:00014DAC  4941 0001:00014DBC  4942 0001:00014DC0
  4943 0001:00014DC9  4946 0001:00014DCC  4947 0001:00014DD7  4948 0001:00014DDD
  4950 0001:00014DE5  4951 0001:00014DF7  4953 0001:00014E05  4955 0001:00014E14
  4956 0001:00014E25  4959 0001:00014E30  4960 0001:00014E31  4961 0001:00014E3E
  4962 0001:00014E48  4965 0001:00014E4C  4966 0001:00014E4D  4967 0001:00014E5A
  4968 0001:00014E64  4971 0001:00014E68  4972 0001:00014E6B  4974 0001:00014E71
  4975 0001:00014E7B  4976 0001:00014E8C  4977 0001:00014E91  4978 0001:00014E9A
  4980 0001:00014EA4  4983 0001:00014EA8  4984 0001:00014EAE  4985 0001:00014EC6
  4986 0001:00014ED0  4987 0001:00014EE1  4988 0001:00014EE4  4989 0001:00014EEB
  4991 0001:00014F07  4992 0001:00014F11  4995 0001:00014F14  4996 0001:00014F1D
  4997 0001:00014F35  4998 0001:00014F4D  4999 0001:00014F57  5000 0001:00014F62
  5001 0001:00014F6C  5007 0001:00014F70  5008 0001:00014F71  5009 0001:00014F77
  5010 0001:00014F7D  5011 0001:00014F7F  5012 0001:00014F83  5013 0001:00014F85
  5014 0001:00014F88  5015 0001:00014F8E  5016 0001:00014F91  5021 0001:00014F94
  5022 0001:00014FA4  5023 0001:00014FA9  5024 0001:00014FAB  5025 0001:00014FB3
  5027 0001:00014FB9  5028 0001:00014FC1  5029 0001:00014FD5  5031 0001:00014FE1
  5032 0001:00014FE8  5034 0001:00014FEF  5035 0001:00014FF4  5025 0001:00014FFC
  5039 0001:00015002  5040 0001:00015008  5043 0001:00015018  5044 0001:00015021
  5045 0001:00015039  5046 0001:00015046  5050 0001:0001504C  5051 0001:0001504F
  5055 0001:00015050  5056 0001:00015053  5059 0001:00015054  5060 0001:0001505A
  5061 0001:00015072  5062 0001:00015079  5067 0001:0001507C  5068 0001:0001507D
  5069 0001:00015093  5070 0001:0001509F  5071 0001:000150A4  5072 0001:000150AD
  5075 0001:000150B0  5076 0001:000150B7  5077 0001:000150CB  5078 0001:000150E4
  5081 0001:000150EC  5082 0001:000150F0  5083 0001:000150F9  5087 0001:000150FC
  5088 0001:00015108  5089 0001:0001511D  5090 0001:00015135  5091 0001:00015147
  5094 0001:00015150  5095 0001:0001515C  5096 0001:00015166  5097 0001:00015175
  5098 0001:0001517C  5100 0001:0001519C  5102 0001:000151A4  5103 0001:000151A8
  5104 0001:000151AE  5106 0001:000151B7  5107 0001:000151BA  5108 0001:000151C4
  5111 0001:000151CC  5112 0001:000151D5  5113 0001:000151EA  5114 0001:00015202
  5115 0001:0001520C  5116 0001:00015219  5117 0001:00015223  5120 0001:00015228
  5121 0001:00015231  5122 0001:00015249  5123 0001:00015253  5124 0001:0001525A
  5125 0001:00015264  5130 0001:00015268  5132 0001:00015279  5133 0001:0001527C
  5134 0001:0001527F  5136 0001:0001528C  5137 0001:0001529E  5138 0001:000152AE
  5140 0001:000152B2  5141 0001:000152BE  5142 0001:000152C3  5143 0001:000152C8
  5144 0001:000152CD  5145 0001:000152D0  5146 0001:000152D1  5148 0001:000152D2
  5149 0001:000152D6  5150 0001:000152EC  5151 0001:000152EF  5152 0001:000152F4
  5155 0001:000152FC  5156 0001:00015302  5157 0001:00015312  5158 0001:00015315
  5161 0001:00015318  5162 0001:0001531E  5164 0001:00015323  5165 0001:00015331
  5167 0001:00015334  5171 0001:00015338  5172 0001:0001534D  5175 0001:00015350
  5176 0001:00015357  5178 0001:0001536A  5182 0001:00015370  5183 0001:0001537D
  5186 0001:00015380  5187 0001:00015386  5189 0001:00015392  5190 0001:0001539C
  5191 0001:000153AA  5193 0001:000153B4  5196 0001:000153B8  5197 0001:000153C0
  5198 0001:000153C6  5200 0001:000153FF  5201 0001:00015436  5215 0001:0001543C
  5216 0001:0001543F  5217 0001:00015451  5220 0001:0001545C  5221 0001:0001545F
  5222 0001:0001546C  5227 0001:00015470  5228 0001:00015476  5229 0001:0001548B
  5230 0001:0001549F  5231 0001:000154B0  5237 0001:000154BC  5240 0001:000154C0
  5241 0001:000154C3  5242 0001:000154CE  5245 0001:000154D4  5251 0001:000154D9
  5252 0001:000154FF  5253 0001:00015516  5254 0001:00015522  5259 0001:00015528
  5260 0001:00015531  5261 0001:0001556E  5269 0001:00015574  5275 0001:00015588
  5276 0001:00015596  5278 0001:000155A2  5277 0001:000155AB  5279 0001:000155BA
  5280 0001:000155C6  5281 0001:000155D1  5282 0001:000155D9  5283 0001:000155E0
  5284 0001:000155F1  5287 0001:000155F8  5290 0001:00015604  5291 0001:0001562A
  5292 0001:00015641  5293 0001:00015657  5296 0001:00015668  5297 0001:00015671
  5298 0001:00015684  5299 0001:0001569B  5302 0001:000156A0  5303 0001:000156A9
  5304 0001:000156BC  5305 0001:000156D3  5313 0001:000156D8  5314 0001:000156E6
  5316 0001:000156F2  5317 0001:000156FD  5319 0001:00015709  5320 0001:00015715
  5321 0001:00015737  5322 0001:00015742  5325 0001:00015752  5326 0001:0001576C
  5327 0001:0001577A  5328 0001:00015786  5323 0001:0001578F  5331 0001:000157A8
  5333 0001:000157BB  5338 0001:000157CC  5339 0001:000157D5  5340 0001:000157EB
  5341 0001:000157F9  5343 0001:00015813  5345 0001:00015823  5425 0001:0001582C
  5426 0001:00015841  5427 0001:0001584A  5428 0001:0001584D  5432 0001:00015868
  5433 0001:00015870  5434 0001:00015877  5438 0001:00015878  5439 0001:00015880
  5440 0001:00015887  5443 0001:00015888  5444 0001:0001588E  5445 0001:000158A5
  5448 0001:000158B4  5449 0001:000158B9  5450 0001:000158C5  5453 0001:000158C8
  5454 0001:000158CE  5456 0001:000158DD  5461 0001:000158EB  5466 0001:000158F0
  5468 0001:00015905  5472 0001:00015915  5475 0001:00015934  5476 0001:0001596F
  5478 0001:00015976  5479 0001:000159A0  5480 0001:000159AA  5484 0001:000159F4
  5485 0001:00015A09  5486 0001:00015A0F  5488 0001:00015A57  5489 0001:00015A61
  5492 0001:00015AA8  5493 0001:00015AB3  5494 0001:00015AC0  5495 0001:00015ACC
  5502 0001:00015ADC  5503 0001:00015ADF  5504 0001:00015AE2  5507 0001:00015AE4
  5508 0001:00015AE9  5510 0001:00015AF4  5511 0001:00015AF9  5513 0001:00015AFD
  5514 0001:00015B03  5515 0001:00015B0F  5516 0001:00015B12  5519 0001:00015B14
  5520 0001:00015B16  5524 0001:00015B1C  5525 0001:00015B2B  5526 0001:00015B30
  5527 0001:00015B35  5529 0001:00015B3B  5530 0001:00015B3E  5555 0001:00015B40
  5556 0001:00015B4B  5557 0001:00015B52  5558 0001:00015B5E  5561 0001:00015B6C
  5562 0001:00015B6F  5563 0001:00015B78  5564 0001:00015B7D  5565 0001:00015B82
  5570 0001:00015B84  5571 0001:00015B8B  5572 0001:00015B96  5573 0001:00015B9E
  5574 0001:00015BA7  5575 0001:00015BB7  5590 0001:00015BBC  5591 0001:00015BC3
  5592 0001:00015BD8  5593 0001:00015BDE  5598 0001:00015BE4  5599 0001:00015BEB
  5600 0001:00015BEE  5601 0001:00015BF7  5602 0001:00015BFA  5603 0001:00015C0B
  5606 0001:00015C10  5607 0001:00015C14  5608 0001:00015C20  5609 0001:00015C30
  5610 0001:00015C36  5612 0001:00015C3F  5614 0001:00015C44  5615 0001:00015C4C
  5618 0001:00015C53  5619 0001:00015C57  5621 0001:00015C63  5622 0001:00015C6C
  5625 0001:00015C89  5630 0001:00015C90  5631 0001:00015C9A  5633 0001:00015CA5
  5634 0001:00015CA9  5636 0001:00015CAD  5638 0001:00015CB2  5639 0001:00015CB7
  5640 0001:00015CC0  5642 0001:00015CC3  5643 0001:00015CD2  5644 0001:00015CD5
  5645 0001:00015CD7  5648 0001:00015CD9  5649 0001:00015CDB  5713 0001:00015CE0
  5714 0001:00015CF8  5715 0001:00015D01  5716 0001:00015D1A  5731 0001:00015D38
  5732 0001:00015D54  5733 0001:00015D5D  5735 0001:00015D6D  5736 0001:00015D7B
  5737 0001:00015DAC  5739 0001:00015DD8  5740 0001:00015DE6  5741 0001:00015DF9
  5742 0001:00015E04  5743 0001:00015E13  5744 0001:00015E1E  5745 0001:00015E3C
  5748 0001:00015E44  5750 0001:00015E4F  5751 0001:00015E58  5752 0001:00015E64
  5756 0001:00015E74  5757 0001:00015E8B  5762 0001:00015E8C  5763 0001:00015EA5
  5764 0001:00015EA8  5765 0001:00015EB2  5766 0001:00015EB5  5769 0001:00015ED4
  5770 0001:00015EDF  5771 0001:00015EEE  5775 0001:00015EFC  5776 0001:00015EFF
  5802 0001:00015FD8  5803 0001:00015FED  5804 0001:00015FF0  5805 0001:00015FF6
  5806 0001:00015FFC  5807 0001:00016007  5808 0001:00016012  5814 0001:00016030
  5815 0001:00016036  5816 0001:00016038  5817 0001:0001603B  5818 0001:0001603F
  5819 0001:0001604C  5820 0001:00016051  5821 0001:00016061  5822 0001:00016071
  5823 0001:00016073  5827 0001:00016078  5828 0001:00016086  5833 0001:00016088
  5834 0001:000160A1  5835 0001:000160A9  5836 0001:000160AD  5837 0001:000160D3
  5838 0001:000160DB  5839 0001:000160E9  5846 0001:0001610C  5847 0001:0001612C
  5848 0001:00016131  5849 0001:00016135  5850 0001:00016137  5853 0001:00016139
  5854 0001:0001613E  5855 0001:0001614C  5856 0001:0001615C  5857 0001:00016168
  5858 0001:0001617D  5859 0001:0001617F  5860 0001:00016183  5861 0001:00016189
  5862 0001:0001618F  5863 0001:00016195  5851 0001:00016197  5865 0001:0001619C
  5866 0001:0001619F  5879 0001:000161D8  5880 0001:000161DE  5882 0001:00016200
  5883 0001:0001620D  5888 0001:00016210  5889 0001:00016216  5890 0001:00016223
  5891 0001:00016234  5892 0001:00016245  5893 0001:00016252  5895 0001:00016258
  5898 0001:00016261  5899 0001:0001626B  5900 0001:00016279  5901 0001:00016285
  5902 0001:00016293  5904 0001:0001629D  5905 0001:000162AC  5906 0001:000162BA
  5907 0001:000162C9  5908 0001:000162D7  5910 0001:000162DE  5912 0001:000162E9
  5913 0001:000162F4  5915 0001:00016309  5916 0001:0001630F  5918 0001:00016318
  5919 0001:00016326  5923 0001:00016331  5924 0001:0001633B  5925 0001:0001633C
  5927 0001:0001633E  5928 0001:00016348  5929 0001:00016351  5932 0001:0001635A
  5933 0001:00016364  5909 0001:00016365  5937 0001:0001637B  5939 0001:0001638B
  5941 0001:00016399  5942 0001:000163A5  5943 0001:000163B6  5944 0001:000163BC
  5939 0001:000163BD  5946 0001:000163CD  5950 0001:000163EA  5953 0001:00016409
  5955 0001:0001641B  6011 0001:00016424  6012 0001:00016433  6013 0001:00016440
  6014 0001:0001644C  6015 0001:0001645A  6017 0001:00016463  6018 0001:0001646E
  6021 0001:00016491  6022 0001:0001649A  6024 0001:000164A1  6015 0001:000164A2
  6026 0001:000164B4  6028 0001:000164C6  6034 0001:000164D0  6035 0001:000164DA
  6036 0001:000164E3  6037 0001:000164EF  6038 0001:000164FD  6040 0001:00016506
  6041 0001:00016511  6043 0001:00016519  6044 0001:00016522  6046 0001:00016529
  6038 0001:0001652A  6048 0001:0001653C  6050 0001:0001654E  6076 0001:00016554
  6077 0001:00016557  6078 0001:0001656A  6082 0001:0001656C  6083 0001:00016576
  6086 0001:00016578  6087 0001:0001657E  6088 0001:000165A0  6097 0001:000165A4
  6098 0001:000165A5  6099 0001:000165AC  6100 0001:000165B6  6103 0001:000165BC
  6104 0001:000165C8  6105 0001:000165DA  6106 0001:000165E6  6120 0001:000165F8
  6121 0001:000165FE  6123 0001:00016609  6124 0001:0001660C  6125 0001:00016613
  6127 0001:00016618  6131 0001:0001661C  6132 0001:00016625  6134 0001:0001663D
  6135 0001:00016645  6137 0001:00016650  6144 0001:00016658  6145 0001:00016664
  6147 0001:00016687  6149 0001:00016693  6150 0001:00016699  6151 0001:000166A1
  6152 0001:000166AB  6154 0001:000166B0  6155 0001:000166BF  6156 0001:000166CD
  6157 0001:000166DD  6158 0001:000166E8  6159 0001:000166F9  6160 0001:00016703
  6162 0001:00016719  6164 0001:00016729  6166 0001:00016736  6169 0001:00016740
  6170 0001:00016743  6171 0001:0001674F  6172 0001:00016752  6182 0001:00016754
  6183 0001:00016756  6184 0001:0001675A  6185 0001:0001676E  6190 0001:00016778
  6191 0001:0001678E  6193 0001:00016795  6194 0001:000167BA  6195 0001:000167C0
  6196 0001:000167C7  6198 0001:000167D9  6199 0001:000167DD  6201 0001:000167E3
  6202 0001:000167E9  6204 0001:000167F8  6210 0001:00016800  6211 0001:0001680F
  6212 0001:0001682D  6213 0001:00016836  6214 0001:0001684D  6215 0001:00016859
  6220 0001:00016868  6221 0001:00016870  6222 0001:0001687C  6223 0001:0001688A
  6224 0001:00016893  6225 0001:0001689C  6227 0001:000168AC  6228 0001:000168B1
  6229 0001:000168BA  6223 0001:000168BB  6231 0001:000168CD  6233 0001:000168DF
  6240 0001:000168E4  6241 0001:00016903  6242 0001:00016911  6243 0001:0001691F
  6244 0001:00016931  6246 0001:00016940  6247 0001:0001694B  6248 0001:00016956
  6249 0001:00016964  6250 0001:00016974  6256 0001:00016987  6257 0001:00016999
  6259 0001:000169AA  6260 0001:000169C3  6263 0001:000169D4  6264 0001:000169DD
  6243 0001:000169DE  6266 0001:000169F4  6268 0001:00016A04  6280 0001:00016A28
  6281 0001:00016A2B  6282 0001:00016A3D  6283 0001:00016A42  6284 0001:00016A47
  6289 0001:00016A4C  6290 0001:00016A51  6292 0001:00016A58  6293 0001:00016A76
  6294 0001:00016A7E  6296 0001:00016A83  6303 0001:00016A88  6304 0001:00016A96
  6307 0001:00016AA1  6308 0001:00016AAA  6309 0001:00016AAE  6311 0001:00016ABF
  6312 0001:00016AC9  6313 0001:00016AD8  6309 0001:00016ADC  6314 0001:00016ADF
  6305 0001:00016AE8  6316 0001:00016AF0  6317 0001:00016AFD  6319 0001:00016B0A
  6320 0001:00016B15  6323 0001:00016B20  6324 0001:00016B23  6325 0001:00016B33
  6328 0001:00016B38  6329 0001:00016B3B  6330 0001:00016B42  6331 0001:00016B45
  6334 0001:00016B48  6335 0001:00016B4B  6336 0001:00016B50  6337 0001:00016B57
  6341 0001:00016B5C  6342 0001:00016B5D  6343 0001:00016B5E  6344 0001:00016B5F
  6345 0001:00016B61  6346 0001:00016B63  6347 0001:00016B65  6348 0001:00016B67
  6349 0001:00016B6A  6350 0001:00016B6D  6351 0001:00016B6F  6352 0001:00016B71
  6353 0001:00016B76  6354 0001:00016B79  6355 0001:00016B7B  6356 0001:00016B7D
  6357 0001:00016B7F  6358 0001:00016B80  6359 0001:00016B82  6360 0001:00016B85
  6361 0001:00016B88  6362 0001:00016B8B  6363 0001:00016B8D  6364 0001:00016B8F
  6365 0001:00016B92  6366 0001:00016B93  6367 0001:00016B95  6368 0001:00016B97
  6369 0001:00016B9A  6370 0001:00016B9C  6371 0001:00016B9D  6372 0001:00016B9F
  6373 0001:00016BA1  6374 0001:00016BA2  6375 0001:00016BA3  6376 0001:00016BA4
  6379 0001:00016BA8  6380 0001:00016BAC  6381 0001:00016BBF  6382 0001:00016BDA
  6383 0001:00016BDF  6386 0001:00016BE4  6387 0001:00016BE7  6388 0001:00016BF3
  6393 0001:00016BF8  6394 0001:00016C0E  6395 0001:00016C18  6396 0001:00016C27
  6397 0001:00016C2C  6398 0001:00016C32  6403 0001:00016C58  6404 0001:00016C6E
  6405 0001:00016C78  6406 0001:00016C83  6407 0001:00016C88  6408 0001:00016C8E
  6413 0001:00016CB4  6414 0001:00016CBF  6415 0001:00016CC7  6416 0001:00016CD5
  6419 0001:00016CEA  6420 0001:00016CFE  6421 0001:00016D08  6422 0001:00016D11
  6423 0001:00016D25  6417 0001:00016D2C  6425 0001:00016D37  6427 0001:00016D4B
  6429 0001:00016D5B  6442 0001:00016D84  6443 0001:00016D89  6444 0001:00016D9E
  6443 0001:00016DB6  6445 0001:00016DB9  6450 0001:00016DC0  6451 0001:00016DC8
  6452 0001:00016DD9  6454 0001:00016DE8  6455 0001:00016E0E  6456 0001:00016E2E
  6451 0001:00016E2F  6457 0001:00016E32  6462 0001:00016E38  6463 0001:00016E46
  6464 0001:00016E5B  6465 0001:00016E61  6467 0001:00016E7B  6463 0001:00016E96
  6468 0001:00016E99  6471 0001:00016EA0  6472 0001:00016EA3  6473 0001:00016EBB
  6476 0001:00016EC0  6477 0001:00016EC7  6478 0001:00016EC9  6479 0001:00016EDD
  6480 0001:00016EF2  6481 0001:00016EF6  6482 0001:00016F03  6483 0001:00016F18
  6488 0001:00016F20  6489 0001:00016F26  6490 0001:00016F34  6491 0001:00016F47
  6492 0001:00016F4F  6493 0001:00016F5C  6494 0001:00016F77  6496 0001:00016F80
  6497 0001:00016F8B  6499 0001:00016F94  6500 0001:00016F9F  6502 0001:00016FAB
  6503 0001:00016FB9  6505 0001:00016FDF  6506 0001:00016FE7  6509 0001:00016FF1
  6511 0001:0001700B  6513 0001:00017029  6516 0001:00017030  6517 0001:00017036
  6518 0001:00017044  6519 0001:0001705C  6520 0001:00017073  6521 0001:00017092
  6523 0001:000170AD  6525 0001:000170CB  6528 0001:000170D0  6529 0001:000170D6
  6530 0001:000170E4  6531 0001:0001710E  6532 0001:00017128  6534 0001:00017150
  6536 0001:0001716E  6538 0001:00017174  6539 0001:0001719C  6540 0001:000171AA
  6541 0001:000171B5  6542 0001:000171C0  6543 0001:000171C9  6544 0001:000171D2
  6545 0001:000171E0  6546 0001:000171E6  6547 0001:000171EC  6548 0001:000171F2
  6549 0001:000171FB  6550 0001:00017202  6551 0001:0001720C  6552 0001:0001721A
  6553 0001:00017224  6554 0001:0001722C  6555 0001:0001723C  6556 0001:00017249
  6557 0001:00017261  6558 0001:0001726A  6559 0001:00017273  6560 0001:0001727B
  6561 0001:0001728B  6562 0001:00017296  6563 0001:0001729E  6564 0001:000172AE
  6565 0001:000172C9  6567 0001:000172D8  6569 0001:000172EA  6570 0001:000172F4
  6575 0001:00017304  6576 0001:0001730E  6579 0001:0001732B  6580 0001:0001733E
  6583 0001:00017355  6584 0001:0001735E  6586 0001:0001736F  6589 0001:000173B4
  6590 0001:000173BE  6592 0001:000173C7  6593 0001:000173D9  6594 0001:000173E7
  6595 0001:000173F1  6597 0001:00017406  6600 0001:00017416  6601 0001:00017420
  6606 0001:00017424  6607 0001:00017434  6608 0001:0001744A  6609 0001:00017452
  6610 0001:0001745B  6611 0001:00017464  6612 0001:00017475  6613 0001:00017483
  6614 0001:00017496  6615 0001:000174A8  6616 0001:000174BE  6618 0001:000174D3
  6619 0001:000174DC  6621 0001:000174ED  6624 0001:000174F4  6625 0001:000174FA
  6626 0001:00017505  6629 0001:00017515  6630 0001:00017518  6632 0001:00017523
  6635 0001:0001752C  6636 0001:00017532  6637 0001:0001753D  6640 0001:0001754D
  6641 0001:00017550  6643 0001:00017567  6646 0001:00017570  6647 0001:00017576
  6649 0001:00017591  6650 0001:00017594  6652 0001:000175AB  6655 0001:000175B4
  6656 0001:000175BA  6658 0001:000175D5  6659 0001:000175D8  6661 0001:000175F5
  6664 0001:00017604  6665 0001:0001760A  6667 0001:00017625  6668 0001:00017628
  6670 0001:0001763F  6675 0001:00017648  6676 0001:0001764F  6679 0001:00017696
  6680 0001:000176A4  6681 0001:000176B1  6684 0001:000176C7  6686 0001:000176D5
  6688 0001:000176E3  6690 0001:000176F1  6692 0001:000176FF  6694 0001:00017704
  6700 0001:00017744  6701 0001:0001774A  6704 0001:0001775F  6705 0001:0001776F
  6709 0001:00017779  6710 0001:00017789  6713 0001:00017793  6715 0001:000177A3
  6717 0001:000177A8  6720 0001:000177B0  6721 0001:000177B6  6723 0001:000177C1
  6724 0001:000177C8  6727 0001:000177D8  6728 0001:000177E7  6732 0001:000177F4
  6733 0001:000177FB  6737 0001:000177FC  6738 0001:00017803  6743 0001:00017804
  6744 0001:0001780D  6745 0001:00017816  6747 0001:00017823  6748 0001:0001782A
  6749 0001:0001782E  6751 0001:0001783C  6764 0001:00017844  6765 0001:00017863
  6766 0001:0001786B  6767 0001:00017880  6768 0001:00017891  6769 0001:000178B8
  6770 0001:0001791F  6773 0001:00017944  6774 0001:00017947  6775 0001:00017952
  6776 0001:0001795C  6778 0001:00017960  6779 0001:00017982  6780 0001:00017990
  6781 0001:0001799B  6782 0001:000179A9  6783 0001:000179AE  6784 0001:000179BC
  6785 0001:000179C2  6788 0001:000179CC  6789 0001:000179D1  6790 0001:000179E0
  6791 0001:000179F9  6792 0001:000179FD  6793 0001:00017A17  6794 0001:00017A1B
  6795 0001:00017A2C  6796 0001:00017A31  6797 0001:00017A3A  6798 0001:00017A47
  6799 0001:00017A60  6800 0001:00017A66  6786 0001:00017A67  6802 0001:00017A6C
  6803 0001:00017A86  6806 0001:00017A99  6807 0001:00017AA3  6808 0001:00017AAE
  6809 0001:00017AB8  6810 0001:00017AC4  6813 0001:00017AF0  6816 0001:00017B17
  6817 0001:00017B19  6819 0001:00017B3E  6833 0001:00017B64  6834 0001:00017B74
  6835 0001:00017B7F  6836 0001:00017B8E  6838 0001:00017B9D  6839 0001:00017BA2
  6843 0001:00017BAC  6844 0001:00017BB8  6845 0001:00017BE4  6849 0001:00017BEC
  6850 0001:00017C03  6851 0001:00017C25  6856 0001:00017C48  6857 0001:00017C5D
  6859 0001:00017C6C  6860 0001:00017C77  6861 0001:00017C7F  6864 0001:00017C95
  6865 0001:00017CDC  6867 0001:00017D08  6868 0001:00017D33  6869 0001:00017D3C
  6872 0001:00017D73  6873 0001:00017D7D  6874 0001:00017D84  6876 0001:00017DDB
  6877 0001:00017DE7  6879 0001:00017E05  6881 0001:00017E1F  6883 0001:00017E3A
  6885 0001:00017E55  6887 0001:00017E7C  6889 0001:00017E9B  6891 0001:00017EB9
  6893 0001:00017ED7  6895 0001:00017EF3  6898 0001:00017F05  6899 0001:00017F0D
  6903 0001:00017F1F  6904 0001:00017F27  6907 0001:00017F41  6910 0001:00017F61
  6912 0001:00017F6D  6913 0001:00017F75  6917 0001:00017F87  6918 0001:00017FA7
  6921 0001:00017FBD  6923 0001:00017FC6  6925 0001:00017FDD  6927 0001:00017FE4
  6934 0001:00018020  6935 0001:0001802D  6936 0001:0001802F  6939 0001:0001803A
  6940 0001:0001803B  6937 0001:0001805C  6942 0001:00018067  6948 0001:00018080
  6949 0001:000180B1  6950 0001:000180B9  6951 0001:000180BE  6952 0001:000180C8
  6953 0001:000180D6  6954 0001:000180E4  6955 0001:000180F2  6957 0001:000180F8
  6958 0001:00018115  6961 0001:0001812D  6962 0001:00018133  6963 0001:0001813E
  6964 0001:00018147  6966 0001:00018154  6967 0001:0001815C  6968 0001:00018164
  6971 0001:00018185  6972 0001:0001818E  6973 0001:000181AF  6974 0001:000181BD
  6975 0001:000181C6  6976 0001:000181D4  6977 0001:000181DA  6978 0001:000181E5
  6979 0001:000181F7  6980 0001:00018205  6981 0001:0001821A  6982 0001:0001822B
  6983 0001:00018237  6984 0001:00018242  6985 0001:0001824D  6986 0001:0001825B
  6987 0001:00018266  6988 0001:0001826C  6990 0001:000182A8  6991 0001:000182B9
  6994 0001:000182D6  6997 0001:000182EC  7001 0001:000182FA  7002 0001:000182FF
  7004 0001:00018316  6996 0001:00018334  7007 0001:00018345  7008 0001:0001834F
  7009 0001:0001835D  7012 0001:00018374  7014 0001:00018386  7048 0001:000183B4
  7049 0001:000183D5  7050 0001:000183E3  7051 0001:000183F4  7052 0001:00018400
  7055 0001:00018402  7056 0001:0001840D  7057 0001:00018413  7053 0001:00018425
  7060 0001:00018436  7061 0001:0001843E  7063 0001:00018448  7068 0001:00018470
  7069 0001:00018471  7070 0001:0001847D  7071 0001:00018492  7076 0001:00018494
  7077 0001:0001849B  7078 0001:000184A9  7079 0001:000184B6  7080 0001:000184CA
  7085 0001:000184D0  7086 0001:000184EF  7087 0001:000184FE  7090 0001:00018514
  7091 0001:00018519  7093 0001:0001852A  7095 0001:0001853B  7097 0001:0001854C
  7099 0001:00018551  7100 0001:0001855B  7102 0001:00018567  7108 0001:0001858C
  7109 0001:000185A9  7110 0001:000185B8  7113 0001:000185CE  7114 0001:000185D3
  7117 0001:000185E4  7118 0001:000185F3  7119 0001:000185FD  7123 0001:0001860D
  7124 0001:0001861C  7125 0001:00018627  7126 0001:00018634  7129 0001:00018640
  7132 0001:00018645  7135 0001:00018670  7136 0001:00018671  7137 0001:0001867D
  7147 0001:00018684  7148 0001:0001869A  7149 0001:000186AA  7154 0001:000186CC
  7155 0001:000186D8  7156 0001:000186EA  7157 0001:000186F1  7162 0001:000186F4
  7163 0001:000186FB  7164 0001:0001870E  7165 0001:0001871F  7168 0001:00018724
  7171 0001:00018730  7172 0001:00018744  7173 0001:00018752  7174 0001:00018764
  7169 0001:0001876B  7176 0001:00018776  7177 0001:0001877D  7179 0001:00018780
  7180 0001:0001879C  7182 0001:00018814  7183 0001:00018820  7184 0001:00018832
  7185 0001:00018844  7186 0001:00018856  7187 0001:00018868  7189 0001:00018878
  7190 0001:00018889  7191 0001:00018893  7192 0001:000188A1  7193 0001:000188AA
  7194 0001:000188B9  7195 0001:000188C8  7196 0001:000188D7  7197 0001:000188E5
  7198 0001:000188F4  7199 0001:00018902  7201 0001:0001890F  7286 0001:00018930
  7287 0001:00018946  7288 0001:00018950  7289 0001:00018957  7295 0001:00018978
  7296 0001:00018998  7298 0001:0001899C  7299 0001:000189A9  7300 0001:000189B3
  7302 0001:000189BF  7303 0001:000189D1  7304 0001:000189DA  7305 0001:000189EE
  7306 0001:000189F5  7312 0001:00018A20  7313 0001:00018A42  7314 0001:00018A4C
  7315 0001:00018A51  7316 0001:00018A58  7317 0001:00018A65  7319 0001:00018A6B
  7320 0001:00018A72  7321 0001:00018A82  7322 0001:00018A88  7324 0001:00018AAF
  7327 0001:00018AD8  7328 0001:00018AD9  7329 0001:00018AEC  7332 0001:00018AF0
  7333 0001:00018AF7  7334 0001:00018B0B  7335 0001:00018B14  7338 0001:00018B18
  7339 0001:00018B1F  7340 0001:00018B2E  7341 0001:00018B42  7342 0001:00018B51
  7343 0001:00018B58  7344 0001:00018B63  7345 0001:00018B7B  7346 0001:00018B82
  7351 0001:00018B8C  7352 0001:00018B98  7353 0001:00018B9C  7355 0001:00018BA4
  7356 0001:00018BB2  7360 0001:00018BBA  7361 0001:00018BC5  7352 0001:00018BC7
  7363 0001:00018BCB  7375 0001:00018BD4  7376 0001:00018BF3  7378 0001:00018C00
  7379 0001:00018C05  7380 0001:00018C14  7381 0001:00018C22  7383 0001:00018C31
  7384 0001:00018C44  7385 0001:00018C52  7387 0001:00018C66  7388 0001:00018C7D
  7389 0001:00018C8B  7390 0001:00018C96  7391 0001:00018CA6  7392 0001:00018CB4
  7394 0001:00018CC5  7396 0001:00018CEF  7397 0001:00018D06  7398 0001:00018D10
  7400 0001:00018D2A  7403 0001:00018D47  7404 0001:00018D4F  7406 0001:00018D5F
  7408 0001:00018D9C  7409 0001:00018DBC  7410 0001:00018DC3  7411 0001:00018E36
  7412 0001:00018E46  7413 0001:00018E52  7414 0001:00018E6D  7415 0001:00018E88
  7416 0001:00018EA0  7417 0001:00018EB4  7418 0001:00018EC8  7419 0001:00018EDC
  7420 0001:00018EF0  7421 0001:00018F04  7423 0001:00018F1B  7424 0001:00018F32
  7425 0001:00018F48  7426 0001:00018F5E  7428 0001:00018F71  7430 0001:00018F88
  7507 0001:00018FBC  7508 0001:00018FBD  7509 0001:00018FBE  7510 0001:00018FBF
  7511 0001:00018FC1  7512 0001:00018FC3  7513 0001:00018FC5  7514 0001:00018FC7
  7515 0001:00018FCA  7516 0001:00018FCD  7517 0001:00018FCF  7518 0001:00018FD1
  7519 0001:00018FD6  7520 0001:00018FD9  7521 0001:00018FDB  7522 0001:00018FDD
  7523 0001:00018FDF  7524 0001:00018FE1  7525 0001:00018FE2  7526 0001:00018FE5
  7527 0001:00018FE8  7528 0001:00018FEB  7529 0001:00018FED  7530 0001:00018FEF
  7531 0001:00018FF2  7532 0001:00018FF3  7533 0001:00018FF5  7534 0001:00018FF7
  7535 0001:00018FFA  7536 0001:00018FFC  7537 0001:00018FFD  7538 0001:00018FFF
  7539 0001:00019001  7540 0001:00019002  7541 0001:00019003  7542 0001:00019004
  7562 0001:00019008  7563 0001:0001900B  7564 0001:00019019  7565 0001:0001901E
  7569 0001:00019020  7570 0001:00019024  7572 0001:0001902C  7573 0001:00019033
  7784 0001:00019034  7785 0001:0001903B  7787 0001:00019047  7788 0001:00019050
  7790 0001:00019061  7792 0001:00019073  7793 0001:0001907C  7797 0001:0001908C
  7798 0001:00019095  7800 0001:000190A3  7815 0001:000190A8  7816 0001:000190AF
  7820 0001:000190B0  7821 0001:000190B7  8458 0001:000190B8  8459 0001:000190C4
  8461 0001:000190CF  8462 0001:000190E3  8463 0001:000190EC  8464 0001:000190FA
  8468 0001:00019108  8469 0001:00019116  8471 0001:0001911F  8472 0001:00019128
  8475 0001:00019138  8476 0001:00019141  8478 0001:0001914F  8480 0001:0001915B
  8483 0001:00019164  8484 0001:0001917D  8485 0001:00019193  8505 0001:000191B8
  8506 0001:000191BC  8507 0001:000191C8  9715 0001:000191CC  9717 0001:000191D6
  9718 0001:000191EB  9719 0001:000191F4  9724 0001:000191F9  9728 0001:00019200
  9730 0001:0001920A  9735 0001:00019215  9745 0001:00019218  9750 0001:00019223
  9758 0001:00019224  9760 0001:00019227  9761 0001:00019237  9770 0001:0001923C
  9802 0001:00019240  9803 0001:0001924B  9804 0001:0001925A  9805 0001:00019283
  9806 0001:00019287  9808 0001:00019290  9809 0001:00019295  9810 0001:0001929A
  9811 0001:000192A4  9812 0001:000192B2  9813 0001:000192C3  9814 0001:000192D1
  9815 0001:000192E9  9819 0001:000192F8  9820 0001:00019305  9821 0001:0001930F
  9822 0001:00019319  9823 0001:00019327  9824 0001:00019335  9826 0001:0001934F
  9827 0001:00019358  9829 0001:00019367  9832 0001:0001937E  9834 0001:00019390
  9836 0001:00019399  9843 0001:000193A7  9844 0001:000193B6  9817 0001:000193C3
  9849 0001:000193DD  9852 0001:000193FA  9854 0001:0001940C 10341 0001:00019418
 10342 0001:0001942D 10343 0001:00019437 10344 0001:00019444 10347 0001:00019464
 10348 0001:00019471 10349 0001:00019478 10352 0001:00019480 10351 0001:00019494
 10353 0001:000194A1 10355 0001:000194A9 10356 0001:000194B0 10357 0001:000194BE
 10358 0001:000194CC 10362 0001:000194E0 10363 0001:000194E6 10364 0001:000194EB
 10367 0001:000194EC 10368 0001:00019505 10371 0001:00019511 10372 0001:0001953F
 10373 0001:00019554 10375 0001:00019562 10376 0001:0001956C 10379 0001:00019575
 10380 0001:0001957B 10383 0001:0001961C 10384 0001:00019622 10385 0001:0001962D
 10388 0001:00019630 10389 0001:00019636 10390 0001:00019641 10394 0001:00019644
 10395 0001:0001964E 10399 0001:00019650 10400 0001:0001965A 10403 0001:0001965C
 10404 0001:00019662 10405 0001:00019677 10406 0001:00019681 10407 0001:00019684
 10410 0001:00019688 10411 0001:0001968B 10412 0001:00019690 10413 0001:00019698
 10415 0001:000196A1 10416 0001:000196A6 10418 0001:000196AB 10421 0001:000196B0
 10422 0001:000196B7 10423 0001:000196C4 10424 0001:000196CB 10425 0001:000196D2
 10426 0001:000196E1 10427 0001:000196EA 10428 0001:000196F3 10429 0001:000196F9
 10430 0001:00019704 10431 0001:0001970F 10434 0001:00019714 10435 0001:0001971B
 10436 0001:00019729 10437 0001:00019734 10438 0001:0001973D 10439 0001:00019746
 10444 0001:0001974C 10447 0001:00019753 10448 0001:0001975C 10450 0001:00019779
 10452 0001:00019784 10453 0001:0001978D 10445 0001:00019796 10455 0001:0001979D
 10460 0001:000197A8 10461 0001:000197AD 10463 0001:000197B3 10464 0001:000197B8
 10465 0001:000197BF 10466 0001:000197CA 10465 0001:000197DA 10468 0001:000197DD
 10471 0001:000197E4 10472 0001:000197E7 10474 0001:000197EE 10475 0001:000197F3
 10477 0001:000197FC 10478 0001:00019801 10481 0001:00019806 10484 0001:00019808
 10485 0001:0001980E 10486 0001:00019817 10487 0001:00019820 10493 0001:00019824
 10494 0001:00019830 10495 0001:0001983A 10496 0001:00019843 10498 0001:0001984A
 10499 0001:0001984E 10501 0001:00019852 10502 0001:00019867 10503 0001:00019868
 10504 0001:00019870 10499 0001:00019877 10507 0001:0001987B 10513 0001:00019884
 10514 0001:0001988F 10515 0001:00019894 10516 0001:00019897 10517 0001:000198A1
 10519 0001:000198C4 10521 0001:000198E7 10525 0001:0001990C 10526 0001:0001990E
 10529 0001:00019910 10530 0001:00019913 10534 0001:00019918 10535 0001:0001991A
 10540 0001:0001991C 10548 0001:00019920 10549 0001:00019926 10550 0001:00019930
 10554 0001:00019934 10555 0001:00019937 10559 0001:00019938 10563 0001:0001993C
 10564 0001:0001993E 10568 0001:00019940 10571 0001:00019944 10572 0001:00019947
 10573 0001:0001994C 10576 0001:00019950 10577 0001:00019953 10578 0001:00019958
 10581 0001:0001995C 10582 0001:0001995F 10583 0001:00019964 10588 0001:00019968
 10592 0001:0001996C 10593 0001:00019972 10597 0001:00019974 10598 0001:0001997A
 10602 0001:0001997C 10603 0001:0001998F 10605 0001:000199B3 10606 0001:000199D7
 10607 0001:000199E3 10608 0001:000199F1 10611 0001:000199FC 10612 0001:000199FF
 10613 0001:00019A0C 10617 0001:00019A10 10622 0001:00019A14 10623 0001:00019A1E
 10624 0001:00019A2A 10626 0001:00019A38 10627 0001:00019A44 10628 0001:00019A53
 10624 0001:00019A54 10629 0001:00019A57 10630 0001:00019A59 10633 0001:00019A64
 10634 0001:00019A6E 10636 0001:00019A7A 10637 0001:00019A8B 10638 0001:00019AAD
 10639 0001:00019AB4 10640 0001:00019AC3 10641 0001:00019AD0 10642 0001:00019AD9
 10643 0001:00019AE2 10645 0001:00019AEB 10648 0001:00019AF4 10649 0001:00019AFA
 10650 0001:00019B04 10660 0001:00019B08 10661 0001:00019B0E 10662 0001:00019B26
 10663 0001:00019B30 10667 0001:00019B34 10668 0001:00019B3B 10669 0001:00019B3F
 10670 0001:00019B41 10675 0001:00019B44 10676 0001:00019B4B 10678 0001:00019B52
 10679 0001:00019B5C 10681 0001:00019B60 10682 0001:00019B69 10683 0001:00019B6F
 10684 0001:00019B76 10686 0001:00019B7A 10687 0001:00019B82 10691 0001:00019B91
 10707 0001:00019B98 10708 0001:00019BA4 10709 0001:00019BA8 10710 0001:00019BAF
 10711 0001:00019BB4 10712 0001:00019BBA 10713 0001:00019BE1 10732 0001:00019BE8
 10733 0001:00019BF5 10735 0001:00019BFC 10736 0001:00019C14 10737 0001:00019C18
 10739 0001:00019C24 10742 0001:00019C30 10743 0001:00019C37 10744 0001:00019C42
 10745 0001:00019C46 10746 0001:00019C4F 10749 0001:00019C58 10750 0001:00019C5F
 10751 0001:00019C6A 10752 0001:00019C6E 10753 0001:00019C77 10777 0001:00019C80
 10779 0001:00019C81 10780 0001:00019C87 10793 0001:00019C91 10794 0001:00019C96
 10803 0001:00019C98 10804 0001:00019C9B 10809 0001:00019CA0 10811 0001:00019CAF
 10814 0001:00019CB5 10815 0001:00019CC8 10819 0001:00019CCF 10821 0001:00019CD9
 10824 0001:00019CE0 10826 0001:00019CE6 10827 0001:00019CEC 10829 0001:00019CF1
 10833 0001:00019CFA 10836 0001:00019D00 10838 0001:00019D06 10839 0001:00019D0C
 10841 0001:00019D11 10845 0001:00019D1A 10903 0001:00019D20 10976 0001:00019D24
 10977 0001:00019D39 10978 0001:00019D42 10979 0001:00019D4A 10983 0001:00019D68
 10986 0001:00019D6C 10987 0001:00019D77 10988 0001:00019D85 10989 0001:00019D91
 10992 0001:00019DA0 10993 0001:00019DA1 10994 0001:00019DB3 10997 0001:00019DB8
 10998 0001:00019DBC 10999 0001:00019DC4 11000 0001:00019DD0 11003 0001:00019DD4
 11004 0001:00019DDA 11006 0001:00019DE1 11007 0001:00019DEC 11008 0001:00019DEF
 11010 0001:00019DFC 11014 0001:00019E00 11015 0001:00019E02 11018 0001:00019E04
 11019 0001:00019E07 11023 0001:00019E0C 11024 0001:00019E14 11029 0001:00019E18
 11030 0001:00019E2A 11031 0001:00019E33 11032 0001:00019E42 11035 0001:00019E5C
 11036 0001:00019E68 11037 0001:00019E74 11038 0001:00019E7B 11039 0001:00019E82
 11041 0001:00019E8A 11040 0001:00019E9A 11042 0001:00019EA3 11043 0001:00019EAB
 11047 0001:00019EBC 11048 0001:00019EBE 11052 0001:00019EC0 11056 0001:00019EC4
 11057 0001:00019ECD 11058 0001:00019ED8 11059 0001:00019EE2 11060 0001:00019EE7
 11064 0001:00019EEC 11067 0001:00019EF0 11068 0001:00019EF1 11070 0001:00019EF8
 11071 0001:00019F02 11073 0001:00019F06 11074 0001:00019F08 11077 0001:00019F0C
 11078 0001:00019F0D 11080 0001:00019F14 11081 0001:00019F1E 11083 0001:00019F22
 11084 0001:00019F24 11089 0001:00019F28 11090 0001:00019F30 11093 0001:00019F40
 11094 0001:00019F4E 11093 0001:00019F64 11095 0001:00019F67 11096 0001:00019F73
 11098 0001:00019F7A 11101 0001:00019F84 11102 0001:00019F85 11103 0001:00019F96
 11107 0001:00019F98 11108 0001:00019F9B 11109 0001:00019FA3 11114 0001:00019FA4
 11115 0001:00019FAC 11116 0001:00019FBA 11118 0001:00019FC8 11119 0001:00019FCD
 11120 0001:00019FD7 11121 0001:00019FD9 11115 0001:00019FDA 11122 0001:00019FDD
 11125 0001:00019FE4 11126 0001:00019FEA 11128 0001:00019FF1 11129 0001:00019FF5
 11130 0001:00019FFC 11131 0001:0001A001 11132 0001:0001A005 11134 0001:0001A00C
 11140 0001:0001A010 11141 0001:0001A028 11142 0001:0001A031 11143 0001:0001A034
 11144 0001:0001A03B 11147 0001:0001A05C 11148 0001:0001A067 11150 0001:0001A06D
 11151 0001:0001A075 11153 0001:0001A07A 11154 0001:0001A086 11159 0001:0001A094
 11160 0001:0001A0A0 11161 0001:0001A0AE 11163 0001:0001A0B2 11164 0001:0001A0B7
 11166 0001:0001A0C1 11167 0001:0001A0CC 11168 0001:0001A0D7 11170 0001:0001A0E8
 11172 0001:0001A0F2 11177 0001:0001A0FC 11178 0001:0001A108 11179 0001:0001A116
 11181 0001:0001A11A 11182 0001:0001A11F 11184 0001:0001A129 11185 0001:0001A134
 11186 0001:0001A13F 11188 0001:0001A150 11190 0001:0001A15A 11196 0001:0001A164
 11197 0001:0001A173 11198 0001:0001A181 11200 0001:0001A18A 11201 0001:0001A18F
 11203 0001:0001A199 11204 0001:0001A1AD 11205 0001:0001A1C2 11207 0001:0001A1D3
 11209 0001:0001A1DD 11212 0001:0001A1E8 11213 0001:0001A1F1 11214 0001:0001A1FF
 11215 0001:0001A20D 11216 0001:0001A21E 11218 0001:0001A225 11220 0001:0001A236
 11222 0001:0001A240 11232 0001:0001A24C 11233 0001:0001A26B 11234 0001:0001A270
 11235 0001:0001A27E 11236 0001:0001A28C 11237 0001:0001A29A 11238 0001:0001A2AD
 11240 0001:0001A2B6 11241 0001:0001A2BC 11242 0001:0001A2C7 11245 0001:0001A2DA
 11246 0001:0001A2ED 11248 0001:0001A2F4 11249 0001:0001A2F7 11251 0001:0001A2FF
 11252 0001:0001A30F 11253 0001:0001A322 11254 0001:0001A338 11255 0001:0001A341
 11256 0001:0001A34F 11257 0001:0001A364 11258 0001:0001A370 11259 0001:0001A384
 11260 0001:0001A39C 11261 0001:0001A39E 11249 0001:0001A3A7 11243 0001:0001A3AF
 11265 0001:0001A3D4 11266 0001:0001A3DC 11267 0001:0001A3F1 11270 0001:0001A41D
 11272 0001:0001A429 11275 0001:0001A454 11276 0001:0001A457 11277 0001:0001A459
 11280 0001:0001A460 11281 0001:0001A463 11282 0001:0001A468 11286 0001:0001A46C
 11287 0001:0001A46F 11288 0001:0001A474 11292 0001:0001A478 11293 0001:0001A47B
 11294 0001:0001A480 11297 0001:0001A484 11298 0001:0001A490 11299 0001:0001A492
 11300 0001:0001A4A0 11303 0001:0001A4A4 11304 0001:0001A4AB 11305 0001:0001A4B8
 11306 0001:0001A4BD 11307 0001:0001A4C2 11308 0001:0001A4C7 11309 0001:0001A4CC
 11310 0001:0001A4D1 11311 0001:0001A4D6 11314 0001:0001A4EC 11316 0001:0001A4F6
 11319 0001:0001A500 11320 0001:0001A50E 11321 0001:0001A513 11326 0001:0001A518
 11327 0001:0001A51E 11328 0001:0001A52A 11329 0001:0001A538 11330 0001:0001A543
 11329 0001:0001A552 11332 0001:0001A562 11334 0001:0001A574 11335 0001:0001A57E
 11339 0001:0001A584 11340 0001:0001A589 11564 0001:0001A58C 11565 0001:0001A58F
 11566 0001:0001A591 11567 0001:0001A592 11568 0001:0001A595 11569 0001:0001A598
 11570 0001:0001A59B 11571 0001:0001A59D 11572 0001:0001A5A0 11573 0001:0001A5A2
 11574 0001:0001A5A5 11575 0001:0001A5A6 11581 0001:0001A5AC 11582 0001:0001A5B3
 11593 0001:0001A5B4 11594 0001:0001A5BF 11596 0001:0001A5C4 11597 0001:0001A5D9
 11598 0001:0001A5E0 11599 0001:0001A5F2 11600 0001:0001A602 11602 0001:0001A605
 11603 0001:0001A608 11604 0001:0001A615 11605 0001:0001A61A 11606 0001:0001A61C
 11607 0001:0001A61F 11608 0001:0001A62A 11610 0001:0001A630 11611 0001:0001A632
 11612 0001:0001A634 11613 0001:0001A639 11614 0001:0001A645 11620 0001:0001A64C
 11622 0001:0001A650 11623 0001:0001A659 11625 0001:0001A65E 11644 0001:0001A670
 11645 0001:0001A677 11649 0001:0001A681 11651 0001:0001A69C 11653 0001:0001A6AA
 11654 0001:0001A6AE 11655 0001:0001A6BF 11657 0001:0001A6C9 11659 0001:0001A6F9
 11660 0001:0001A700 11661 0001:0001A714 11666 0001:0001A724 11667 0001:0001A728
 11668 0001:0001A732 11669 0001:0001A738 11670 0001:0001A747 11696 0001:0001A74C
 11697 0001:0001A76F 11698 0001:0001A779 11699 0001:0001A77E 11700 0001:0001A787
 11701 0001:0001A791 11702 0001:0001A7A1 11703 0001:0001A7AB 11704 0001:0001A7B5
 11705 0001:0001A7BF 11706 0001:0001A7C9 11707 0001:0001A7CE 11709 0001:0001A7D8

Line numbers for Classes(Classes.pas) segment .itext

 11682 0002:000001F8 11683 0002:00000212 11684 0002:00000217 11686 0002:00000221
 11691 0002:00000240 11692 0002:00000251 11693 0002:00000262 11695 0002:00000273

Line numbers for IniFiles(IniFiles.pas) segment .itext

   958 0002:0000028C

Line numbers for Registry(Registry.pas) segment .text

   166 0001:0001A924   167 0001:0001A92A   168 0001:0001A94C   171 0001:0001A950
   172 0001:0001A953   173 0001:0001A962   189 0001:0001A964   190 0001:0001A96C
   191 0001:0001A975   192 0001:0001A97E   193 0001:0001A987   194 0001:0001A989
   197 0001:0001A98C   198 0001:0001A99E   199 0001:0001A9AA   200 0001:0001A9B1
   201 0001:0001A9B5   210 0001:0001A9D0   211 0001:0001A9DB   212 0001:0001A9E2
   213 0001:0001A9EE   216 0001:0001A9FC   217 0001:0001A9FF   219 0001:0001AA06
   220 0001:0001AA0C   221 0001:0001AA12   222 0001:0001AA1B   223 0001:0001AA20
   225 0001:0001AA28   228 0001:0001AA2C   229 0001:0001AA32   231 0001:0001AA39
   233 0001:0001AA3F   234 0001:0001AA45   236 0001:0001AA49   237 0001:0001AA4C
   239 0001:0001AA53   242 0001:0001AA58   243 0001:0001AA61   244 0001:0001AA68
   245 0001:0001AA6B   246 0001:0001AA75   250 0001:0001AA7C   251 0001:0001AA87
   252 0001:0001AA8B   253 0001:0001AA8D   308 0001:0001AA90   309 0001:0001AAAF
   310 0001:0001AAB9   312 0001:0001AAC3   313 0001:0001AAD9   314 0001:0001AADE
   316 0001:0001AB07   318 0001:0001AB0D   319 0001:0001AB14   320 0001:0001AB37
   324 0001:0001AB49   327 0001:0001AB72   329 0001:0001AB78   330 0001:0001AB7F
   331 0001:0001ABA2   335 0001:0001ABB1   337 0001:0001ABD7   339 0001:0001ABDD
   340 0001:0001ABE4   341 0001:0001AC07   345 0001:0001AC14   444 0001:0001AC48
   445 0001:0001AC53   446 0001:0001AC61   448 0001:0001AC84   449 0001:0001AC8F
   454 0001:0001AC98   455 0001:0001ACA1   456 0001:0001ACB0   457 0001:0001ACB6
   458 0001:0001ACB9   483 0001:0001ACC0   484 0001:0001ACCB   485 0001:0001ACD6
   487 0001:0001ACDA   488 0001:0001ACE5   489 0001:0001ACFD   490 0001:0001AD09
   491 0001:0001AD20   493 0001:0001AD29   494 0001:0001AD30   620 0001:0001AD38
   621 0001:0001AD47   622 0001:0001AD4C   624 0001:0001AD6C   625 0001:0001AD90
   626 0001:0001AD93   627 0001:0001ADA0

Line numbers for Registry(Registry.pas) segment .itext

  1499 0002:00000294

Line numbers for Consts(Consts.pas) segment .text

   345 0001:00000000

Line numbers for Graphics(Graphics.pas) segment .text

  1233 0001:0001BD14  1234 0001:0001BD20  1235 0001:0001BD26  1274 0001:0001BDFC
  1275 0001:0001BDFE  1276 0001:0001BE00  1277 0001:0001BE02  1278 0001:0001BE06
  1279 0001:0001BE08  1280 0001:0001BE09  1281 0001:0001BE0A  1282 0001:0001BE0C
  1285 0001:0001BE10  1286 0001:0001BE22  1287 0001:0001BE26  1288 0001:0001BE2F
  1291 0001:0001BE4C  1292 0001:0001BE57  1293 0001:0001BE60  1297 0001:0001BE70
  1298 0001:0001BE79  1302 0001:0001BE7C  1303 0001:0001BE85  1308 0001:0001BE88
  1309 0001:0001BE95  1310 0001:0001BEA5  1311 0001:0001BEAD  1312 0001:0001BEBB
  1315 0001:0001BEC6  1313 0001:0001BECE  1316 0001:0001BEF5  1318 0001:0001BEFB
  1319 0001:0001BF0D  1321 0001:0001BF10  1322 0001:0001BF18  1323 0001:0001BF1D
  1324 0001:0001BF22  1325 0001:0001BF26  1327 0001:0001BF37  1329 0001:0001BF40
  1331 0001:0001BF53  1333 0001:0001BF63  1339 0001:0001BF6C  1340 0001:0001BF79
  1341 0001:0001BF83  1343 0001:0001BF89  1344 0001:0001BF91  1345 0001:0001BF9F
  1346 0001:0001BFA5  1347 0001:0001BFB0  1349 0001:0001BFB6  1350 0001:0001BFC1
  1354 0001:0001BFCE  1355 0001:0001BFD7  1359 0001:0001BFEB  1361 0001:0001BFFB
  1363 0001:0001C001  1364 0001:0001C011  1365 0001:0001C020  1368 0001:0001C028
  1374 0001:0001C030  1375 0001:0001C041  1376 0001:0001C049  1377 0001:0001C057
  1378 0001:0001C05A  1379 0001:0001C06A  1380 0001:0001C079  1382 0001:0001C090
  1384 0001:0001C0A0  1388 0001:0001C0A8  1394 0001:0001C0AC  1395 0001:0001C0BA
  1396 0001:0001C0C2  1397 0001:0001C0D0  1398 0001:0001C0D3  1400 0001:0001C0D7
  1401 0001:0001C0DA  1402 0001:0001C0DD  1403 0001:0001C0E8  1406 0001:0001C0FF
  1408 0001:0001C10F  1414 0001:0001C118  1415 0001:0001C11E  1416 0001:0001C126
  1426 0001:0001C128  1427 0001:0001C132  1428 0001:0001C13A  1429 0001:0001C148
  1430 0001:0001C14E  1432 0001:0001C152  1434 0001:0001C154  1436 0001:0001C161
  1437 0001:0001C167  1439 0001:0001C16C  1430 0001:0001C16E  1442 0001:0001C17F
  1444 0001:0001C18F  1448 0001:0001C198  1450 0001:0001C1A0  1451 0001:0001C1A5
  1452 0001:0001C1B2  1455 0001:0001C1C2  1457 0001:0001C1CF  1458 0001:0001C1D6
  1459 0001:0001C1D9  1453 0001:0001C1E0  1462 0001:0001C1EB  1463 0001:0001C1F5
  1465 0001:0001C20C  1466 0001:0001C217  1465 0001:0001C227  1467 0001:0001C22A
  1469 0001:0001C23C  1533 0001:0001C684  1534 0001:0001C688  1536 0001:0001C693
  1559 0001:0001C694  1560 0001:0001C6A0  1564 0001:0001C6A4  1565 0001:0001C6B0
  1570 0001:0001C6B4  1571 0001:0001C6B5  1572 0001:0001C6C6  1576 0001:0001C6C8
  1577 0001:0001C6D5  1581 0001:0001C6D8  1582 0001:0001C6E5  1621 0001:0001C89C
  1622 0001:0001C8A8  1626 0001:0001C8AC  1627 0001:0001C8B8  1632 0001:0001C8BC
  1633 0001:0001C8C6  1634 0001:0001C8D6  1636 0001:0001C8DE  1639 0001:0001C8EF
  1640 0001:0001C8F5  1641 0001:0001C8FF  1642 0001:0001C903  1643 0001:0001C90A
  1644 0001:0001C90E  1645 0001:0001C915  1646 0001:0001C919  1647 0001:0001C920
  1648 0001:0001C924  1649 0001:0001C92C  1650 0001:0001C94C  1651 0001:0001C95B
  1652 0001:0001C961  1654 0001:0001C967  1656 0001:0001C96B  1657 0001:0001C96D
  1660 0001:0001C974  1663 0001:0001C97C  1664 0001:0001C98E  1665 0001:0001C995
  1666 0001:0001C9A7  1667 0001:0001C9AE  1668 0001:0001C9B6  1671 0001:0001C9D0
  1672 0001:0001C9DB  1673 0001:0001C9E8  1676 0001:0001C9F8  1677 0001:0001C9FB
  1678 0001:0001CA02  1679 0001:0001CA10  1682 0001:0001CA14  1683 0001:0001CA21
  1685 0001:0001CA37  1686 0001:0001CA3F  1687 0001:0001CA4D  1688 0001:0001CA57
  1689 0001:0001CA65  1690 0001:0001CA75  1691 0001:0001CA80  1692 0001:0001CA8B
  1694 0001:0001CAA9  1697 0001:0001CAC6  1701 0001:0001CAD6  1702 0001:0001CAE1
  1705 0001:0001CAE8  1706 0001:0001CAEA  1707 0001:0001CAF9  1708 0001:0001CAFD
  1711 0001:0001CB00  1712 0001:0001CB0A  1713 0001:0001CB12  1714 0001:0001CB20
  1716 0001:0001CB3C  1718 0001:0001CB4C  1721 0001:0001CB50  1722 0001:0001CB51
  1724 0001:0001CB56  1725 0001:0001CB59  1727 0001:0001CB62  1730 0001:0001CB64
  1731 0001:0001CB67  1733 0001:0001CB8C  1738 0001:0001CB90  1739 0001:0001CBB7
  1741 0001:0001CBBD  1743 0001:0001CBCA  1744 0001:0001CBD4  1746 0001:0001CBE2
  1748 0001:0001CBEF  1749 0001:0001CBF8  1750 0001:0001CBFD  1751 0001:0001CC06
  1752 0001:0001CC09  1753 0001:0001CC12  1755 0001:0001CC1B  1756 0001:0001CC22
  1757 0001:0001CC2F  1758 0001:0001CC3C  1759 0001:0001CC49  1761 0001:0001CC5D
  1763 0001:0001CC69  1764 0001:0001CC6C  1765 0001:0001CCCB  1767 0001:0001CCE5
  1768 0001:0001CCFE  1770 0001:0001CD20  1771 0001:0001CD24  1774 0001:0001CD28
  1775 0001:0001CD2E  1777 0001:0001CD34  1778 0001:0001CD38  1779 0001:0001CD3C
  1780 0001:0001CD4D  1781 0001:0001CD53  1783 0001:0001CD59  1785 0001:0001CD5D
  1788 0001:0001CD79  1791 0001:0001CD8B  1793 0001:0001CD91  1796 0001:0001CDCC
  1797 0001:0001CDD5  1798 0001:0001CDE7  1802 0001:0001CDF0  1803 0001:0001CDF6
  1808 0001:0001CDF8  1809 0001:0001CE01  1810 0001:0001CE0A  1811 0001:0001CE0E
  1812 0001:0001CE17  1815 0001:0001CE20  1816 0001:0001CE26  1817 0001:0001CE33
  1822 0001:0001CE38  1823 0001:0001CE44  1825 0001:0001CE48  1826 0001:0001CE51
  1827 0001:0001CE61  1828 0001:0001CE80  1830 0001:0001CE89  1833 0001:0001CE94
  1834 0001:0001CE97  1835 0001:0001CEAC  1838 0001:0001CEB0  1839 0001:0001CEB6
  1840 0001:0001CECD  1844 0001:0001CED0  1845 0001:0001CED7  1850 0001:0001CEDC
  1851 0001:0001CEE5  1852 0001:0001CEF0  1853 0001:0001CEF8  1854 0001:0001CF03
  1858 0001:0001CF08  1859 0001:0001CF0F  1864 0001:0001CF10  1865 0001:0001CF19
  1866 0001:0001CF22  1867 0001:0001CF26  1868 0001:0001CF2F  1872 0001:0001CF38
  1873 0001:0001CF3F  1878 0001:0001CF40  1879 0001:0001CF49  1880 0001:0001CF52
  1881 0001:0001CF56  1882 0001:0001CF5F  1886 0001:0001CF68  1887 0001:0001CF6E
  1892 0001:0001CF70  1893 0001:0001CF79  1894 0001:0001CF82  1895 0001:0001CF86
  1896 0001:0001CF8F  1968 0001:0001CF98  1969 0001:0001CFAA  1970 0001:0001CFBC
  1971 0001:0001CFC0  1974 0001:0001CFDC  1975 0001:0001CFE7  1976 0001:0001CFF4
  1979 0001:0001D004  1980 0001:0001D011  1982 0001:0001D027  1983 0001:0001D02F
  1984 0001:0001D03D  1985 0001:0001D047  1986 0001:0001D055  1987 0001:0001D065
  1989 0001:0001D07E  1992 0001:0001D09B  1996 0001:0001D0AB  1997 0001:0001D0B6
  2000 0001:0001D0BC  2001 0001:0001D0BE  2002 0001:0001D0CA  2003 0001:0001D0CE
  2006 0001:0001D0D4  2007 0001:0001D0DE  2008 0001:0001D0E6  2009 0001:0001D0F4
  2011 0001:0001D110  2013 0001:0001D120  2017 0001:0001D124  2018 0001:0001D12A
  2023 0001:0001D12C  2024 0001:0001D135  2025 0001:0001D13E  2026 0001:0001D142
  2027 0001:0001D14B  2036 0001:0001D154  2037 0001:0001D15A  2039 0001:0001D160
  2041 0001:0001D169  2042 0001:0001D173  2044 0001:0001D181  2046 0001:0001D18A
  2047 0001:0001D19C  2048 0001:0001D1A5  2049 0001:0001D1B3  2052 0001:0001D1CF
  2055 0001:0001D1E1  2057 0001:0001D1E7  2065 0001:0001D1EC  2066 0001:0001D1ED
  2068 0001:0001D1F2  2069 0001:0001D1F5  2071 0001:0001D1FE  2075 0001:0001D200
  2076 0001:0001D207  2081 0001:0001D208  2082 0001:0001D211  2083 0001:0001D21A
  2084 0001:0001D21E  2085 0001:0001D227  2089 0001:0001D230  2090 0001:0001D236
  2095 0001:0001D238  2096 0001:0001D241  2098 0001:0001D245  2099 0001:0001D24E
  2100 0001:0001D252  2102 0001:0001D25B  2146 0001:0001D264  2147 0001:0001D276
  2148 0001:0001D288  2151 0001:0001D2A4  2152 0001:0001D2AF  2153 0001:0001D2BC
  2156 0001:0001D2CC  2157 0001:0001D2D9  2159 0001:0001D2EB  2160 0001:0001D2F3
  2161 0001:0001D301  2162 0001:0001D30B  2163 0001:0001D319  2165 0001:0001D336
  2168 0001:0001D353  2172 0001:0001D363  2173 0001:0001D36E  2176 0001:0001D374
  2177 0001:0001D376  2178 0001:0001D382  2179 0001:0001D386  2180 0001:0001D38B
  2183 0001:0001D390  2184 0001:0001D39A  2185 0001:0001D3A2  2186 0001:0001D3B0
  2188 0001:0001D3CC  2190 0001:0001D3DC  2200 0001:0001D3E0  2201 0001:0001D3E5
  2202 0001:0001D3F0  2203 0001:0001D3F4  2204 0001:0001D3FB  2208 0001:0001D404
  2209 0001:0001D40A  2214 0001:0001D40C  2215 0001:0001D415  2216 0001:0001D41E
  2217 0001:0001D422  2218 0001:0001D42E  2219 0001:0001D437  2224 0001:0001D440
  2225 0001:0001D446  2227 0001:0001D44C  2229 0001:0001D459  2230 0001:0001D463
  2231 0001:0001D471  2235 0001:0001D47A  2237 0001:0001D484  2238 0001:0001D48B
  2239 0001:0001D492  2242 0001:0001D4A2  2243 0001:0001D4A7  2244 0001:0001D4B9
  2245 0001:0001D4C0  2247 0001:0001D4C9  2248 0001:0001D4D0  2251 0001:0001D4D9
  2253 0001:0001D4E7  2256 0001:0001D503  2259 0001:0001D515  2261 0001:0001D51B
  2270 0001:0001D520  2271 0001:0001D527  2276 0001:0001D528  2277 0001:0001D531
  2278 0001:0001D53A  2279 0001:0001D540  2280 0001:0001D54C  2281 0001:0001D555
  2307 0001:0001D55C  2308 0001:0001D56F  2309 0001:0001D578  2310 0001:0001D581
  2311 0001:0001D592  2312 0001:0001D59C  2313 0001:0001D5A2  2314 0001:0001D5B3
  2315 0001:0001D5BD  2316 0001:0001D5C3  2317 0001:0001D5D4  2318 0001:0001D5DE
  2319 0001:0001D5E4  2320 0001:0001D5EB  2321 0001:0001D5F5  2322 0001:0001D601
  2325 0001:0001D620  2326 0001:0001D62B  2327 0001:0001D637  2328 0001:0001D640
  2329 0001:0001D648  2330 0001:0001D650  2331 0001:0001D658  2332 0001:0001D661
  2333 0001:0001D66D  2431 0001:0001D67C  2432 0001:0001D68D  2433 0001:0001D694
  2434 0001:0001D6A2  2435 0001:0001D6B1  2438 0001:0001D6ED  2439 0001:0001D6F4
  2442 0001:0001D704  2443 0001:0001D717  2445 0001:0001D72A  2446 0001:0001D731
  2447 0001:0001D73F  2448 0001:0001D756  2449 0001:0001D76B  2450 0001:0001D79B
  2452 0001:0001D7A2  2476 0001:0001D7B0  2477 0001:0001D7B6  2478 0001:0001D7BD
  2479 0001:0001D7CB  2480 0001:0001D7DE  2481 0001:0001D7E5  2509 0001:0001D7EC
  2510 0001:0001D7F5  2511 0001:0001D7FC  2512 0001:0001D80A  2513 0001:0001D815
  2514 0001:0001D81C  2517 0001:0001D824  2518 0001:0001D827  2519 0001:0001D831
  2520 0001:0001D834  2521 0001:0001D83E  2522 0001:0001D847  2525 0001:0001D84C
  2526 0001:0001D855  2527 0001:0001D863  2528 0001:0001D870  2601 0001:0001D878
  2602 0001:0001D881  2604 0001:0001D885  2605 0001:0001D88C  2606 0001:0001D89A
  2607 0001:0001D8A5  2609 0001:0001D8AC  2651 0001:0001D8B4  2652 0001:0001D8BE
  2653 0001:0001D8CC  2654 0001:0001D8D0  2655 0001:0001D8D5  2656 0001:0001D8F3
  2659 0001:0001D8FC  2660 0001:0001D905  2661 0001:0001D913  2664 0001:0001D918
  2665 0001:0001D921  2666 0001:0001D930  2669 0001:0001D938  2670 0001:0001D93F
  2671 0001:0001D949  2672 0001:0001D957  2673 0001:0001D95F  2675 0001:0001D979
  2677 0001:0001D98B  2680 0001:0001D994  2681 0001:0001D997  2682 0001:0001D9A0
  2683 0001:0001D9AA  2684 0001:0001D9AD  2685 0001:0001D9B7  2688 0001:0001D9BC
  2689 0001:0001D9BF  2690 0001:0001D9C7  2694 0001:0001D9CC  2695 0001:0001D9D4
  2699 0001:0001D9D8  2700 0001:0001D9E0  2703 0001:0001D9E4  2704 0001:0001D9EA
  2705 0001:0001D9F8  2706 0001:0001DA02  2709 0001:0001DA0C  2710 0001:0001DA18
  2711 0001:0001DA24  2714 0001:0001DA2C  2715 0001:0001DA35  2716 0001:0001DA43
  2717 0001:0001DA4E  2720 0001:0001DA58  2721 0001:0001DA64  2722 0001:0001DA6B
  2723 0001:0001DA79  2724 0001:0001DA8D  2725 0001:0001DA94  2734 0001:0001DAA0
  2735 0001:0001DAA3  2736 0001:0001DAAA  2737 0001:0001DAB8  2738 0001:0001DABB
  2741 0001:0001DAC4  2742 0001:0001DAC8  2744 0001:0001DAE3  2745 0001:0001DAEF
  2746 0001:0001DAFE  2747 0001:0001DB0D  2749 0001:0001DB1C  2753 0001:0001DB24
  2756 0001:0001DB28  2757 0001:0001DB31  2759 0001:0001DB38  2761 0001:0001DB3C
  2762 0001:0001DB43  2763 0001:0001DB59  2764 0001:0001DB5E  2766 0001:0001DB62
  2768 0001:0001DB66  2769 0001:0001DB6A  2770 0001:0001DB6D  2773 0001:0001DB77
  2778 0001:0001DB7C  2779 0001:0001DB84  2780 0001:0001DB8D  2782 0001:0001DB98
  2784 0001:0001DB9D  2785 0001:0001DBA4  2786 0001:0001DBAA  2788 0001:0001DBC1
  2789 0001:0001DBCD  2790 0001:0001DBD9  2791 0001:0001DBE5  2793 0001:0001DBEB
  2796 0001:0001DBF4  2797 0001:0001DBF5  2798 0001:0001DC06  2801 0001:0001DC08
  2802 0001:0001DC09  2803 0001:0001DC1A  2806 0001:0001DC1C  2807 0001:0001DC1F
  2808 0001:0001DC31  2809 0001:0001DC46  2817 0001:0001DC48  2818 0001:0001DC4B
  2819 0001:0001DC5D  2820 0001:0001DC76  2823 0001:0001DC78  2824 0001:0001DC7B
  2825 0001:0001DC89  2826 0001:0001DC9B  2828 0001:0001DCA7  2829 0001:0001DCBE
  2835 0001:0001DCCB  2836 0001:0001DCE4  2838 0001:0001DCEF  2841 0001:0001DCF4
  2842 0001:0001DCF7  2844 0001:0001DCFD  2845 0001:0001DD01  2847 0001:0001DD10
  2850 0001:0001DD14  2851 0001:0001DD17  2853 0001:0001DD1D  2854 0001:0001DD21
  2856 0001:0001DD30  2859 0001:0001DD34  2860 0001:0001DD37  2862 0001:0001DD3D
  2863 0001:0001DD41  2865 0001:0001DD50  2889 0001:0001DD54  2890 0001:0001DD57
  2891 0001:0001DD6A  2894 0001:0001DD6C  2895 0001:0001DD6F  2896 0001:0001DD82
  2900 0001:0001DD84  2901 0001:0001DD8E  2905 0001:0001DD90  2906 0001:0001DD9A
  2914 0001:0001DD9C  2915 0001:0001DDAF  2916 0001:0001DDD0  2922 0001:0001DDF0
  2923 0001:0001DE10  2924 0001:0001DE17  2926 0001:0001DE3F  2928 0001:0001DE6E
  2929 0001:0001DE73  2932 0001:0001DE98  2933 0001:0001DE9B  2934 0001:0001DEA4
  2935 0001:0001DEA6  2942 0001:0001DEA8  2943 0001:0001DEBD  2944 0001:0001DEC7
  2946 0001:0001DED1  2947 0001:0001DEDF  2948 0001:0001DEEE  2949 0001:0001DEF2
  2952 0001:0001DF0A  2953 0001:0001DF14  2954 0001:0001DF1F  2955 0001:0001DF2D
  2956 0001:0001DF41  2958 0001:0001DF59  2962 0001:0001DF6C  2964 0001:0001DF72
  2965 0001:0001DF81  2967 0001:0001DF90  2969 0001:0001DFBA  2970 0001:0001DFC8
  2973 0001:0001DFE3  2974 0001:0001DFEC  2976 0001:0001DFFD  2980 0001:0001E008
  2981 0001:0001E01B  2983 0001:0001E025  2985 0001:0001E027  2988 0001:0001E028
  2989 0001:0001E029  2990 0001:0001E02A  2991 0001:0001E035  2992 0001:0001E041
  3005 0001:0001E048  3006 0001:0001E05F  3007 0001:0001E063  3009 0001:0001E083
  3010 0001:0001E098  3011 0001:0001E0A8  3013 0001:0001E0B6  3015 0001:0001E0F6
  3016 0001:0001E106  3020 0001:0001E117  3021 0001:0001E11C  3022 0001:0001E12B
  3023 0001:0001E139  3024 0001:0001E14C  3025 0001:0001E15C  3026 0001:0001E170
  3027 0001:0001E17F  3028 0001:0001E185  3030 0001:0001E199  3031 0001:0001E1AD
  3033 0001:0001E1B6  3034 0001:0001E1D8  3035 0001:0001E1FA  3036 0001:0001E205
  3037 0001:0001E213  3038 0001:0001E23C  3039 0001:0001E261  3040 0001:0001E26B
  3042 0001:0001E275  3043 0001:0001E288  3045 0001:0001E29E  3046 0001:0001E2B3
  3048 0001:0001E2C4  3063 0001:0001E2D4  3064 0001:0001E2D7  3065 0001:0001E2D9
  3066 0001:0001E2DB  3067 0001:0001E2E0  3069 0001:0001E2E9  3070 0001:0001E2F0
  3071 0001:0001E2F7  3072 0001:0001E2FC  3073 0001:0001E300  3066 0001:0001E301
  3074 0001:0001E305  3075 0001:0001E309  3083 0001:0001E310  3084 0001:0001E319
  3085 0001:0001E31B  3086 0001:0001E31F  3087 0001:0001E32E  3089 0001:0001E33B
  3090 0001:0001E342  3091 0001:0001E349  3092 0001:0001E34E  3086 0001:0001E34F
  3093 0001:0001E352  3095 0001:0001E35D  3096 0001:0001E37C  3098 0001:0001E385
  3103 0001:0001E38C  3104 0001:0001E398  3106 0001:0001E3A3  3107 0001:0001E3A6
  3108 0001:0001E3A9  3109 0001:0001E3AA  3110 0001:0001E3AC  3111 0001:0001E3B0
  3112 0001:0001E3B2  3113 0001:0001E3B5  3114 0001:0001E3B7  3115 0001:0001E3BA
  3116 0001:0001E3BD  3117 0001:0001E3BE  3118 0001:0001E3C0  3120 0001:0001E3C2
  3121 0001:0001E3C3  3122 0001:0001E3C5  3123 0001:0001E3C8  3124 0001:0001E3CA
  3125 0001:0001E3CC  3126 0001:0001E3CF  3127 0001:0001E3D2  3128 0001:0001E3D4
  3129 0001:0001E3D7  3130 0001:0001E3D8  3131 0001:0001E3DA  3134 0001:0001E3DB
  3141 0001:0001E3E0  3142 0001:0001E3EA  3143 0001:0001E3F3  3144 0001:0001E3FC
  3145 0001:0001E40C  3146 0001:0001E416  3147 0001:0001E424  3150 0001:0001E431
  3152 0001:0001E43A  3154 0001:0001E44E  3156 0001:0001E45A  3157 0001:0001E472
  3158 0001:0001E490  3161 0001:0001E4A6  3167 0001:0001E4D1  3169 0001:0001E4E4
  3170 0001:0001E4F0  3176 0001:0001E4F8  3177 0001:0001E501  3178 0001:0001E505
  3180 0001:0001E50E  3181 0001:0001E518  3182 0001:0001E526  3183 0001:0001E531
  3187 0001:0001E536  3188 0001:0001E549  3189 0001:0001E561  3192 0001:0001E572
  3195 0001:0001E585  3203 0001:0001E590  3204 0001:0001E59B  3205 0001:0001E59D
  3206 0001:0001E5A3  3208 0001:0001E5A7  3209 0001:0001E5B0  3210 0001:0001E5B9
  3211 0001:0001E5D0  3212 0001:0001E5D7  3216 0001:0001E5DF  3217 0001:0001E5E4
  3219 0001:0001E5F3  3220 0001:0001E5FB  3221 0001:0001E60E  3222 0001:0001E61C
  3223 0001:0001E626  3227 0001:0001E634  3228 0001:0001E63E  3229 0001:0001E643
  3232 0001:0001E65A  3233 0001:0001E665  3234 0001:0001E673  3235 0001:0001E67D
  3248 0001:0001E688  3251 0001:0001E699  3252 0001:0001E69F  3253 0001:0001E6C2
  3255 0001:0001E6D0  3256 0001:0001E6DA  3257 0001:0001E6E5  3258 0001:0001E6F3
  3259 0001:0001E706  3260 0001:0001E727  3261 0001:0001E735  3263 0001:0001E751
  3267 0001:0001E762  3268 0001:0001E76B  3269 0001:0001E776  3270 0001:0001E798
  3271 0001:0001E7A2  3273 0001:0001E7AC  3274 0001:0001E7B2  3275 0001:0001E7B6
  3276 0001:0001E7BD  3277 0001:0001E7DE  3278 0001:0001E7EC  3280 0001:0001E80B
  3283 0001:0001E829  3285 0001:0001E83C  3318 0001:0001E848  3319 0001:0001E84C
  3322 0001:0001E851  3327 0001:0001E854  3328 0001:0001E860  3329 0001:0001E86D
  3330 0001:0001E87A  3331 0001:0001E888  3332 0001:0001E89B  3334 0001:0001E8DB
  3336 0001:0001E8E4  3337 0001:0001E8F9  3338 0001:0001E902  3339 0001:0001E90D
  3340 0001:0001E91B  3341 0001:0001E929  3343 0001:0001E930  3344 0001:0001E93C
  3347 0001:0001E94B  3348 0001:0001E958  3349 0001:0001E962  3350 0001:0001E96D
  3351 0001:0001E97B  3352 0001:0001E999  3353 0001:0001E99F  3355 0001:0001E9A8
  3357 0001:0001E9C1  3362 0001:0001E9D4  3363 0001:0001E9D9  3364 0001:0001E9E8
  3366 0001:0001E9F5  3367 0001:0001EA08  3370 0001:0001EA32  3371 0001:0001EA35
  3373 0001:0001EA38  3364 0001:0001EA39  3401 0001:0001EA3C  3403 0001:0001EA4A
  3404 0001:0001EA55  3405 0001:0001EA62  3406 0001:0001EA70  3407 0001:0001EA7E
  3408 0001:0001EA98  3409 0001:0001EAAB  3410 0001:0001EABC  3411 0001:0001EACB
  3412 0001:0001EADA  3414 0001:0001EAE8  3416 0001:0001EAF7  3417 0001:0001EAFF
  3418 0001:0001EB0A  3419 0001:0001EB18  3420 0001:0001EB1B  3422 0001:0001EB20
  3423 0001:0001EB2B  3424 0001:0001EB39  3425 0001:0001EB42  3426 0001:0001EB4B
  3428 0001:0001EB74  3430 0001:0001EB8E  3433 0001:0001EBAE  3437 0001:0001EBD1
  3439 0001:0001EBE4  3463 0001:0001EBF0  3464 0001:0001EBFA  3465 0001:0001EC00
  3466 0001:0001EC09  3467 0001:0001EC14  3469 0001:0001EC20  3472 0001:0001EC31
  3475 0001:0001EC3F  3476 0001:0001EC45  3477 0001:0001EC4C  3480 0001:0001EC53
  3481 0001:0001EC69  3484 0001:0001EC71  3485 0001:0001EC77  3489 0001:0001EC7C
  3490 0001:0001EC82  3493 0001:0001EC87  3495 0001:0001EC95  3496 0001:0001EC9B
  3497 0001:0001ECA3  3498 0001:0001ECA6  3499 0001:0001ECAC  3500 0001:0001ECCD
  3506 0001:0001ECD4  3507 0001:0001ECE0  3508 0001:0001ECEB  3510 0001:0001ECF5
  3511 0001:0001ECFB  3512 0001:0001ED01  3515 0001:0001ED06  3516 0001:0001ED0D
  3519 0001:0001ED21  3521 0001:0001ED2C  3522 0001:0001ED31  3527 0001:0001ED3C
  3528 0001:0001ED43  3535 0001:0001ED44  3536 0001:0001ED53  3537 0001:0001ED5F
  3538 0001:0001ED64  3539 0001:0001ED6E  3540 0001:0001ED7C  3542 0001:0001ED80
  3543 0001:0001ED8F  3545 0001:0001ED98  3548 0001:0001EDC2  3549 0001:0001EDD7
  3551 0001:0001EDE8  3554 0001:0001EDF8  3555 0001:0001EDFC  3556 0001:0001EE07
  3560 0001:0001EE0C  3564 0001:0001EE10  3565 0001:0001EE19  3576 0001:0001EE1C
  3577 0001:0001EE2C  3578 0001:0001EE3B  3579 0001:0001EE4A  3580 0001:0001EE59
  3581 0001:0001EE67  3582 0001:0001EE77  3583 0001:0001EE87  3584 0001:0001EE8C
  3585 0001:0001EE91  3586 0001:0001EE96  3587 0001:0001EE9B  3588 0001:0001EEA9
  3589 0001:0001EEB4  3590 0001:0001EEBF  3591 0001:0001EECA  3592 0001:0001EED5
  3593 0001:0001EEE8  3594 0001:0001EEFB  3596 0001:0001EF01  3598 0001:0001EF10
  3602 0001:0001EF1F  3603 0001:0001EF25  3605 0001:0001EF2B  3606 0001:0001EF3A
  3608 0001:0001EF3F  3609 0001:0001EF46  3610 0001:0001EF4D  3611 0001:0001EF5A
  3612 0001:0001EF66  3614 0001:0001EF6D  3615 0001:0001EF7C  3616 0001:0001EF7E
  3617 0001:0001EF84  3618 0001:0001EF91  3619 0001:0001EF9E  3621 0001:0001EFB8
  3622 0001:0001EFC3  3623 0001:0001EFCE  3624 0001:0001EFD9  3627 0001:0001EFF9
  3628 0001:0001F002  3630 0001:0001F013  3656 0001:0001F01C  3657 0001:0001F02E
  3658 0001:0001F037  3661 0001:0001F054  3662 0001:0001F055  3663 0001:0001F059
  3664 0001:0001F06A  3669 0001:0001F06C  3670 0001:0001F070  3671 0001:0001F07C
  3674 0001:0001F0B3  3675 0001:0001F0C0  3677 0001:0001F0C4  3678 0001:0001F0D1
  3679 0001:0001F0FB  3684 0001:0001F110  3685 0001:0001F11D  3686 0001:0001F13E
  3688 0001:0001F154  3689 0001:0001F173  3691 0001:0001F178  3693 0001:0001F182
  3694 0001:0001F191  3695 0001:0001F19F  3696 0001:0001F1A9  3697 0001:0001F1B8
  3698 0001:0001F1C6  3699 0001:0001F1D0  3702 0001:0001F221  3705 0001:0001F23E
  3708 0001:0001F24E  3712 0001:0001F25C  3713 0001:0001F25E  3717 0001:0001F260
  3718 0001:0001F264  3723 0001:0001F268  3724 0001:0001F26F  3725 0001:0001F282
  3726 0001:0001F290  3728 0001:0001F2A7  3730 0001:0001F2B7  3734 0001:0001F2BC
  3735 0001:0001F2C0  3736 0001:0001F2C7  3737 0001:0001F2E1  3740 0001:0001F2E8
  3741 0001:0001F2EB  3742 0001:0001F2F2  3747 0001:0001F2F4  3748 0001:0001F2FB
  3749 0001:0001F311  3750 0001:0001F31F  3752 0001:0001F336  3754 0001:0001F346
  3758 0001:0001F34C  3768 0001:0001F350  3769 0001:0001F356  3770 0001:0001F35D
  3771 0001:0001F366  3775 0001:0001F36C  3777 0001:0001F371  3778 0001:0001F374
  3780 0001:0001F37B  3783 0001:0001F37C  3784 0001:0001F37F  3785 0001:0001F386
  5020 0001:0001F424  5021 0001:0001F42A  5022 0001:0001F437  5023 0001:0001F445
  5024 0001:0001F454  5025 0001:0001F462  5026 0001:0001F46E  5027 0001:0001F47C
  5029 0001:0001F491  5030 0001:0001F4A1  5023 0001:0001F4A4  5032 0001:0001F4B7
  5034 0001:0001F4C9  5044 0001:0001F4D0  5045 0001:0001F4D9  5046 0001:0001F4DF
  5047 0001:0001F4EB  5048 0001:0001F4F9  5049 0001:0001F502  5050 0001:0001F50B
  5051 0001:0001F51D  5048 0001:0001F523  5053 0001:0001F535  5055 0001:0001F547
  5058 0001:0001F54C  5059 0001:0001F561  5060 0001:0001F56A  5061 0001:0001F56D
  5064 0001:0001F588  5065 0001:0001F593  5066 0001:0001F59A  5067 0001:0001F5A6
  5072 0001:0001F5B4  5073 0001:0001F5BC  5075 0001:0001F5C9  5076 0001:0001F5D1
  5077 0001:0001F5DF  5078 0001:0001F5F6  5079 0001:0001F60F  5080 0001:0001F615
  5081 0001:0001F61F  5082 0001:0001F625  5084 0001:0001F63F  5087 0001:0001F64F
  5092 0001:0001F654  5093 0001:0001F65D  5095 0001:0001F66A  5096 0001:0001F672
  5097 0001:0001F680  5098 0001:0001F68B  5100 0001:0001F69C  5101 0001:0001F6A7
  5102 0001:0001F6B0  5103 0001:0001F6C0  5104 0001:0001F6CF  5105 0001:0001F6D7
  5107 0001:0001F6E7  5108 0001:0001F6F6  5111 0001:0001F6FE  5112 0001:0001F706
  5113 0001:0001F710  5115 0001:0001F72A  5118 0001:0001F73A  5124 0001:0001F740
  5125 0001:0001F743  5128 0001:0001F744  5129 0001:0001F747  5131 0001:0001F74B
  5132 0001:0001F74E  5134 0001:0001F754  5135 0001:0001F75A  5138 0001:0001F761
  5143 0001:0001F764  5144 0001:0001F76F  5146 0001:0001F776  5147 0001:0001F77B
  5148 0001:0001F784  5150 0001:0001F789  5151 0001:0001F78F  5152 0001:0001F79C
  5153 0001:0001F7A4  5154 0001:0001F7B0  5157 0001:0001F7C0  5158 0001:0001F7C3
  5160 0001:0001F7CA  5161 0001:0001F7CF  5162 0001:0001F7D7  5164 0001:0001F7DD
  5166 0001:0001F7E4  5167 0001:0001F7E9  5168 0001:0001F7F2  5170 0001:0001F7F7
  5171 0001:0001F7FF  5172 0001:0001F804  5173 0001:0001F809  5369 0001:0001F80C
  5370 0001:0001F81C  5372 0001:0001F82F  5373 0001:0001F844  5374 0001:0001F848
  5375 0001:0001F852  5376 0001:0001F85E  5377 0001:0001F86B  5378 0001:0001F879
  5380 0001:0001F899  5381 0001:0001F8A6  5382 0001:0001F8AF  5385 0001:0001F8C2
  5389 0001:0001F8C8  5391 0001:0001F8D4  5394 0001:0001F8DE  5395 0001:0001F8E5
  5396 0001:0001F8EC  5397 0001:0001F8F5  5400 0001:0001F8FB  5401 0001:0001F902
  5402 0001:0001F909  5404 0001:0001F910  5416 0001:0001F914  5417 0001:0001F929
  5420 0001:0001F92E  5421 0001:0001F951  5424 0001:0001F974  5426 0001:0001F97C
  5427 0001:0001F981  5428 0001:0001F987  5429 0001:0001F99E  5431 0001:0001F9A3
  5432 0001:0001F9B2  5433 0001:0001F9C3  5435 0001:0001F9D1  5436 0001:0001F9DA
  5437 0001:0001F9EE  5439 0001:0001FA14  5442 0001:0001FA38  5443 0001:0001FA45
  5445 0001:0001FA53  5446 0001:0001FA5D  5447 0001:0001FA66  5448 0001:0001FA70
  5449 0001:0001FA93  5450 0001:0001FAA5  5451 0001:0001FAB1  5453 0001:0001FABD
  5455 0001:0001FACB  5457 0001:0001FAE1  5458 0001:0001FAE9  5460 0001:0001FAFD
  5461 0001:0001FB03  5462 0001:0001FB1B  5464 0001:0001FB25  5465 0001:0001FB35
  5466 0001:0001FB41  5468 0001:0001FB60  5469 0001:0001FB83  5472 0001:0001FB92
  5475 0001:0001FBB1  5476 0001:0001FBB9  5479 0001:0001FBCF  5480 0001:0001FBEE
  5482 0001:0001FBF9  5485 0001:0001FC22  5486 0001:0001FC47  5489 0001:0001FC63
  5493 0001:0001FC73  5494 0001:0001FC7B  5495 0001:0001FC90  5496 0001:0001FC9E
  5497 0001:0001FCAC  5498 0001:0001FCB1  5499 0001:0001FCB3  5501 0001:0001FCB9
  5502 0001:0001FCCB  5504 0001:0001FCD4  5505 0001:0001FCE2  5508 0001:0001FCEC
  5509 0001:0001FD25  5510 0001:0001FD3D  5511 0001:0001FD57  5513 0001:0001FD6A
  5514 0001:0001FD7B  5515 0001:0001FD8E  5519 0001:0001FDA1  5520 0001:0001FDC1
  5522 0001:0001FDCB  5523 0001:0001FDDC  5524 0001:0001FDEA  5525 0001:0001FDFE
  5527 0001:0001FE04  5528 0001:0001FE15  5530 0001:0001FE1E  5532 0001:0001FE24
  5533 0001:0001FE3C  5535 0001:0001FE56  5536 0001:0001FE7E  5537 0001:0001FE84
  5538 0001:0001FE90  5540 0001:0001FEAC  5544 0001:0001FECA  5545 0001:0001FED0
  5548 0001:0001FEF4  5551 0001:0001FF18  5552 0001:0001FF21  5555 0001:0001FF38
  5556 0001:0001FF41  5557 0001:0001FF4C  5559 0001:0001FF69  5565 0001:0001FF78
  5566 0001:0001FF82  5567 0001:0001FF84  5568 0001:0001FF88  5569 0001:0001FF8D
  5570 0001:0001FF9A  5573 0001:0001FFA0  5574 0001:0001FFA7  5575 0001:0001FFB0
  5577 0001:0001FFC2  5578 0001:0001FFCE  5588 0001:0001FFDC  5589 0001:0001FFEB
  5590 0001:0001FFF0  5592 0001:0002000C  5593 0001:00020013  5594 0001:00020018
  5595 0001:0002001D  5596 0001:0002002B  5597 0001:0002003A  5600 0001:0002004B
  5601 0001:00020061  5603 0001:0002006B  5604 0001:0002007B  5605 0001:00020083
  5608 0001:0002009F  5609 0001:000200B0  5611 0001:000200BE  5613 0001:000200C4
  5614 0001:000200C8  5615 0001:000200CD  5617 0001:000200E2  5618 0001:000200E6
  5619 0001:000200F3  5621 0001:000200F7  5622 0001:00020103  5623 0001:0002010C
  5624 0001:00020118  5626 0001:00020121  5627 0001:0002012D  5628 0001:0002014F
  5629 0001:00020159  5630 0001:0002016C  5632 0001:00020185  5635 0001:00020196
  5639 0001:000201B6  5640 0001:000201C5  5643 0001:000201DE  5646 0001:000201E8
  5647 0001:000201FB  5648 0001:00020204  5649 0001:0002020B  5650 0001:0002021C
  5651 0001:00020223  5652 0001:00020235  5655 0001:00020250  5656 0001:0002025B
  5657 0001:00020262  5658 0001:0002026A  5659 0001:00020272  5660 0001:0002027E
  5665 0001:0002028C  5666 0001:00020299  5668 0001:000202B2  5669 0001:000202BA
  5670 0001:000202C4  5671 0001:000202D2  5673 0001:000202D6  5674 0001:000202E0
  5675 0001:000202EB  5676 0001:000202F4  5677 0001:000202FE  5678 0001:00020307
  5682 0001:00020313  5683 0001:00020322  5686 0001:00020343  5688 0001:00020355
  5689 0001:00020368  5691 0001:00020375  5692 0001:0002037F  5697 0001:00020388
  5698 0001:000203A6  5699 0001:000203AD  5700 0001:000203B2  5701 0001:000203B7
  5702 0001:000203C5  5703 0001:000203CD  5705 0001:000203D2  5706 0001:000203DC
  5707 0001:000203F3  5709 0001:0002041D  5710 0001:00020425  5711 0001:00020434
  5713 0001:0002043E  5720 0001:00020448  5721 0001:0002044B  5722 0001:00020452
  5723 0001:0002045A  5724 0001:0002045F  5725 0001:00020467  5729 0001:0002046C
  5730 0001:00020470  5731 0001:00020475  5737 0001:00020478  5738 0001:00020480
  5739 0001:0002048E  5740 0001:00020497  5741 0001:000204A6  5742 0001:000204B9
  5743 0001:000204BF  5744 0001:000204C6  5745 0001:000204CE  5746 0001:000204E3
  5757 0001:000204EC  5758 0001:000204FC  5760 0001:000204FF  5761 0001:0002050E
  5762 0001:00020515  5763 0001:0002051A  5765 0001:0002051E  5767 0001:00020525
  5768 0001:00020537  5769 0001:00020543  5771 0001:00020547  5773 0001:00020569
  5774 0001:00020583  5776 0001:00020587  5777 0001:00020597  5778 0001:000205A5
  5779 0001:000205BF  5780 0001:000205CA  5781 0001:000205DA  5784 0001:000205E8
  5785 0001:000205FA  5786 0001:0002060D  5788 0001:0002061C  5789 0001:00020621
  5790 0001:00020626  5791 0001:00020634  5792 0001:00020643  5793 0001:00020653
  5797 0001:0002069C  5798 0001:000206AF  5802 0001:000206C6  5806 0001:00020711
  5807 0001:00020717  5810 0001:00020731  5821 0001:0002073C  5822 0001:00020740
  5823 0001:00020743  5825 0001:00020749  5826 0001:00020750  5827 0001:00020756
  5829 0001:0002075A  5830 0001:0002075D  5832 0001:00020770  5834 0001:0002077C
  5835 0001:00020783  5836 0001:00020792  5837 0001:00020797  5839 0001:0002079C
  5843 0001:000207A0  5844 0001:000207A3  5845 0001:000207BA  5848 0001:000207BC
  5849 0001:000207C0  5851 0001:000207C6  5852 0001:000207CD  5854 0001:000207D3
  5855 0001:000207E6  5856 0001:000207F1  5859 0001:000207FB  5860 0001:000207FE
  5866 0001:00020804  5867 0001:00020807  5868 0001:0002080E  5869 0001:00020815
  5870 0001:0002081E  5871 0001:00020824  5880 0001:00020828  5882 0001:0002082B
  5883 0001:00020837  5884 0001:0002083D  5885 0001:00020843  5887 0001:00020847
  5889 0001:0002084B  5891 0001:0002084E  5893 0001:00020850  5896 0001:00020854
  5897 0001:00020856  5898 0001:00020861  5901 0001:00020864  5902 0001:00020867
  5903 0001:0002086E  5904 0001:00020874  5908 0001:00020878  5909 0001:0002087E
  5910 0001:00020891  5913 0001:00020894  5914 0001:00020897  5915 0001:0002089E
  5916 0001:000208A4  5955 0001:000208A8  5956 0001:000208AB  5958 0001:000208B5
  5959 0001:000208C0  5961 0001:000208C7  5963 0001:000208E1  5964 0001:000208E6
  5965 0001:000208EB  5969 0001:000208F0  5970 0001:000208F6  5973 0001:000208F8
  5974 0001:000208FA  5976 0001:000208FD  5977 0001:00020909  5978 0001:0002090E
  5980 0001:00020914  5981 0001:00020923  5983 0001:0002092B  5984 0001:00020931
  5985 0001:00020937  5986 0001:0002093D  5987 0001:00020943  5990 0001:00020950
  5992 0001:00020968  5996 0001:0002096C  5997 0001:0002097A  6002 0001:0002097C
  6003 0001:00020985  6005 0001:0002099D  6006 0001:000209A9  6007 0001:000209B8
  6008 0001:000209C6  6009 0001:000209D1  6011 0001:000209EF  6015 0001:00020A06
  6016 0001:00020A0C  6017 0001:00020A12  6018 0001:00020A18  6048 0001:00020A1C
  6049 0001:00020A20  6050 0001:00020A2C  6053 0001:00020A2F  6055 0001:00020A36
  6056 0001:00020A3B  6057 0001:00020A44  6059 0001:00020A49  6060 0001:00020A50
  6062 0001:00020A57  6064 0001:00020A5A  6065 0001:00020A71  6066 0001:00020A75
  6068 0001:00020A79  6073 0001:00020A7C  6074 0001:00020A82  6076 0001:00020A85
  6077 0001:00020AA3  6078 0001:00020AB0  6079 0001:00020ACC  6080 0001:00020AD0
  6081 0001:00020ADE  6084 0001:00020B10  6085 0001:00020B1D  6086 0001:00020B25
  6088 0001:00020B2F  6094 0001:00020B34  6095 0001:00020B40  6096 0001:00020B4A
  6097 0001:00020B54  6098 0001:00020B5B  6099 0001:00020B6A  6100 0001:00020B76
  6101 0001:00020B81  6102 0001:00020B91  6103 0001:00020B98  6104 0001:00020BA7
  6105 0001:00020BB0  6108 0001:00020BB8  6109 0001:00020BBE  6110 0001:00020BD8
  6142 0001:00020BDC  6143 0001:00020BEC  6144 0001:00020BFB  6146 0001:00020C09
  6147 0001:00020C0F  6148 0001:00020C15  6149 0001:00020C27  6150 0001:00020C31
  6151 0001:00020C46  6153 0001:00020C69  6154 0001:00020C71  6157 0001:00020C7B
  6158 0001:00020C85  6159 0001:00020C93  6160 0001:00020C9E  6161 0001:00020CA7
  6163 0001:00020CB9  6165 0001:00020CCB  6166 0001:00020CD2  6171 0001:00020CDC
  6172 0001:00020CE4  6173 0001:00020CF2  6174 0001:00020CFE  6195 0001:00020D04
  6196 0001:00020D18  6197 0001:00020D1D  6198 0001:00020D22  6199 0001:00020D27
  6200 0001:00020D37  6201 0001:00020D3F  6202 0001:00020D4C  6203 0001:00020D5F
  6204 0001:00020D65  6205 0001:00020D73  6206 0001:00020D81  6209 0001:00020D87
  6210 0001:00020D9A  6211 0001:00020DAB  6213 0001:00020DAD  6214 0001:00020DB4
  6215 0001:00020DBB  6216 0001:00020DC3  6218 0001:00020DCB  6223 0001:00020DD3
  6224 0001:00020DE7  6226 0001:00020DEA  6229 0001:00020E01  6231 0001:00020E10
  6233 0001:00020E16  6234 0001:00020E28  6235 0001:00020E31  6236 0001:00020E3C
  6238 0001:00020E45  6239 0001:00020E55  6240 0001:00020E65  6242 0001:00020E79
  6244 0001:00020E8A  6245 0001:00020E9A  6249 0001:00020EA0  6251 0001:00020EA3
  6252 0001:00020EA8  6255 0001:00020EB1  6259 0001:00020EBD  6263 0001:00020ED9
  6264 0001:00020EE9  6265 0001:00020EED  6269 0001:00020EF0  6270 0001:00020EF6
  6271 0001:00020F02  6272 0001:00020F1E  6275 0001:00020F2C  6276 0001:00020F38
  6278 0001:00020F59  6282 0001:00020F62  6284 0001:00020F70  6285 0001:00020F7F
  6286 0001:00020F8D  6289 0001:00020FA9  6290 0001:00020FAE  6291 0001:00020FB8
  6292 0001:00020FC6  6293 0001:00020FD3  6294 0001:00020FE4  6295 0001:00020FFE
  6296 0001:00021003  6298 0001:0002100D  6299 0001:0002101C  6300 0001:0002102E
  6303 0001:00021037  6304 0001:00021045  6306 0001:0002105E  6307 0001:00021064
  6309 0001:00021086  6310 0001:0002108C  6311 0001:0002109B  6314 0001:000210C3
  6315 0001:000210D2  6320 0001:000210E2  6321 0001:000210FC  6322 0001:00021108
  6324 0001:0002111D  6335 0001:0002112B  6337 0001:00021147  6338 0001:00021150
  6342 0001:00021167  6345 0001:0002117A  6346 0001:00021193  6348 0001:000211A6
  6349 0001:000211B8  6351 0001:000211CA  6352 0001:000211D3  6353 0001:000211DC
  6354 0001:000211E5  6356 0001:000211FD  6357 0001:00021205  6360 0001:0002121C
  6362 0001:0002122C  6363 0001:0002124A  6364 0001:0002125D  6365 0001:00021268
  6371 0001:00021274  6372 0001:00021280  6373 0001:00021287  6375 0001:0002128B
  6376 0001:0002129B  6380 0001:000212B1  6381 0001:000212BF  6382 0001:000212CC
  6384 0001:000212DB  6390 0001:000212E4  6391 0001:000212F1  6392 0001:000212F4
  6394 0001:000212FD  6395 0001:00021304  6396 0001:00021313  6397 0001:00021317
  6398 0001:00021323  6400 0001:00021329  6401 0001:0002132F  6404 0001:00021336
  6405 0001:00021341  6407 0001:0002134B  6408 0001:00021353  6409 0001:00021361
  6411 0001:00021384  6412 0001:0002138C  6414 0001:00021396  6416 0001:0002139F
  6424 0001:000213A8  6425 0001:000213B3  6426 0001:000213C2  6428 0001:000213C5
  6429 0001:000213D1  6430 0001:000213D6  6432 0001:000213E0  6435 0001:000213EC
  6437 0001:000213F0  6438 0001:00021400  6439 0001:00021407  6440 0001:0002140E
  6441 0001:00021415  6443 0001:0002141B  6444 0001:0002141E  6445 0001:00021423
  6446 0001:00021426  6447 0001:0002142B  6450 0001:00021446  6454 0001:00021459
  6455 0001:00021465  6456 0001:0002146C  6457 0001:00021473  6458 0001:00021485
  6459 0001:0002148B  6460 0001:00021492  6461 0001:00021496  6463 0001:0002149B
  6464 0001:000214A5  6465 0001:000214B5  6466 0001:000214B9  6468 0001:000214BE
  6470 0001:000214D1  6473 0001:000214DA  6476 0001:000214E4  6477 0001:000214EB
  6478 0001:000214FA  6494 0001:00021500  6495 0001:0002150A  6496 0001:00021510
  6498 0001:00021528  6499 0001:0002152F  6502 0001:00021541  6503 0001:00021547
  6504 0001:0002154F  6505 0001:00021554  6506 0001:00021559  6508 0001:0002155E
  6509 0001:0002156C  6511 0001:00021575  6517 0001:0002157C  6518 0001:00021589
  6520 0001:00021595  6521 0001:00021597  6523 0001:000215A1  6524 0001:000215A9
  6528 0001:000215B0  6529 0001:000215B7  6530 0001:000215BE  6531 0001:000215CF
  6532 0001:000215E5  6533 0001:000215F3  6535 0001:00021619  6536 0001:00021622
  6539 0001:0002162C  6540 0001:0002163C  6541 0001:00021640  6543 0001:00021649
  6632 0001:00021650  6633 0001:00021657  6634 0001:00021666  6638 0001:0002166C
  6639 0001:00021673  6651 0001:00021674  6652 0001:00021684  6653 0001:00021694
  6654 0001:0002169B  6656 0001:000216A5  6657 0001:000216AE  6658 0001:000216B2
  6659 0001:000216C0  6660 0001:000216D8  6662 0001:000216DD  6663 0001:000216E4
  6665 0001:000216E7  6666 0001:000216EC  6668 0001:000216F7  6669 0001:00021708
  6671 0001:0002170E  6672 0001:00021716  6673 0001:00021720  6675 0001:00021730
  6677 0001:0002173A  6678 0001:0002174A  6680 0001:00021751  6681 0001:00021764
  6682 0001:0002177D  6683 0001:00021799  6685 0001:000217AA  6686 0001:000217B7
  6687 0001:000217BB  6689 0001:000217D4  6690 0001:000217E9  6692 0001:000217F0
  6693 0001:000217FB  6697 0001:000217FF  6698 0001:00021806  6701 0001:00021811
  6703 0001:00021823  6705 0001:0002182D  6706 0001:00021835  6708 0001:0002183C
  6709 0001:00021849  6710 0001:00021850  6712 0001:00021863  6714 0001:00021869
  6716 0001:0002186C  6717 0001:00021874  6718 0001:0002187D  6719 0001:00021886
  6720 0001:0002188D  6722 0001:00021896  6723 0001:000218A6  6727 0001:000218B8
  6728 0001:000218C8  6729 0001:000218D7  6731 0001:000218E4  6733 0001:000218F3
  6734 0001:0002190E  6737 0001:0002191B  6772 0001:0002192C  6773 0001:00021933
  6779 0001:00021934  6780 0001:00021942  6781 0001:00021947  6782 0001:0002194E
  6784 0001:00021951  6785 0001:00021960  6786 0001:00021965  6787 0001:0002196A
  6789 0001:00021986  6790 0001:00021994  6792 0001:000219B3  6793 0001:000219BE
  6795 0001:000219C8  6800 0001:000219D4  6801 0001:000219E1  6802 0001:000219E4
  6804 0001:000219EE  6805 0001:000219F5  6806 0001:00021A07  6807 0001:00021A0B
  6808 0001:00021A0F  6809 0001:00021A13  6810 0001:00021A17  6811 0001:00021A25
  6813 0001:00021A2E  6823 0001:00021A38  6824 0001:00021A43  6825 0001:00021A4B
  6826 0001:00021A57  6829 0001:00021A68  6830 0001:00021A6B  6831 0001:00021A78
  6832 0001:00021A7D  6837 0001:00021A80  6838 0001:00021A93  6839 0001:00021A9C
  6840 0001:00021AA0  6841 0001:00021AB1  6842 0001:00021AB8  6845 0001:00021AD4
  6846 0001:00021ADF  6847 0001:00021AE7  6848 0001:00021AF3  6851 0001:00021B04
  6852 0001:00021B0B  6854 0001:00021B20  6856 0001:00021B24  6857 0001:00021B2E
  6858 0001:00021B36  6860 0001:00021B3E  6861 0001:00021B49  6862 0001:00021B52
  6864 0001:00021B54  6865 0001:00021B5D  6868 0001:00021B64  6871 0001:00021B6D
  6872 0001:00021B7B  6874 0001:00021B9D  6878 0001:00021BA8  6879 0001:00021BAB
  6880 0001:00021BBC  6883 0001:00021BC0  6884 0001:00021BC3  6885 0001:00021BCA
  6886 0001:00021BD0  6895 0001:00021BD4  6896 0001:00021BDA  6897 0001:00021BDE
  6898 0001:00021BE5  6902 0001:00021BE8  6903 0001:00021BEE  6904 0001:00021BF2
  6905 0001:00021BF9  6911 0001:00021BFC  6912 0001:00021C03  6914 0001:00021C06
  6915 0001:00021C0C  6916 0001:00021C13  6917 0001:00021C1C  6918 0001:00021C2B
  6919 0001:00021C3A  6920 0001:00021C45  6923 0001:00021C62  6925 0001:00021C67
  6927 0001:00021C6E  6933 0001:00021C74  6934 0001:00021C7F  6936 0001:00021C82
  6937 0001:00021C8C  6938 0001:00021C97  6939 0001:00021CA6  6940 0001:00021CB4
  6942 0001:00021CC3  6943 0001:00021CD2  6946 0001:00021CE4  6948 0001:00021D06
  6949 0001:00021D0E  6951 0001:00021D18  6953 0001:00021D1E  6971 0001:00021D28
  6972 0001:00021D35  6973 0001:00021D44  6974 0001:00021D52  6975 0001:00021D6B
  6976 0001:00021D81  6977 0001:00021D91  6978 0001:00021DA0  6980 0001:00021DBB
  6981 0001:00021DC3  6983 0001:00021DCD  6984 0001:00021DD6  6989 0001:00021DE0
  6990 0001:00021DED  6991 0001:00021DFC  6992 0001:00021E0A  6993 0001:00021E10
  6995 0001:00021E25  6996 0001:00021E2D  6998 0001:00021E37  6999 0001:00021E3F
  7000 0001:00021E47  7001 0001:00021E4D  7015 0001:00021E54  7016 0001:00021E57
  7017 0001:00021E60  7018 0001:00021E69  7022 0001:00021E6C  7023 0001:00021E75
  7025 0001:00021E79  7026 0001:00021E83  7029 0001:00021E84  7030 0001:00021E85
  7032 0001:00021E8E  7033 0001:00021E91  7036 0001:00021E96  7037 0001:00021EA0
  7043 0001:00021EA4  7047 0001:00021EA8  7048 0001:00021EB1  7050 0001:00021EB5
  7051 0001:00021EBF  7054 0001:00021EC0  7055 0001:00021EC6  7056 0001:00021ECD
  7057 0001:00021EE5  7061 0001:00021EE8  7062 0001:00021EEB  7063 0001:00021EF5
  7067 0001:00021EFC  7068 0001:00021EFF  7069 0001:00021F09  7105 0001:00021F10
  7106 0001:00021F11  7107 0001:00021F1A  7108 0001:00021F27  7110 0001:00021F2F
  7111 0001:00021F43  7117 0001:00021F48  7118 0001:00021F4D  7119 0001:00021F4F
  7120 0001:00021F58  7122 0001:00021F5C  7123 0001:00021F6C  7124 0001:00021F77
  7125 0001:00021F7C  7127 0001:00021F84  7135 0001:00021F8C  7136 0001:00021FA8
  7137 0001:00021FBE  7138 0001:00021FD1  7139 0001:00021FDE  7140 0001:00021FED
  7141 0001:00021FFB  7142 0001:00022008  7144 0001:00022019  7145 0001:00022029
  7148 0001:0002203E  7150 0001:0002204E  7151 0001:00022054  7152 0001:00022079
  7178 0001:00022168  7179 0001:0002217A  7180 0001:00022183  7183 0001:000221A0
  7184 0001:000221AB  7185 0001:000221B2  7186 0001:000221BB  7190 0001:000221CC
  7191 0001:000221D5  7195 0001:000221D8  7196 0001:000221E1  7199 0001:000221E4
  7200 0001:000221F4  7201 0001:000221FC  7202 0001:0002220A  7205 0001:00022215
  7203 0001:0002221D  7206 0001:00022233  7208 0001:00022239  7209 0001:00022246
  7211 0001:00022249  7212 0001:00022251  7213 0001:00022260  7214 0001:00022263
  7216 0001:00022266  7219 0001:0002227C  7221 0001:0002228C  7226 0001:00022298
  7227 0001:000222A6  7228 0001:000222B5  7231 0001:000222C3  7232 0001:000222D0
  7233 0001:000222DD  7235 0001:000222E7  7236 0001:000222F1  7237 0001:000222FB
  7238 0001:00022325  7239 0001:00022327  7240 0001:00022329  7241 0001:0002234A
  7239 0001:0002235A  7241 0001:0002235F  7238 0001:00022360  7243 0001:00022365
  7246 0001:0002237C  7247 0001:00022384  7249 0001:0002238E  7254 0001:00022398
  7257 0001:000223A5  7258 0001:000223A8  7260 0001:000223AE  7261 0001:000223B6
  7262 0001:000223C4  7264 0001:000223DC  7266 0001:000223EC  7268 0001:000223FD
  7255 0001:00022405  7270 0001:0002240F  7277 0001:00022418  7278 0001:0002241E
  7279 0001:00022427  7282 0001:00022449  7283 0001:0002244B  7303 0001:00022450
  7304 0001:00022477  7305 0001:00022481  7306 0001:0002248B  7307 0001:00022490
  7308 0001:0002249A  7309 0001:000224A4  7310 0001:000224AE  7311 0001:000224B8
  7312 0001:000224C2  7313 0001:000224CD  7314 0001:000224D7  7315 0001:000224E1

Line numbers for Graphics(Graphics.pas) segment .itext

  7285 0002:0000029C  7286 0002:000002A9  7287 0002:000002AE  7288 0002:000002B8
  7289 0002:000002C2  7290 0002:000002CE  7291 0002:000002DA  7292 0002:000002E6
  7293 0002:000002F7  7294 0002:000002FC  7295 0002:00000311  7296 0002:00000326
  7297 0002:0000033B  7298 0002:0000034C  7299 0002:0000035D  7300 0002:0000036E
  7301 0002:00000382  7302 0002:00000396

Line numbers for Math(Math.pas) segment .text

  2511 0001:00000000

Line numbers for Contnrs(Contnrs.pas) segment .text

   256 0001:00022654   257 0001:00022666   258 0001:0002266F   259 0001:00022673
   295 0001:00022690   296 0001:00022696   297 0001:0002269F   315 0001:000226A4
   316 0001:000226AD   317 0001:000226B3   318 0001:000226B8   319 0001:000226BF
   320 0001:000226CA   494 0001:000226D0   495 0001:000226D5   498 0001:000226D8
   499 0001:000226DB   500 0001:000226E1   501 0001:000226E3   509 0001:000226E8
   510 0001:000226FA   511 0001:00022703   512 0001:00022712   515 0001:0002272C
   516 0001:00022737   517 0001:0002273F   518 0001:0002274B   522 0001:0002275C
   523 0001:0002276C   526 0001:00022770   527 0001:00022774   528 0001:0002277D
   529 0001:00022789   535 0001:00022790   536 0001:00022798   858 0001:00022799

Line numbers for HelpIntfs(HelpIntfs.pas) segment .text

   291 0001:000232FC   292 0001:00023305   293 0001:00023316   304 0001:00023318
   305 0001:00023326   306 0001:0002332B   307 0001:00023344   308 0001:0002334A
   327 0001:00023360   328 0001:00023372   329 0001:0002337B   330 0001:0002338A
   331 0001:00023399   332 0001:000233A8   333 0001:000233B0   334 0001:000233B7
   369 0001:000233D4   371 0001:000233DB   370 0001:000233ED   372 0001:000233F7
   373 0001:000233FF   374 0001:00023407   375 0001:0002340F   380 0001:00023414
   384 0001:00023419   385 0001:00023427   384 0001:0002343A   386 0001:0002343D
   393 0001:00023444   396 0001:00023461   398 0001:0002346A   399 0001:00023483
   402 0001:0002349A   404 0001:000234A4   405 0001:000234B3   407 0001:000234C1
   409 0001:000234D7   410 0001:000234E4   411 0001:000234F0   412 0001:00023508
   407 0001:0002350B   416 0001:00023510   418 0001:0002351B   419 0001:00023526
   420 0001:00023534   424 0001:00023549   427 0001:00023568   431 0001:00023578
   434 0001:00023596   438 0001:000235AA   439 0001:000235C0   447 0001:000235E4
   448 0001:00023607   449 0001:00023609   450 0001:0002360D   453 0001:00023617
   456 0001:00023621   458 0001:00023624   459 0001:00023639   466 0001:00023663
   467 0001:00023678   471 0001:000236A0   487 0001:000236EC   489 0001:00023713
   490 0001:00023718   494 0001:0002371A   495 0001:0002371E   501 0001:0002372B
   503 0001:0002373C   505 0001:00023746   506 0001:0002375E   508 0001:00023762
   509 0001:00023765   511 0001:00023766   503 0001:00023767   514 0001:0002376A
   515 0001:0002376E   518 0001:00023799   519 0001:0002379C   524 0001:000237BA
   525 0001:000237C9   531 0001:000237D7   533 0001:000237E8   534 0001:000237F8
   535 0001:00023806   537 0001:0002380A   538 0001:0002381B   539 0001:00023833
   538 0001:00023852   540 0001:00023857   542 0001:0002385F   531 0001:00023860
   544 0001:00023863   546 0001:0002386C   549 0001:00023877   553 0001:00023887
   555 0001:0002388B   556 0001:00023897   557 0001:000238A4   566 0001:000238B1
   567 0001:000238BD   568 0001:000238CA   571 0001:000238E2   575 0001:000238F2
   593 0001:00023920   594 0001:0002393B   595 0001:0002395A   596 0001:00023976
   598 0001:000239B4   600 0001:000239E8   602 0001:000239ED   603 0001:000239F3
   606 0001:00023A01   607 0001:00023A0E   616 0001:00023A26   618 0001:00023A30
   619 0001:00023A48   621 0001:00023A6A   622 0001:00023A6D   624 0001:00023A70
   616 0001:00023A71   627 0001:00023A74   628 0001:00023A7A   630 0001:00023A90
   632 0001:00023A96   636 0001:00023AA8   638 0001:00023AB5   639 0001:00023AC8
   641 0001:00023AD2   642 0001:00023AE1   643 0001:00023AEF   645 0001:00023B00
   646 0001:00023B10   647 0001:00023B1E   649 0001:00023B40   651 0001:00023B5C
   643 0001:00023B5D   652 0001:00023B60   653 0001:00023B6B   655 0001:00023B6F
   656 0001:00023B7B   657 0001:00023B86   660 0001:00023BA6   663 0001:00023BC0
   667 0001:00023BD0   671 0001:00023BDF   674 0001:00023BEC   678 0001:00023C5C
   679 0001:00023C61   686 0001:00023C64   687 0001:00023C85   688 0001:00023C89
   690 0001:00023C93   691 0001:00023C9C   693 0001:00023CB2   695 0001:00023CC0
   696 0001:00023CD5   697 0001:00023CE5   699 0001:00023CF4   700 0001:00023CFF
   702 0001:00023D01   693 0001:00023D02   703 0001:00023D05   706 0001:00023D44
   707 0001:00023D64   708 0001:00023D6A   709 0001:00023D72   710 0001:00023D7D
   714 0001:00023DA0   715 0001:00023DC7   716 0001:00023DCD   717 0001:00023DD8
   719 0001:00023DF1   723 0001:00023E00   725 0001:00023E0F   727 0001:00023E18
   729 0001:00023E21   731 0001:00023E32   732 0001:00023E34   742 0001:00023E5C
   744 0001:00023E83   745 0001:00023E87   749 0001:00023E8B   750 0001:00023E8F
   755 0001:00023E9C   757 0001:00023EAD   758 0001:00023EC5   763 0001:00023EDE
   765 0001:00023EE2   766 0001:00023EED   769 0001:00023EF7   771 0001:00023F08
   772 0001:00023F0C   774 0001:00023F18   776 0001:00023F1E   777 0001:00023F22
   780 0001:00023F24   755 0001:00023F25   781 0001:00023F28   787 0001:00023F68
   788 0001:00023F6B   791 0001:00023F6C   792 0001:00023F72   793 0001:00023F7C
   798 0001:00023F80   799 0001:00023F87   801 0001:00023F93   802 0001:00023FA2
   803 0001:00023FAC   799 0001:00023FAD   804 0001:00023FB2   806 0001:00023FBE
   807 0001:00023FCD   808 0001:00023FD7   804 0001:00023FD8   809 0001:00023FDD
   811 0001:00023FE9   812 0001:00023FF8   813 0001:00024002   809 0001:00024003
   814 0001:00024008   817 0001:0002400C   818 0001:00024017   819 0001:0002401E
   820 0001:00024024   821 0001:0002402C   822 0001:00024034   823 0001:0002403B
   824 0001:00024043   825 0001:0002404B   826 0001:00024053   827 0001:0002405F
   831 0001:00024070   832 0001:00024092   833 0001:00024099

Line numbers for HelpIntfs(HelpIntfs.pas) segment .itext

   829 0002:000003A8   830 0002:000003AF

Line numbers for Printers(Printers.pas) segment .text

   922 0001:000240B0   923 0001:000240D3

Line numbers for Printers(Printers.pas) segment .itext

   919 0002:000003B0   921 0002:000003B7

Line numbers for SyncObjs(SyncObjs.pas) segment .text

   202 0001:000244C8   206 0001:000244CC   334 0001:000244D0   335 0001:000244E2
   336 0001:000244EB   337 0001:000244F4   340 0001:00024510   341 0001:0002451B
   342 0001:00024524   343 0001:00024530   347 0001:00024540   348 0001:00024549
   352 0001:0002454C   353 0001:00024555   362 0001:00024558   363 0001:0002455C
   367 0001:00024560   368 0001:00024565   419 0001:00024566

Line numbers for Themes(Themes.pas) segment .text

   489 0001:00025130   490 0001:00025139   491 0001:00025148   492 0001:0002514D
   498 0001:00025150   499 0001:00025162   500 0001:0002516B   501 0001:00025173
   502 0001:00025188   503 0001:0002518F   507 0001:000251C4   508 0001:000251CF
   509 0001:000251D6   510 0001:000251DB   511 0001:000251E7   514 0001:000251F8
   515 0001:000251FF   516 0001:0002520F   517 0001:0002522B   518 0001:00025232
   522 0001:00025238   523 0001:0002524F   526 0001:00025250   527 0001:00025251
   528 0001:00025258   529 0001:00025262   534 0001:00025264   535 0001:00025269
   536 0001:0002526B   538 0001:00025278   539 0001:00025282   540 0001:00025288
   535 0001:00025289   541 0001:0002528E   544 0001:00025294   545 0001:00025297
   546 0001:0002529E   547 0001:000252A4   567 0001:000252A8   568 0001:000252BD
   570 0001:000252EB   574 0001:000252F4   575 0001:00025309   577 0001:0002532F
   590 0001:00025338   591 0001:0002534B   593 0001:00025355   594 0001:00025357
   597 0001:0002537B   598 0001:0002537D   599 0001:00025381   600 0001:00025396
   696 0001:000253A0   699 0001:000253A3   702 0001:000253AF   703 0001:000253B6
   707 0001:000253BD   708 0001:000253C4   711 0001:000253CB   712 0001:000253D0
   714 0001:000253D2   716 0001:000253DB   993 0001:000253DC   996 0001:000253DF
   999 0001:0002541F  1000 0001:00025426  1004 0001:0002542D  1005 0001:00025434
  1009 0001:0002543B  1010 0001:00025442  1014 0001:00025449  1015 0001:00025450
  1019 0001:00025457  1020 0001:0002545E  1023 0001:00025465  1024 0001:0002546A
  1026 0001:0002546C  1028 0001:00025475  1567 0001:00025478  1570 0001:0002547B
  1573 0001:00025596  1574 0001:0002559D  1578 0001:000255A7  1579 0001:000255AE
  1583 0001:000255B8  1584 0001:000255BF  1588 0001:000255C9  1589 0001:000255D0
  1593 0001:000255DA  1594 0001:000255E1  1598 0001:000255EB  1599 0001:000255F2
  1603 0001:000255FC  1604 0001:00025603  1608 0001:0002560D  1609 0001:00025614
  1613 0001:0002561E  1614 0001:00025625  1618 0001:0002562F  1619 0001:00025636
  1623 0001:00025640  1624 0001:00025647  1628 0001:00025651  1629 0001:00025658
  1633 0001:00025662  1634 0001:00025669  1638 0001:00025673  1639 0001:0002567A
  1643 0001:00025684  1644 0001:0002568B  1648 0001:00025695  1649 0001:0002569C
  1653 0001:000256A6  1654 0001:000256AD  1658 0001:000256B7  1659 0001:000256BE
  1663 0001:000256C8  1664 0001:000256CF  1668 0001:000256D9  1669 0001:000256E0
  1673 0001:000256EA  1674 0001:000256F1  1678 0001:000256FB  1679 0001:00025702
  1683 0001:0002570C  1684 0001:00025713  1688 0001:0002571D  1689 0001:00025724
  1693 0001:0002572E  1694 0001:00025735  1698 0001:0002573F  1699 0001:00025746
  1703 0001:00025750  1704 0001:00025757  1708 0001:00025761  1709 0001:00025768
  1713 0001:00025772  1714 0001:00025779  1718 0001:00025780  1719 0001:00025787
  1723 0001:0002578E  1724 0001:00025795  1728 0001:0002579C  1729 0001:000257A3
  1733 0001:000257AA  1734 0001:000257B1  1738 0001:000257B8  1739 0001:000257BF
  1743 0001:000257C6  1744 0001:000257CD  1748 0001:000257D4  1749 0001:000257DB
  1753 0001:000257E2  1754 0001:000257E9  1757 0001:000257F0  1758 0001:000257F5
  1760 0001:000257F7  1762 0001:00025800  1779 0001:00025804  1782 0001:00025814
  1783 0001:00025824  1785 0001:0002582D  1786 0001:0002583F  1787 0001:00025854
  1788 0001:00025865  1789 0001:00025873  1790 0001:0002587F  1792 0001:00025883
  1793 0001:00025893  1795 0001:000258A1  1796 0001:000258AA  1797 0001:000258B3
  1798 0001:000258C0  1800 0001:000258E6  1803 0001:000258FB  1805 0001:00025920
  1806 0001:0002592C  1808 0001:0002594C  1812 0001:00025966  1815 0001:00025970
  1816 0001:00025973  1817 0001:00025979  1818 0001:00025980  1819 0001:00025988
  1823 0001:0002598C  1824 0001:000259AF  1825 0001:000259B9

Line numbers for Themes(Themes.pas) segment .itext

  1821 0002:000003E4  1822 0002:000003EB

Line numbers for StdCtrls(StdCtrls.pas) segment .text

  3436 0001:00026DC8  3437 0001:00026DCE  3438 0001:00026DD7  3439 0001:00026DE7
  3442 0001:00026DEC  3443 0001:00026DEF  3445 0001:00026E20  3448 0001:00026E24
  3449 0001:00026E2E  3451 0001:00026E3A  3452 0001:00026E47  3453 0001:00026E55
  3455 0001:00026E6C  3458 0001:00026E81  3463 0001:00026E88  3464 0001:00026E9A
  3465 0001:00026EA3  3466 0001:00026EB8  3467 0001:00026EBF  3470 0001:00026EDC
  3471 0001:00026EE5  3472 0001:00026EF0  3475 0001:00026F01  3476 0001:00026F13
  3478 0001:00026F21  3482 0001:00026F28  3483 0001:00026F2D  3487 0001:00026F30
  3488 0001:00026F32  3491 0001:00026F34  3492 0001:00026F38  3493 0001:00026F51
  3497 0001:00026F54  3500 0001:00026F58  3501 0001:00026F5F  3503 0001:00026F76
  3505 0001:00026F8B  3506 0001:00026F92  3507 0001:00026F9F  3508 0001:00026FA6
  3511 0001:00026FB7  3513 0001:00026FC0  3514 0001:00026FC9  3517 0001:00026FD0
  3518 0001:00026FD7  3519 0001:00026FDE  3521 0001:00026FE9  3522 0001:00026FF5
  3524 0001:00027001  3526 0001:0002701A  3529 0001:00027026  3530 0001:0002702F
  3533 0001:00027034  3535 0001:0002703A  3536 0001:00027048  3538 0001:00027052
  3539 0001:0002705B  3542 0001:00027060  3543 0001:00027066  3544 0001:0002706F
  3545 0001:00027078  3546 0001:0002707F  3550 0001:00027084  3552 0001:0002708C
  3553 0001:00027092  3555 0001:00027097  3560 0001:00027098  3561 0001:000270AA
  3562 0001:000270B3  3563 0001:000270BB  3564 0001:000270C7  3565 0001:000270D3
  3566 0001:000270DC  3571 0001:000270FC  3572 0001:000270FF  3573 0001:00027108
  3574 0001:00027118  3575 0001:0002711F  3579 0001:00027124  3580 0001:00027126
  3587 0001:00027128  3588 0001:00027130  3590 0001:0002713B  3591 0001:00027147
  3592 0001:00027160  3594 0001:00027175  3599 0001:0002717C  3600 0001:0002717F
  3601 0001:00027185  3603 0001:00027190  3604 0001:00027199  3605 0001:0002719D
  3607 0001:000271B0  3612 0001:000271B4  3613 0001:000271BA  3614 0001:000271C3
  3615 0001:000271D1  3616 0001:000271E2  3619 0001:000271F0  3620 0001:000271F3
  3621 0001:000271FA  3622 0001:00027207  3625 0001:0002720C  3626 0001:0002720D
  3627 0001:0002721D  3630 0001:00027220  3632 0001:00027227  3636 0001:00027269
  3637 0001:00027274  3639 0001:0002727D  3640 0001:00027286  3643 0001:00027290
  3645 0001:000272AA  3647 0001:000272D3  3648 0001:000272DE  3650 0001:000272E7
  3651 0001:000272F0  3654 0001:00027314  3656 0001:0002731B  3657 0001:0002732F
  3659 0001:0002733C  3660 0001:00027349  3661 0001:0002735A  3662 0001:00027363
  3665 0001:00027368  3666 0001:0002736E  3667 0001:0002737C  3669 0001:00027386
  3670 0001:0002738F  3673 0001:00027394  3674 0001:0002739B  3675 0001:000273A2
  3677 0001:000273AD  3678 0001:000273B9  3680 0001:000273C5  3682 0001:000273DE
  3685 0001:000273EA  3686 0001:000273F3  3691 0001:000273F8  3692 0001:0002740A
  3693 0001:00027413  3694 0001:0002741F  3695 0001:0002742B  3696 0001:00027434
  3697 0001:0002743C  3698 0001:00027443  3701 0001:00027464  3702 0001:00027468
  3703 0001:00027477  3705 0001:0002747C  3706 0001:00027485  3708 0001:00027489
  3709 0001:0002748B  3713 0001:00027490  3715 0001:000274A4  3716 0001:000274BE
  3717 0001:000274C6  3719 0001:000274CD  3722 0001:000274D0  3723 0001:000274D3
  3724 0001:000274DA  3725 0001:000274E1  3729 0001:000274E4  3730 0001:000274EE
  3734 0001:000274F0  3736 0001:000274F8  3737 0001:000274FE  3739 0001:00027503
  3743 0001:00027504  3744 0001:00027517  3747 0001:00027518  3748 0001:0002751C
  3750 0001:00027524  3751 0001:0002752A  3752 0001:00027535  3753 0001:00027551
  3755 0001:00027565  3761 0001:00027568  3762 0001:0002756F  3763 0001:00027578
  3766 0001:00027586  3768 0001:000275B0  3770 0001:000275B4  3773 0001:000275C0
  3774 0001:000275C3  3775 0001:000275CA  3776 0001:000275E6  3779 0001:000275E8
  3780 0001:000275EB  3781 0001:000275F2  3782 0001:000275FC  3786 0001:00027600
  3787 0001:00027605  3790 0001:00027608  3792 0001:00027622  3794 0001:0002764B
  3795 0001:00027655  3796 0001:0002766E  3798 0001:00027677  3799 0001:00027680
  3803 0001:000276A4  3804 0001:000276B3  5268 0001:000276B4

Line numbers for GraphUtil(GraphUtil.pas) segment .itext

   981 0002:000003EC   982 0002:000003F5   983 0002:00000402   984 0002:0000040F
   985 0002:0000041C   986 0002:00000429   987 0002:00000436   988 0002:00000443
   989 0002:00000450   990 0002:0000045D   991 0002:0000046A

Line numbers for ExtCtrls(ExtCtrls.pas) segment .text

  2178 0001:00028524  2179 0001:00028536  2180 0001:0002853F  2181 0001:00028543
  2183 0001:0002854A  2188 0001:00028558  2191 0001:00028574  2192 0001:0002857F
  2193 0001:00028583  2195 0001:0002858A  2200 0001:00028592  2201 0001:0002859E
  2204 0001:000285AC  2206 0001:000285B8  2207 0001:000285C2  2208 0001:000285D0
  2210 0001:000285EB  2213 0001:00028601  2214 0001:00028619  2217 0001:00028620
  2218 0001:00028637  2219 0001:00028642  2220 0001:00028656  2221 0001:00028668
  2222 0001:00028689  2226 0001:000286AC  2228 0001:000286B1  2229 0001:000286B4
  2231 0001:000286B9  2235 0001:000286BC  2237 0001:000286C1  2238 0001:000286C4
  2240 0001:000286C9  2243 0001:000286CC  2244 0001:000286CF  2245 0001:000286DB
  2246 0001:000286E0  2249 0001:000286E4  2250 0001:000286E5  2251 0001:000286F6

Line numbers for ExtCtrls(ExtCtrls.pas) segment .itext

  8102 0002:0000046C  8103 0002:00000475  8104 0002:0000047F  8105 0002:0000048F
  8107 0002:0000049E

Line numbers for Dialogs(Dialogs.pas) segment .text

   553 0001:00028898   554 0001:000288AA   555 0001:000288B3   557 0001:000288B7
   562 0001:000288C5   565 0001:000288E0   567 0001:000288EB   572 0001:000288F7
   573 0001:000288FE   574 0001:00028906   575 0001:0002890E   576 0001:0002891A
   581 0001:00028928   582 0001:0002892B   584 0001:0002893B   585 0001:00028947
   586 0001:0002894B   589 0001:00028957   590 0001:00028961   591 0001:0002896A
   595 0001:0002896C   596 0001:0002896E   598 0001:0002897E   599 0001:0002898F
   601 0001:00028991   604 0001:00028994   605 0001:0002899B   606 0001:000289A2
   608 0001:000289BC   609 0001:000289C5   612 0001:000289CC   613 0001:000289D6
   614 0001:000289E4   616 0001:000289FB   618 0001:00028A0F   622 0001:00028A18
   623 0001:00028A1D   626 0001:00028A20   627 0001:00028A23   628 0001:00028A2A
   629 0001:00028A35   632 0001:00028A38   634 0001:00028A3C   636 0001:00028A45
   637 0001:00028A4A   640 0001:00028A50   641 0001:00028A53   642 0001:00028A5A
   643 0001:00028A5F   653 0001:00028A64   654 0001:00028A73   655 0001:00028A82
   656 0001:00028A8C   657 0001:00028A94   660 0001:00028AA2   662 0001:00028AA5
   663 0001:00028AB3   664 0001:00028ABB   667 0001:00028ACE   668 0001:00028AD0
   672 0001:00028AE8   673 0001:00028AF0   674 0001:00028AF9   675 0001:00028B01
   677 0001:00028B14   680 0001:00028B20   681 0001:00028B21   682 0001:00028B32
   685 0001:00028B34   686 0001:00028B35   687 0001:00028B46  2418 0001:00028BEC
  2419 0001:00028BEF  2420 0001:00028BFE  2421 0001:00028C0D  2423 0001:00028C49
  2431 0001:00028D40  2432 0001:00028D70

Line numbers for Dialogs(Dialogs.pas) segment .itext

  2425 0002:000004B0  2426 0002:000004C3  2427 0002:000004C8  2428 0002:000004D2
  2429 0002:000004DC  2430 0002:000004EC

Line numbers for Clipbrd(Clipbrd.pas) segment .text

   529 0001:00028D9C   530 0001:00028DBF

Line numbers for Clipbrd(Clipbrd.pas) segment .itext

   523 0002:000004F0   525 0002:000004F9   526 0002:00000509   527 0002:00000519
   528 0002:00000520

Line numbers for StrUtils(StrUtils.pas) segment .text

   884 0001:00000000

Line numbers for StdActns(StdActns.pas) segment .text

   562 0001:00028ECC   563 0001:00028EDE   564 0001:00028EE7   565 0001:00028EEB
  1411 0001:00028F05

Line numbers for Forms(Forms.pas) segment .text

  1393 0001:0002AF6C  1394 0001:0002AF71  1398 0001:0002AF74  1399 0001:0002AF79
  1410 0001:0002AF7C  1411 0001:0002AF82  1413 0001:0002AF86  1414 0001:0002AF8E
  1415 0001:0002AF92  1416 0001:0002AF97  1418 0001:0002AF9C  1419 0001:0002AF9E
  1420 0001:0002AFA3  1423 0001:0002AFA8  1424 0001:0002AFB1  1427 0001:0002AFC3
  1449 0001:0002AFC8  1450 0001:0002AFDF  1451 0001:0002AFEB  1452 0001:0002AFF5
  1454 0001:0002AFFF  1459 0001:0002B000  1460 0001:0002B007  1463 0001:0002B023
  1464 0001:0002B02D  1465 0001:0002B035  1466 0001:0002B038  1467 0001:0002B03D
  1469 0001:0002B045  1470 0001:0002B048  1485 0001:0002B050  1495 0001:0002B059
  1496 0001:0002B05E  1497 0001:0002B067  1498 0001:0002B070  1499 0001:0002B075
  1500 0001:0002B07C  1501 0001:0002B08A  1502 0001:0002B091  1503 0001:0002B09F
  1504 0001:0002B0B1  1506 0001:0002B0C8  1507 0001:0002B0D2  1510 0001:0002B0E9
  1511 0001:0002B0F0  1512 0001:0002B0F8  1514 0001:0002B108  1519 0001:0002B114
  1520 0001:0002B118  1522 0001:0002B11C  1523 0001:0002B11E  1524 0001:0002B136
  1525 0001:0002B138  1520 0001:0002B144  1527 0001:0002B148  1530 0001:0002B14C
  1531 0001:0002B153  1533 0001:0002B179  1535 0001:0002B185  1538 0001:0002B196
  1540 0001:0002B1A5  1541 0001:0002B1A8  1545 0001:0002B1B0  1546 0001:0002B1B5
  1547 0001:0002B1BC  1548 0001:0002B1C3  1549 0001:0002B1D5  1550 0001:0002B1DE
  1551 0001:0002B1E4  1552 0001:0002B1E9  1557 0001:0002B1EC  1558 0001:0002B1ED
  1559 0001:0002B1F3  1560 0001:0002B201  1561 0001:0002B20A  1573 0001:0002B20C
  1574 0001:0002B213  1575 0001:0002B216  1577 0001:0002B21F  1578 0001:0002B221
  1580 0001:0002B225  1585 0001:0002B22C  1586 0001:0002B22F  1587 0001:0002B237
  1588 0001:0002B23C  1589 0001:0002B24F  1590 0001:0002B254  1595 0001:0002B258
  1596 0001:0002B25E  1598 0001:0002B272  1599 0001:0002B280  1601 0001:0002B294
  1596 0001:0002B295  1602 0001:0002B298  1604 0001:0002B2AC  1605 0001:0002B2BA
  1606 0001:0002B2C8  1602 0001:0002B2C9  1607 0001:0002B2CC  1608 0001:0002B2CE
  1683 0001:0002B2D8  1684 0001:0002B2DC  1685 0001:0002B2E3  1686 0001:0002B2ED
  1687 0001:0002B2F7  1688 0001:0002B301  1689 0001:0002B30B  1690 0001:0002B315
  1691 0001:0002B324  1702 0001:0002B330  1703 0001:0002B334  1704 0001:0002B33B
  1705 0001:0002B34A  1706 0001:0002B359  1711 0001:0002B364  1716 0001:0002B370
  1717 0001:0002B374  1718 0001:0002B37B  1719 0001:0002B384  1720 0001:0002B38D
  1721 0001:0002B396  1722 0001:0002B39F  1723 0001:0002B3A8  1724 0001:0002B3B1
  1737 0001:0002B3BC  1738 0001:0002B3D7  1739 0001:0002B3FF  1744 0001:0002B42C
  1746 0001:0002B434  1745 0001:0002B437  1747 0001:0002B452  1748 0001:0002B463
  1749 0001:0002B468  1750 0001:0002B46A  1757 0001:0002B470  1758 0001:0002B476
  1759 0001:0002B478  1760 0001:0002B47D  1763 0001:0002B480  1764 0001:0002B49D
  1765 0001:0002B4A6  1766 0001:0002B4AA  1767 0001:0002B4DB  1773 0001:0002B500
  1774 0001:0002B518  1775 0001:0002B521  1776 0001:0002B524  1777 0001:0002B52B
  1778 0001:0002B533  1779 0001:0002B543  1780 0001:0002B547  1781 0001:0002B54E
  1782 0001:0002B555  1783 0001:0002B55C  1784 0001:0002B563  1785 0001:0002B567
  1786 0001:0002B56B  1790 0001:0002B58C  1791 0001:0002B592  1794 0001:0002B594
  1795 0001:0002B59B  1797 0001:0002B5AC  1798 0001:0002B5B9  1799 0001:0002B5C3
  1800 0001:0002B5CD  1801 0001:0002B5D5  1803 0001:0002B5D7  1804 0001:0002B5E0
  1807 0001:0002B5E4  1808 0001:0002B5E7  1809 0001:0002B5ED  1810 0001:0002B5F8
  1811 0001:0002B604  1813 0001:0002B60F  1814 0001:0002B619  1822 0001:0002B61C
  1823 0001:0002B622  1824 0001:0002B628  1826 0001:0002B63A  1827 0001:0002B655
  1828 0001:0002B678  1830 0001:0002B681  1833 0001:0002B68C  1834 0001:0002B692
  1835 0001:0002B698  1837 0001:0002B6A4  1838 0001:0002B6BF  1839 0001:0002B6E2
  1841 0001:0002B6EB  1843 0001:0002B6F8  1844 0001:0002B703  1846 0001:0002B716
  1848 0001:0002B724  1849 0001:0002B729  1850 0001:0002B72E  1851 0001:0002B743
  1852 0001:0002B74C  1853 0001:0002B762  1850 0001:0002B777  1854 0001:0002B77A
  1856 0001:0002B793  1858 0001:0002B79D  1863 0001:0002B7A4  1864 0001:0002B7A8
  1865 0001:0002B7AD  1866 0001:0002B7B8  1868 0001:0002B7D9  1877 0001:0002B7DC
  1878 0001:0002B7E0  1879 0001:0002B7E5  1880 0001:0002B7F0  1881 0001:0002B80B
  1884 0001:0002B810  1885 0001:0002B81A  1886 0001:0002B81C  1887 0001:0002B825
  1888 0001:0002B83E  1889 0001:0002B857  1890 0001:0002B870  1891 0001:0002B885
  1893 0001:0002B88C  1894 0001:0002B89C  1896 0001:0002B8BD  1897 0001:0002B8C6
  1898 0001:0002B8E6  1899 0001:0002B906  1908 0001:0002B90C  1909 0001:0002B90F
  1910 0001:0002B920  1921 0001:0002B924  1922 0001:0002B92C  1923 0001:0002B933
  1924 0001:0002B93A  1925 0001:0002B93C  1926 0001:0002B94D  1927 0001:0002B957
  1928 0001:0002B978  1929 0001:0002B97B  1931 0001:0002B984  1934 0001:0002B993
  1936 0001:0002B9B1  1939 0001:0002B9C6  1940 0001:0002B9DB  1941 0001:0002B9E3
  1945 0001:0002B9E7  1946 0001:0002B9F1  1947 0001:0002BA00  1948 0001:0002BA09
  1951 0001:0002BA0D  1952 0001:0002BA0F  1953 0001:0002BA14  1955 0001:0002BA19
  1956 0001:0002BA1E  1958 0001:0002BA26  1959 0001:0002BA2D  1960 0001:0002BA32
  1961 0001:0002BA52  1962 0001:0002BA60  1963 0001:0002BA63  1964 0001:0002BA7E
  1965 0001:0002BA91  1966 0001:0002BAA4  1967 0001:0002BAB7  1969 0001:0002BAC8
  1970 0001:0002BAD6  1956 0001:0002BAD7  1972 0001:0002BADF  1974 0001:0002BAE9
  1975 0001:0002BB07  1976 0001:0002BB1D  1977 0001:0002BB33  1978 0001:0002BB49
  1983 0001:0002BB5F  1984 0001:0002BB96  1985 0001:0002BBB2  1986 0001:0002BBCE
  1987 0001:0002BBEF  1989 0001:0002BC10  1990 0001:0002BC1C  1991 0001:0002BC2F
  1993 0001:0002BC40  1994 0001:0002BC49  1995 0001:0002BC55  1996 0001:0002BC68
  1997 0001:0002BC79  1998 0001:0002BC85  2002 0001:0002BC93  2009 0001:0002BC9C
  2010 0001:0002BCA0  2012 0001:0002BCA5  2013 0001:0002BCA7  2014 0001:0002BCAB
  2015 0001:0002BCC2  2016 0001:0002BCC5  2017 0001:0002BCC9  2018 0001:0002BCD1
  2019 0001:0002BCD5  2021 0001:0002BCDA  2025 0001:0002BCE0  2027 0001:0002BCE5
  2028 0001:0002BCE8  2029 0001:0002BCEC  2030 0001:0002BCF0  2032 0001:0002BCF8
  2036 0001:0002BCFC  2038 0001:0002BD01  2039 0001:0002BD04  2041 0001:0002BD12
  2048 0001:0002BD14  2049 0001:0002BD19  2050 0001:0002BD22  2053 0001:0002BD2A
  2054 0001:0002BD35  2055 0001:0002BD3B  2056 0001:0002BD41  2057 0001:0002BD45
  2058 0001:0002BD49  2061 0001:0002BD50  2062 0001:0002BD53  2063 0001:0002BD59
  2064 0001:0002BD69  2065 0001:0002BD77  2067 0001:0002BD80  2068 0001:0002BD87
  2071 0001:0002BD9F  2072 0001:0002BDBA  2074 0001:0002BDD3  2081 0001:0002BDD8
  2082 0001:0002BDDC  2084 0001:0002BDE1  2085 0001:0002BDE3  2086 0001:0002BDE7
  2087 0001:0002BDFE  2088 0001:0002BE01  2089 0001:0002BE05  2090 0001:0002BE0D
  2091 0001:0002BE11  2093 0001:0002BE16  2097 0001:0002BE1C  2099 0001:0002BE21
  2100 0001:0002BE24  2101 0001:0002BE28  2103 0001:0002BE30  2107 0001:0002BE34
  2109 0001:0002BE39  2110 0001:0002BE3C  2111 0001:0002BE40  2113 0001:0002BE48
  2117 0001:0002BE4C  2118 0001:0002BE51  2119 0001:0002BE5A  2120 0001:0002BE62
  2124 0001:0002BE64  2125 0001:0002BE6E  2126 0001:0002BE72  2127 0001:0002BE77
  2131 0001:0002BE78  2132 0001:0002BE84  2136 0001:0002BE88  2137 0001:0002BE8B
  2138 0001:0002BE93  2159 0001:0002BE94  2160 0001:0002BEA1  2161 0001:0002BED7
  2162 0001:0002BEDF  2163 0001:0002BF08  2164 0001:0002BF10  2165 0001:0002BF39
  2166 0001:0002BF41  2167 0001:0002BF6A  2169 0001:0002BF98  2171 0001:0002BF9C
  2172 0001:0002BFB1  2173 0001:0002BFB8  2174 0001:0002BFBA  2175 0001:0002BFC6
  2177 0001:0002BFCE  2178 0001:0002BFE9  2180 0001:0002BFF4  2181 0001:0002BFFB
  2182 0001:0002C002  2183 0001:0002C007  2184 0001:0002C00F  2185 0001:0002C019
  2186 0001:0002C01E  2187 0001:0002C031  2188 0001:0002C039  2189 0001:0002C03C
  2190 0001:0002C049  2191 0001:0002C04F  2192 0001:0002C06D  2193 0001:0002C079
  2194 0001:0002C097  2195 0001:0002C0B1  2200 0001:0002C0B8  2201 0001:0002C0CA
  2202 0001:0002C0D3  2203 0001:0002C0DF  2204 0001:0002C0F5  2205 0001:0002C10B
  2206 0001:0002C112  2209 0001:0002C130  2210 0001:0002C13B  2211 0001:0002C146
  2212 0001:0002C151  2213 0001:0002C15D  2216 0001:0002C16C  2217 0001:0002C16F
  2218 0001:0002C176  2220 0001:0002C17A  2223 0001:0002C17C  2224 0001:0002C17F
  2228 0001:0002C186  2230 0001:0002C1A4  2231 0001:0002C1B1  2232 0001:0002C1B8
  2235 0001:0002C1BC  2236 0001:0002C1C5  2237 0001:0002C1CC  2238 0001:0002C1D7
  2242 0001:0002C1DC  2243 0001:0002C1F9  2251 0001:0002C1FC  2252 0001:0002C208
  2253 0001:0002C217  2254 0001:0002C225  2255 0001:0002C230  2256 0001:0002C239
  2257 0001:0002C255  2259 0001:0002C25B  2260 0001:0002C261  2264 0001:0002C26A
  2266 0001:0002C288  2267 0001:0002C29C  2268 0001:0002C2AC  2264 0001:0002C2AD
  2271 0001:0002C2B0  2272 0001:0002C2BE  2271 0001:0002C2D7  2274 0001:0002C2DA
  2275 0001:0002C2E0  2277 0001:0002C2FB  2279 0001:0002C30B  2282 0001:0002C314
  2283 0001:0002C317  2285 0001:0002C320  2286 0001:0002C32B  2288 0001:0002C336
  2291 0001:0002C338  2292 0001:0002C33B  2294 0001:0002C343  2295 0001:0002C349
  2297 0001:0002C356  2298 0001:0002C363  2301 0001:0002C370  2304 0001:0002C374
  2305 0001:0002C377  2306 0001:0002C382  2309 0001:0002C384  2310 0001:0002C387
  2311 0001:0002C392  2314 0001:0002C394  2315 0001:0002C39B  2316 0001:0002C3BB
  2317 0001:0002C3C9  2318 0001:0002C3D3  2320 0001:0002C3E5  2321 0001:0002C3F7
  2323 0001:0002C40B  2325 0001:0002C41D  2326 0001:0002C42F  2330 0001:0002C443
  2331 0001:0002C455  2334 0001:0002C474  2336 0001:0002C486  2340 0001:0002C48C
  2342 0001:0002C49C  2343 0001:0002C4A1  2363 0001:0002C4A4  2364 0001:0002C4B1
  2365 0001:0002C4B9  2366 0001:0002C4C2  2367 0001:0002C4CE  2368 0001:0002C4D1
  2369 0001:0002C4DE  2370 0001:0002C4E1  2371 0001:0002C50A  2372 0001:0002C535
  2373 0001:0002C53B  2374 0001:0002C54D  2376 0001:0002C55B  2377 0001:0002C568
  2378 0001:0002C574  2380 0001:0002C590  2381 0001:0002C597  2382 0001:0002C5A9
  2384 0001:0002C5B7  2385 0001:0002C5C4  2386 0001:0002C5D1  2388 0001:0002C5ED
  2391 0001:0002C5F8  2392 0001:0002C602  2394 0001:0002C606  2396 0001:0002C60C
  2397 0001:0002C616  2399 0001:0002C620  2400 0001:0002C62D  2401 0001:0002C63A
  2403 0001:0002C643  2404 0001:0002C663  2407 0001:0002C683  2408 0001:0002C68D
  2409 0001:0002C697  2412 0001:0002C69C  2413 0001:0002C6A5  2414 0001:0002C6B0
  2415 0001:0002C6BB  2420 0001:0002C6C0  2426 0001:0002C6C4  2427 0001:0002C6D0
  2428 0001:0002C6D9  2429 0001:0002C6E7  2430 0001:0002C6F1  2431 0001:0002C6F3
  2432 0001:0002C702  2433 0001:0002C706  2434 0001:0002C70A  2436 0001:0002C70C
  2438 0001:0002C726  2440 0001:0002C737  2441 0001:0002C744  2442 0001:0002C74E
  2443 0001:0002C75C  2445 0001:0002C771  2447 0001:0002C786  2448 0001:0002C7A4
  2449 0001:0002C7AC  2453 0001:0002C7B4  2454 0001:0002C7C6  2455 0001:0002C7D2
  2456 0001:0002C7D7  2460 0001:0002C7D8  2461 0001:0002C7EA  2462 0001:0002C7F6
  2463 0001:0002C7FB  2466 0001:0002C7FC  2467 0001:0002C807  2470 0001:0002C86B
  2471 0001:0002C875  2476 0001:0002C87C  2477 0001:0002C888  2478 0001:0002C891
  2480 0001:0002C89F  2481 0001:0002C8BB  2483 0001:0002C8D3  2485 0001:0002C8E4
  2487 0001:0002C8F0  2488 0001:0002C8FE  2490 0001:0002C906  2658 0001:0002C90C
  2659 0001:0002C940  2660 0001:0002C94C  2661 0001:0002C95A  2662 0001:0002C96B
  2664 0001:0002C98C  2665 0001:0002C996  2666 0001:0002C9A4  2667 0001:0002C9B6
  2669 0001:0002CA0D  2671 0001:0002CA1F  2674 0001:0002CA43  2676 0001:0002CA57
  2679 0001:0002CA98  2680 0001:0002CA9C  2681 0001:0002CAAF  2683 0001:0002CAB8
  2684 0001:0002CAC3  2686 0001:0002CACA  2689 0001:0002CAD0  2690 0001:0002CAE7
  2691 0001:0002CAF0  2693 0001:0002CAF8  2694 0001:0002CB01  2695 0001:0002CB0A
  2696 0001:0002CB16  2697 0001:0002CB22  2698 0001:0002CB36  2699 0001:0002CB4A
  2700 0001:0002CB62  2701 0001:0002CB72  2702 0001:0002CB79  2703 0001:0002CB8D
  2704 0001:0002CB96  2705 0001:0002CBA3  2706 0001:0002CBAA  2707 0001:0002CBB1
  2708 0001:0002CBB8  2709 0001:0002CBBF  2710 0001:0002CBCD  2711 0001:0002CBD4
  2712 0001:0002CBE1  2713 0001:0002CBE8  2714 0001:0002CBF0  2715 0001:0002CBF9
  2716 0001:0002CC02  2717 0001:0002CC0B  2718 0001:0002CC14  2719 0001:0002CC20
  2720 0001:0002CC2A  2723 0001:0002CC54  2724 0001:0002CC57  2725 0001:0002CC63
  2726 0001:0002CC6A  2727 0001:0002CC79  2728 0001:0002CC82  2729 0001:0002CC96
  2730 0001:0002CCA6  2731 0001:0002CCB9  2734 0001:0002CCBC  2735 0001:0002CCCD
  2736 0001:0002CCDA  2737 0001:0002CCEF  2738 0001:0002CCFD  2739 0001:0002CD14
  2740 0001:0002CD1E  2741 0001:0002CD35  2742 0001:0002CD42  2743 0001:0002CD50
  2744 0001:0002CD5E  2745 0001:0002CD6B  2746 0001:0002CD78  2748 0001:0002CD94
  2750 0001:0002CDA8  2753 0001:0002CDBC  2754 0001:0002CDC6  2755 0001:0002CDD3
  2756 0001:0002CDE1  2758 0001:0002CE02  2759 0001:0002CE12  2761 0001:0002CE1C
  2762 0001:0002CE32  2765 0001:0002CE38  2766 0001:0002CE42  2767 0001:0002CE4F
  2768 0001:0002CE5D  2770 0001:0002CE7E  2772 0001:0002CE90  2777 0001:0002CE98
  2778 0001:0002CE9D  2779 0001:0002CEA4  2781 0001:0002CEB9  2782 0001:0002CEBF
  2783 0001:0002CEC7  2785 0001:0002CEDF  2791 0001:0002CEE4  2792 0001:0002CEED
  2793 0001:0002CEF8  2796 0001:0002CF05  2798 0001:0002CF3A  2802 0001:0002CF48
  2803 0001:0002CF59  2804 0001:0002CF6A  2805 0001:0002CF7B  2806 0001:0002CF8C
  2808 0001:0002CF96  2809 0001:0002CF9D  2811 0001:0002CFA1  2812 0001:0002CFAE
  2815 0001:0002CFB7  2817 0001:0002CFC1  2818 0001:0002CFC8  2820 0001:0002CFCC
  2821 0001:0002CFD9  2824 0001:0002CFE2  2825 0001:0002CFF2  2828 0001:0002D002
  2829 0001:0002D00B  2830 0001:0002D01A  2836 0001:0002D020  2837 0001:0002D02B
  2838 0001:0002D033  2839 0001:0002D041  2840 0001:0002D04C  2841 0001:0002D057
  2842 0001:0002D062  2843 0001:0002D064  2844 0001:0002D076  2845 0001:0002D088
  2846 0001:0002D092  2848 0001:0002D0B2  2849 0001:0002D0D2  2850 0001:0002D101
  2851 0001:0002D112  2852 0001:0002D11C  2854 0001:0002D12D  2855 0001:0002D12F
  2856 0001:0002D13B  2857 0001:0002D14E  2858 0001:0002D161  2859 0001:0002D16D
  2860 0001:0002D190  2861 0001:0002D19C  2862 0001:0002D1BF  2864 0001:0002D1CB
  2865 0001:0002D1EE  2869 0001:0002D211  2870 0001:0002D228  2871 0001:0002D23F
  2872 0001:0002D24F  2875 0001:0002D253  2876 0001:0002D265  2878 0001:0002D277
  2880 0001:0002D295  2882 0001:0002D2A5  2885 0001:0002D2B0  2886 0001:0002D2B7
  2887 0001:0002D2C0  2888 0001:0002D2DD  2889 0001:0002D2FC  2890 0001:0002D314
  2893 0001:0002D360  2894 0001:0002D366  2895 0001:0002D371  2896 0001:0002D37A
  2899 0001:0002D380  2900 0001:0002D386  2901 0001:0002D393  2904 0001:0002D398
  2905 0001:0002D39E  2906 0001:0002D3AE  2909 0001:0002D3B4  2910 0001:0002D3BA
  2911 0001:0002D3CA  2915 0001:0002D3D0  2916 0001:0002D3DC  2918 0001:0002D3EB
  2919 0001:0002D3EE  2923 0001:0002D3F0  2924 0001:0002D3FC  2926 0001:0002D408
  2927 0001:0002D40B  2930 0001:0002D40C  2931 0001:0002D40F  2932 0001:0002D420
  2937 0001:0002D430  2942 0001:0002D434  2943 0001:0002D43E  2944 0001:0002D449
  2945 0001:0002D454  2946 0001:0002D45F  2948 0001:0002D46A  2949 0001:0002D473
  2950 0001:0002D48B  2952 0001:0002D49C  2953 0001:0002D4B7  2956 0001:0002D4BC
  2957 0001:0002D4BF  2959 0001:0002D4C9  2960 0001:0002D4DD  2962 0001:0002D4FB
  2963 0001:0002D516  2966 0001:0002D518  2967 0001:0002D51B  2968 0001:0002D524
  2972 0001:0002D528  2974 0001:0002D54E  2977 0001:0002D550  2978 0001:0002D553
  2980 0001:0002D581  2983 0001:0002D584  2984 0001:0002D585  2985 0001:0002D5A1
  2988 0001:0002D5A4  2989 0001:0002D5A5  2990 0001:0002D5BF  2993 0001:0002D5C4
  2994 0001:0002D5C5  2995 0001:0002D5DF  2998 0001:0002D5E4  2999 0001:0002D5EA
  3001 0001:0002D5FB  3002 0001:0002D609  3004 0001:0002D63E  3008 0001:0002D65E
  3009 0001:0002D667  3015 0001:0002D66C  3016 0001:0002D679  3017 0001:0002D688
  3018 0001:0002D68C  3020 0001:0002D6A3  3021 0001:0002D6AF  3022 0001:0002D6C6
  3018 0001:0002D6C9  3023 0001:0002D6CE  3026 0001:0002D6D8  3027 0001:0002D6DC
  3028 0001:0002D700  3032 0001:0002D704  3033 0001:0002D70E  3035 0001:0002D717
  3036 0001:0002D719  3041 0001:0002D71C  3042 0001:0002D72C  3043 0001:0002D73E
  3046 0001:0002D74E  3047 0001:0002D759  3048 0001:0002D761  3049 0001:0002D772
  3051 0001:0002D788  3052 0001:0002D78C  3054 0001:0002D796  3055 0001:0002D7A0
  3057 0001:0002D7A2  3048 0001:0002D7A3  3059 0001:0002D7A6  3062 0001:0002D7B0
  3063 0001:0002D7B3  3065 0001:0002D7B8  3067 0001:0002D7BF  3068 0001:0002D7C5
  3070 0001:0002D7D5  3073 0001:0002D7D8  3074 0001:0002D7DB  3076 0001:0002D7E1
  3077 0001:0002D7E7  3078 0001:0002D7FC  3079 0001:0002D803  3082 0001:0002D80C
  3083 0001:0002D80F  3085 0001:0002D815  3086 0001:0002D81B  3087 0001:0002D830
  3088 0001:0002D837  3091 0001:0002D840  3092 0001:0002D846  3093 0001:0002D84F
  3094 0001:0002D853  3095 0001:0002D85C  3098 0001:0002D866  3099 0001:0002D876
  3101 0001:0002D87F  3104 0001:0002D884  3105 0001:0002D897  3106 0001:0002D8AC
  3107 0001:0002D8CD  3111 0001:0002D8F0  3112 0001:0002D8F2  3117 0001:0002D8F4
  3118 0001:0002D900  3120 0001:0002D917  3121 0001:0002D91D  3122 0001:0002D923
  3123 0001:0002D92D  3124 0001:0002D93B  3125 0001:0002D941  3126 0001:0002D94C
  3127 0001:0002D955  3128 0001:0002D960  3129 0001:0002D96B  3130 0001:0002D975
  3132 0001:0002D993  3133 0001:0002D999  3136 0001:0002D9AB  3140 0001:0002D9B0
  3141 0001:0002D9BC  3142 0001:0002D9CB  3143 0001:0002D9D4  3144 0001:0002D9E7
  3159 0001:0002D9F0  3161 0001:0002D9FE  3164 0001:0002DA47  3165 0001:0002DA54
  3167 0001:0002DA6A  3168 0001:0002DA6C  3170 0001:0002DA78  3172 0001:0002DA95
  3173 0001:0002DAA7  3174 0001:0002DAAE  3176 0001:0002DAB6  3177 0001:0002DABC
  3183 0001:0002DAC1  3184 0001:0002DAC4  3187 0001:0002DAC8  3188 0001:0002DAD1
  3185 0001:0002DAD9  3190 0001:0002DAE1  3192 0001:0002DAE9  3193 0001:0002DAF4
  3197 0001:0002DB28  3198 0001:0002DB36  3199 0001:0002DB44  3204 0001:0002DB55
  3206 0001:0002DB76  3208 0001:0002DB97  3210 0001:0002DBB5  3212 0001:0002DBD0
  3213 0001:0002DBD7  3215 0001:0002DC03  3218 0001:0002DC0F  3219 0001:0002DC15
  3221 0001:0002DC31  3222 0001:0002DC49  3224 0001:0002DC51  3225 0001:0002DC60
  3227 0001:0002DC6E  3228 0001:0002DC7D  3229 0001:0002DC8B  3230 0001:0002DC99
  3231 0001:0002DCAC  3234 0001:0002DCD1  3235 0001:0002DCDB  3238 0001:0002DD00
  3244 0001:0002DD10  3245 0001:0002DD13  3247 0001:0002DD2C  3248 0001:0002DD41
  3250 0001:0002DD49  3251 0001:0002DD5A  3252 0001:0002DD68  3253 0001:0002DD77
  3255 0001:0002DD85  3256 0001:0002DD91  3257 0001:0002DD9F  3258 0001:0002DDAA
  3259 0001:0002DDBD  3262 0001:0002DDDB  3263 0001:0002DDE5  3266 0001:0002DE07
  3269 0001:0002DE24  3274 0001:0002DE3E  3276 0001:0002DE46  3277 0001:0002DE57
  3278 0001:0002DE68  3279 0001:0002DE79  3280 0001:0002DE8A  3281 0001:0002DE9B
  3284 0001:0002DEAC  3285 0001:0002DEB6  3290 0001:0002DEC8  3291 0001:0002DECB
  3293 0001:0002DF10  3298 0001:0002DF14  3299 0001:0002DF19  3300 0001:0002DF2E
  3302 0001:0002DF44  3303 0001:0002DF46  3304 0001:0002DF48  3299 0001:0002DF49
  3305 0001:0002DF4C  3306 0001:0002DF4E  3312 0001:0002DF54  3314 0001:0002DF60
  3317 0001:0002DF85  3318 0001:0002DF8C  3322 0001:0002DFA8  3324 0001:0002DFD2
  3326 0001:0002DFEA  3327 0001:0002DFFD  3329 0001:0002E01C  3333 0001:0002E02B
  3334 0001:0002E032  3335 0001:0002E042  3340 0001:0002E072  3341 0001:0002E07B
  3342 0001:0002E081  3343 0001:0002E09A  3344 0001:0002E0A8  3346 0001:0002E0AE
  3347 0001:0002E0C1  3348 0001:0002E0DB  3350 0001:0002E0F0  3352 0001:0002E108
  3353 0001:0002E10E  3357 0001:0002E129  3359 0001:0002E130  3364 0001:0002E134
  3365 0001:0002E13E  3366 0001:0002E147  3369 0001:0002E151  3371 0001:0002E16E
  3372 0001:0002E177  3373 0001:0002E188  3375 0001:0002E198  3381 0001:0002E1A0
  3382 0001:0002E1A6  3384 0001:0002E1AD  3386 0001:0002E1B8  3388 0001:0002E1D9
  3389 0001:0002E1E2  3393 0001:0002E1F5  3394 0001:0002E206  3395 0001:0002E21E
  3393 0001:0002E22D  3396 0001:0002E230  3399 0001:0002E238  3401 0001:0002E240
  3402 0001:0002E24C  3403 0001:0002E256  3404 0001:0002E264  3407 0001:0002E26D
  3408 0001:0002E277  3410 0001:0002E28A  3411 0001:0002E296  3414 0001:0002E2AD
  3416 0001:0002E2BF  3421 0001:0002E2C4  3422 0001:0002E2CB  3424 0001:0002E2E3
  3425 0001:0002E2F0  3426 0001:0002E30D  3427 0001:0002E31B  3429 0001:0002E328
  3440 0001:0002E32C  3442 0001:0002E337  3443 0001:0002E33D  3446 0001:0002E344
  3447 0001:0002E34E  3448 0001:0002E363  3451 0001:0002E367  3452 0001:0002E36E
  3453 0001:0002E381  3454 0001:0002E38A  3456 0001:0002E397  3460 0001:0002E3A2
  3462 0001:0002E3AA  3464 0001:0002E3B8  3465 0001:0002E3C3  3468 0001:0002E3CE
  3469 0001:0002E3D9  3470 0001:0002E3E5  3475 0001:0002E3F8  3476 0001:0002E402
  3478 0001:0002E412  3479 0001:0002E41C  3482 0001:0002E445  3484 0001:0002E457
  3485 0001:0002E46A  3486 0001:0002E47D  3488 0001:0002E490  3489 0001:0002E4A4
  3490 0001:0002E4B8  3494 0001:0002E4D6  3497 0001:0002E4DD  3502 0001:0002E4E4
  3504 0001:0002E4ED  3505 0001:0002E4F3  3506 0001:0002E4F9  3509 0001:0002E502
  3510 0001:0002E509  3511 0001:0002E51D  3514 0001:0002E51F  3516 0001:0002E54A
  3517 0001:0002E55D  3519 0001:0002E565  3521 0001:0002E56D  3524 0001:0002E575
  3525 0001:0002E581  3527 0001:0002E589  3528 0001:0002E599  3529 0001:0002E5A6
  3530 0001:0002E5B1  3531 0001:0002E5C1  3534 0001:0002E5DA  3535 0001:0002E5E9
  3536 0001:0002E5EF  3541 0001:0002E5F8  3542 0001:0002E5FF  3544 0001:0002E60B
  3545 0001:0002E611  3546 0001:0002E636  3549 0001:0002E65F  3550 0001:0002E671
  3551 0001:0002E684  3553 0001:0002E697  3554 0001:0002E6AF  3556 0001:0002E6C0
  3557 0001:0002E6D3  3558 0001:0002E6E7  3560 0001:0002E6FB  3563 0001:0002E706
  3564 0001:0002E710  3565 0001:0002E719  3567 0001:0002E737  3570 0001:0002E74D
  3571 0001:0002E75C  3574 0001:0002E76C  3576 0001:0002E788  3579 0001:0002E792
  3584 0001:0002E798  3585 0001:0002E7A9  3586 0001:0002E7AC  3587 0001:0002E7B2
  3588 0001:0002E7BB  3589 0001:0002E7CE  3590 0001:0002E7D5  3593 0001:0002E7DC
  3594 0001:0002E7E5  3596 0001:0002E7FC  3597 0001:0002E800  3599 0001:0002E80F
  3600 0001:0002E81C  3602 0001:0002E823  3603 0001:0002E82E  3606 0001:0002E834
  3607 0001:0002E837  3608 0001:0002E839  3609 0001:0002E84B  3611 0001:0002E865
  3616 0001:0002E868  3617 0001:0002E86B  3618 0001:0002E86D  3619 0001:0002E87F
  3620 0001:0002E893  3619 0001:0002E8AA  3621 0001:0002E8AD  3626 0001:0002E8B4
  3627 0001:0002E8B9  3628 0001:0002E8CB  3630 0001:0002E8DF  3631 0001:0002E8EB
  3633 0001:0002E8F4  3634 0001:0002E8F5  3636 0001:0002E8F9  3628 0001:0002E8FA
  3637 0001:0002E8FD  3638 0001:0002E8FF  3644 0001:0002E904  3645 0001:0002E908
  3646 0001:0002E90B  3647 0001:0002E917  3648 0001:0002E91D  3649 0001:0002E923
  3650 0001:0002E92C  3651 0001:0002E92E  3657 0001:0002E934  3658 0001:0002E93A
  3659 0001:0002E93C  3660 0001:0002E951  3661 0001:0002E965  3663 0001:0002E976
  3664 0001:0002E984  3665 0001:0002E986  3660 0001:0002E987  3668 0001:0002E98A
  3669 0001:0002E994  3670 0001:0002E9A8  3672 0001:0002E9B9  3673 0001:0002E9C7
  3674 0001:0002E9C9  3669 0001:0002E9CA  3675 0001:0002E9CD  3679 0001:0002E9D4
  3680 0001:0002E9DA  3684 0001:0002E9DC  3685 0001:0002E9E7  3689 0001:0002E9E8
  3690 0001:0002E9EE  3693 0001:0002E9F0  3694 0001:0002E9F3  3695 0001:0002EA13
  3703 0001:0002EA18  3704 0001:0002EA24  3706 0001:0002EA33  3709 0001:0002EA54
  3710 0001:0002EA5D  3711 0001:0002EA7A  3716 0001:0002EAB2  3717 0001:0002EAC3
  3718 0001:0002EACD  3719 0001:0002EADC  3720 0001:0002EAE2  3721 0001:0002EAEC
  3722 0001:0002EAFA  3723 0001:0002EB0B  3724 0001:0002EB15  3725 0001:0002EB1E
  3726 0001:0002EB33  3727 0001:0002EB45  3728 0001:0002EB53  3730 0001:0002EB6F
  3731 0001:0002EB75  3735 0001:0002EB87  3741 0001:0002EB8C  3742 0001:0002EB92
  3744 0001:0002EBA4  3745 0001:0002EBA6  3746 0001:0002EBB7  3747 0001:0002EBB9
  3748 0001:0002EBCA  3749 0001:0002EBDC  3750 0001:0002EBEF  3752 0001:0002EC00
  3755 0001:0002EC08  3756 0001:0002EC0B  3757 0001:0002EC11  3759 0001:0002EC15
  3760 0001:0002EC1E  3762 0001:0002EC27  3765 0001:0002EC2C  3766 0001:0002EC2F
  3768 0001:0002EC37  3769 0001:0002EC3D  3770 0001:0002EC4A  3772 0001:0002EC51
  3777 0001:0002EC54  3778 0001:0002EC74  3779 0001:0002EC78  3780 0001:0002EC8D
  3781 0001:0002ECB1  3779 0001:0002ECE3  3782 0001:0002ECE8  3783 0001:0002ECF9
  3785 0001:0002ED09  3786 0001:0002ED0B  3787 0001:0002ED11  3788 0001:0002ED1E
  3791 0001:0002ED39  3794 0001:0002ED54  3796 0001:0002ED63  3797 0001:0002ED81
  3798 0001:0002ED9A  3801 0001:0002EDAC  3802 0001:0002EDB5  3804 0001:0002EDD1
  3805 0001:0002EDEB  3806 0001:0002EDFD  3808 0001:0002EE04  3812 0001:0002EE19
  3813 0001:0002EE32  3814 0001:0002EE42  3816 0001:0002EE52  3820 0001:0002EE78
  3821 0001:0002EE7E  3822 0001:0002EE8A  3825 0001:0002EE8C  3826 0001:0002EE8F
  3827 0001:0002EE98  3828 0001:0002EEAA  3829 0001:0002EEB0  3832 0001:0002EEB4
  3833 0001:0002EEB7  3834 0001:0002EEC0  3835 0001:0002EED2  3836 0001:0002EED8
  3839 0001:0002EEDC  3840 0001:0002EEE2  3842 0001:0002EF05  3843 0001:0002EF0B
  3847 0001:0002EF10  3849 0001:0002EF18  3850 0001:0002EF1E  3852 0001:0002EF29
  3855 0001:0002EF2C  3856 0001:0002EF2F  3858 0001:0002EF37  3859 0001:0002EF3D
  3860 0001:0002EF4B  3861 0001:0002EF54  3862 0001:0002EF5C  3863 0001:0002EF64
  3864 0001:0002EF75  3866 0001:0002EF7C  3869 0001:0002EF80  3870 0001:0002EF86
  3872 0001:0002EF90  3873 0001:0002EF94  3874 0001:0002EF9B  3875 0001:0002EFA1
  3877 0001:0002EFA5  3878 0001:0002EFAE  3880 0001:0002EFB5  3881 0001:0002EFBD
  3882 0001:0002EFC5  3883 0001:0002EFD6  3885 0001:0002EFDD  3889 0001:0002EFE0
  3890 0001:0002EFEA  3893 0001:0002EFEC  3894 0001:0002EFF2  3896 0001:0002EFFD
  3897 0001:0002F005  3899 0001:0002F017  3902 0001:0002F01C  3903 0001:0002F01F
  3904 0001:0002F026  3905 0001:0002F03B  3909 0001:0002F040  3910 0001:0002F045
  3911 0001:0002F053  3914 0001:0002F058  3915 0001:0002F05B  3916 0001:0002F062
  3918 0001:0002F06B  3920 0001:0002F085  3921 0001:0002F09E  3924 0001:0002F0A0
  3925 0001:0002F0A3  3926 0001:0002F0AA  3927 0001:0002F0BC  3930 0001:0002F0C0
  3931 0001:0002F0C3  3932 0001:0002F0CA  3933 0001:0002F0D7  3939 0001:0002F0DC
  3940 0001:0002F0E2  3942 0001:0002F0EA  3943 0001:0002F0F0  3944 0001:0002F0FF
  3946 0001:0002F117  3953 0001:0002F11C  3954 0001:0002F125  3956 0001:0002F144
  3957 0001:0002F149  3958 0001:0002F14D  3959 0001:0002F162  3960 0001:0002F179
  3961 0001:0002F18E  3962 0001:0002F192  3963 0001:0002F1A2  3964 0001:0002F1B0
  3965 0001:0002F1CA  3966 0001:0002F1E2  3967 0001:0002F1EF  3968 0001:0002F20D
  3970 0001:0002F228  3971 0001:0002F233  3975 0001:0002F2AD  3977 0001:0002F2B1
  3983 0001:0002F32B  3984 0001:0002F35C  3985 0001:0002F38B  3986 0001:0002F3B4
  3987 0001:0002F3EB  3988 0001:0002F41C  3989 0001:0002F449  3991 0001:0002F461
  3967 0001:0002F465  3991 0001:0002F46C  3964 0001:0002F46D  3993 0001:0002F477
  3996 0001:0002F480  3997 0001:0002F484  3999 0001:0002F48E  3998 0001:0002F496
  4000 0001:0002F4AE  4002 0001:0002F4B2  4004 0001:0002F4D1  4006 0001:0002F4E2
  4008 0001:0002F4EA  4015 0001:0002F4F0  4016 0001:0002F4F8  4017 0001:0002F501
  4020 0001:0002F50A  4022 0001:0002F521  4023 0001:0002F523  4024 0001:0002F529
  4025 0001:0002F52D  4026 0001:0002F53F  4027 0001:0002F543  4028 0001:0002F54C
  4030 0001:0002F555  4031 0001:0002F557  4032 0001:0002F572  4033 0001:0002F585
  4036 0001:0002F595  4037 0001:0002F5A2  4039 0001:0002F5CF  4040 0001:0002F5D4
  4042 0001:0002F5EF  4043 0001:0002F5FA  4045 0001:0002F61E  4046 0001:0002F62B
  4047 0001:0002F633  4051 0001:0002F643  4053 0001:0002F653  4054 0001:0002F65D
  4057 0001:0002F665  4058 0001:0002F672  4060 0001:0002F696  4061 0001:0002F6A0
  4062 0001:0002F6A4  4065 0001:0002F6B1  4066 0001:0002F6BB  4069 0001:0002F6C0
  4070 0001:0002F6C2  4072 0001:0002F6CC  4074 0001:0002F6D0  4075 0001:0002F6E2
  4076 0001:0002F6F0  4077 0001:0002F6F9  4078 0001:0002F701  4079 0001:0002F70F
  4080 0001:0002F715  4082 0001:0002F71C  4083 0001:0002F723  4084 0001:0002F72F
  4088 0001:0002F73B  4090 0001:0002F753  4091 0001:0002F75A  4094 0001:0002F761
  4095 0001:0002F776  4096 0001:0002F77D  4097 0001:0002F791  4098 0001:0002F793
  4102 0001:0002F7BC  4103 0001:0002F7C3  4105 0001:0002F7CA  4107 0001:0002F7CE
  4108 0001:0002F7D4  4109 0001:0002F7E8  4112 0001:0002F7F5  4113 0001:0002F7FC
  4114 0001:0002F802  4115 0001:0002F809  4116 0001:0002F81A  4119 0001:0002F82B
  4125 0001:0002F830  4126 0001:0002F838  4127 0001:0002F83F  4128 0001:0002F849
  4129 0001:0002F852  4130 0001:0002F870  4131 0001:0002F886  4132 0001:0002F890
  4137 0001:0002F8A8  4138 0001:0002F8B0  4139 0001:0002F8B5  4141 0001:0002F8C9
  4150 0001:0002F90E  4152 0001:0002F91F  4153 0001:0002F933  4156 0001:0002F94A
  4159 0001:0002F963  4161 0001:0002F96D  4162 0001:0002F978  4161 0001:0002F98B
  4163 0001:0002F98E  4165 0001:0002F999  4166 0001:0002F9AD  4165 0001:0002F9D4
  4167 0001:0002F9D7  4168 0001:0002F9F2  4174 0001:0002FA04  4175 0001:0002FA28
  4177 0001:0002FA3F  4179 0001:0002FA54  4182 0001:0002FA7B  4183 0001:0002FA81
  4184 0001:0002FA86  4185 0001:0002FA8E  4186 0001:0002FA94  4187 0001:0002FA9A
  4188 0001:0002FAA0  4189 0001:0002FAA6  4190 0001:0002FAAC  4192 0001:0002FAB2
  4194 0001:0002FAD7  4197 0001:0002FAE0  4198 0001:0002FAEF  4199 0001:0002FAF9
  4200 0001:0002FB06  4202 0001:0002FB0D  4203 0001:0002FB14  4213 0001:0002FB3C
  4214 0001:0002FB47  4216 0001:0002FB62  4217 0001:0002FB74  4218 0001:0002FB77
  4224 0001:0002FB80  4225 0001:0002FB89  4227 0001:0002FB99  4229 0001:0002FBAA
  4231 0001:0002FBC1  4232 0001:0002FBCA  4233 0001:0002FBE2  4234 0001:0002FBF0
  4236 0001:0002FC16  4237 0001:0002FC1F  4239 0001:0002FC3F  4229 0001:0002FC42
  4241 0001:0002FC4B  4242 0001:0002FC57  4243 0001:0002FC64  4245 0001:0002FC78
  4246 0001:0002FC80  4249 0001:0002FC84  4250 0001:0002FC87  4251 0001:0002FC90
  4253 0001:0002FCB5  4254 0001:0002FCBC  4255 0001:0002FCC4  4258 0001:0002FCC8
  4259 0001:0002FCCE  4261 0001:0002FCD7  4262 0001:0002FCDC  4263 0001:0002FCF9
  4265 0001:0002FD1E  4266 0001:0002FD27  4269 0001:0002FD2C  4270 0001:0002FD46
  4272 0001:0002FD4E  4275 0001:0002FD7E  4276 0001:0002FD9F  4277 0001:0002FDA5
  4279 0001:0002FDAB  4280 0001:0002FDBB  4283 0001:0002FDC6  4295 0001:0002FDEC
  4296 0001:0002FDF5  4297 0001:0002FE0A  4298 0001:0002FE13  4299 0001:0002FE2D
  4304 0001:0002FE34  4305 0001:0002FE38  4306 0001:0002FE3F  4307 0001:0002FE46
  4308 0001:0002FE54  4314 0001:0002FE58  4315 0001:0002FE66  4316 0001:0002FE6A
  4317 0001:0002FE70  4318 0001:0002FE79  4319 0001:0002FE7E  4320 0001:0002FE89
  4321 0001:0002FE91  4322 0001:0002FE9C  4323 0001:0002FEA4  4324 0001:0002FEB3
  4325 0001:0002FEC4  4327 0001:0002FED5  4328 0001:0002FEDD  4329 0001:0002FEEC
  4331 0001:0002FEFF  4332 0001:0002FF09  4334 0001:0002FF16  4335 0001:0002FF2B
  4336 0001:0002FF39  4338 0001:0002FF45  4340 0001:0002FF49  4341 0001:0002FF50
  4342 0001:0002FF5A  4344 0001:0002FF73  4345 0001:0002FF7B  4347 0001:0002FF99
  4348 0001:0002FFA8  4353 0001:0002FFB9  4354 0001:0002FFC6  4355 0001:0002FFD5
  4350 0001:0002FFEE  4359 0001:00030008  4361 0001:0003000D  4360 0001:0003000F
  4362 0001:0003001A  4363 0001:00030020  4357 0001:0003003E  4365 0001:00030049
  4366 0001:0003004F  4367 0001:00030058  4369 0001:0003005C  4370 0001:0003006D
  4371 0001:0003007A  4367 0001:0003007D  4373 0001:00030081  4374 0001:00030093
  4375 0001:000300A2  4378 0001:000300BD  4380 0001:000300DC  4381 0001:000300E6
  4383 0001:000300EA  4387 0001:000300FC  4392 0001:00030100  4393 0001:00030104
  4394 0001:00030117  4395 0001:0003011B  4397 0001:0003012A  4398 0001:0003013B
  4399 0001:0003013F  4401 0001:00030143  4402 0001:00030145  4403 0001:00030152
  4404 0001:00030164  4405 0001:00030174  4408 0001:00030178  4409 0001:0003017E
  4410 0001:00030184  4411 0001:0003018E  4412 0001:0003019D  4414 0001:000301A1
  4415 0001:000301B0  4416 0001:000301C8  4417 0001:000301D1  4419 0001:000301D8
  4422 0001:000301DC  4423 0001:000301E2  4424 0001:000301F4  4425 0001:00030207
  4426 0001:0003021B  4427 0001:00030229  4432 0001:0003022C  4433 0001:0003022D
  4439 0001:00030282  4440 0001:00030284  4441 0001:000302A8  4442 0001:000302AE
  4443 0001:000302BC  4445 0001:000302D0  4448 0001:000302D4  4449 0001:000302DE
  4452 0001:000302E4  4451 0001:000302E6  4453 0001:000302FE  4454 0001:00030306
  4455 0001:00030318  4458 0001:00030320  4459 0001:00030323  4460 0001:00030335
  4461 0001:0003034D  4464 0001:00030350  4465 0001:00030353  4466 0001:00030365
  4467 0001:0003037D  4470 0001:00030380  4471 0001:00030381  4472 0001:0003039B
  4476 0001:000303A0  4477 0001:000303AB  4478 0001:000303B9  4481 0001:000303BC
  4482 0001:000303C7  4483 0001:000303D5  4484 0001:000303E3  4485 0001:000303F3
  4486 0001:00030401  4488 0001:00030436  4491 0001:0003045B  4493 0001:00030471
  4499 0001:00030478  4500 0001:00030486  4501 0001:00030488  4502 0001:00030494
  4503 0001:0003049B  4504 0001:000304AF  4506 0001:000304C7  4507 0001:000304CD
  4508 0001:000304DB  4509 0001:000304E1  4510 0001:000304F3  4504 0001:000304F7
  4511 0001:000304FA  4512 0001:00030500  4513 0001:0003050F  4519 0001:0003051C
  4520 0001:00030525  4522 0001:00030536  4523 0001:00030545  4524 0001:0003054E
  4528 0001:00030561  4529 0001:00030571  4530 0001:00030583  4532 0001:00030591
  4535 0001:0003059C  4536 0001:0003059F  4537 0001:000305A6  4538 0001:000305C0
  4541 0001:000305C4  4542 0001:000305CD  4543 0001:000305D6  4544 0001:000305E5
  4545 0001:00030614  4546 0001:0003061D  4549 0001:00030624  4550 0001:0003062A
  4552 0001:00030647  4553 0001:0003064D  4555 0001:00030656  4558 0001:0003065C
  4559 0001:00030662  4560 0001:0003066C  4567 0001:00030670  4568 0001:00030674
  4572 0001:000306AD  4573 0001:000306C2  4577 0001:000306D1  4578 0001:000306DE
  4579 0001:000306EB  4580 0001:000306F8  4581 0001:00030705  4582 0001:00030712
  4583 0001:0003071F  4588 0001:0003072E  4589 0001:0003073D  4590 0001:0003074A
  4591 0001:00030759  4594 0001:00030766  4596 0001:0003076C  4597 0001:00030773
  4598 0001:0003077B  4599 0001:0003078C  4600 0001:0003079C  4604 0001:000307A0
  4605 0001:000307AC  4607 0001:000307B2  4608 0001:000307B7  4611 0001:000307B8
  4612 0001:000307BE  4617 0001:000307E4  4618 0001:000307FD  4620 0001:00030817
  4623 0001:00030839  4624 0001:00030842  4631 0001:00030848  4632 0001:00030853
  4634 0001:0003085D  4635 0001:00030868  4636 0001:0003087E  4634 0001:0003089A
  4638 0001:0003089D  4640 0001:000308A6  4642 0001:000308D5  4645 0001:000308E9
  4646 0001:000308F6  4648 0001:00030904  4649 0001:00030913  4650 0001:0003091D
  4651 0001:0003092B  4653 0001:00030947  4655 0001:0003094F  4656 0001:0003096F
  4658 0001:00030981  4659 0001:00030990  4661 0001:0003099D  4662 0001:000309A6
  4665 0001:000309B0  4667 0001:000309B6  4668 0001:000309D8  4669 0001:000309E1
  4673 0001:000309E4  4674 0001:000309F8  4677 0001:000309FC  4678 0001:00030A02
  4680 0001:00030A0C  4681 0001:00030A13  4684 0001:00030A19  4687 0001:00030A25
  4688 0001:00030A2E  4695 0001:00030A34  4696 0001:00030A4C  4699 0001:00030A55
  4700 0001:00030A57  4702 0001:00030A66  4703 0001:00030A68  4704 0001:00030A6C
  4706 0001:00030A72  4707 0001:00030A74  4709 0001:00030A7E  4711 0001:00030A8F
  4712 0001:00030A93  4713 0001:00030AAD  4715 0001:00030AB9  4719 0001:00030ADC
  4720 0001:00030AEB  4721 0001:00030AF8  4724 0001:00030AFC  4725 0001:00030AFF
  4726 0001:00030B0B  4727 0001:00030B11  4728 0001:00030B16  4729 0001:00030B1D
  4730 0001:00030B31  4734 0001:00030B34  4735 0001:00030B39  4738 0001:00030B3C
  4739 0001:00030B42  4740 0001:00030B52  4745 0001:00030B58  4746 0001:00030B5C
  4747 0001:00030B61  4749 0001:00030B85  4751 0001:00030B88  4752 0001:00030B8F
  4753 0001:00030BA4  4755 0001:00030BAB  4758 0001:00030BB0  4761 0001:00030BB6
  4762 0001:00030BCF  4763 0001:00030BDD  4765 0001:00030C01  4766 0001:00030C0A
  4768 0001:00030C2C  4770 0001:00030C33  4776 0001:00030C38  4778 0001:00030C3E
  4781 0001:00030C4B  4782 0001:00030C65  4783 0001:00030C7F  4784 0001:00030C86
  4787 0001:00030C92  4789 0001:00030C9B  4790 0001:00030CB7  4793 0001:00030CC1
  4795 0001:00030CCA  4800 0001:00030CD0  4801 0001:00030CD6  4802 0001:00030CDF
  4804 0001:00030CE8  4805 0001:00030CF7  4806 0001:00030D00  4807 0001:00030D12
  4809 0001:00030D25  4814 0001:00030D28  4815 0001:00030D2F  4816 0001:00030D39
  4817 0001:00030D50  4820 0001:00030D54  4821 0001:00030D5A  4822 0001:00030D63
  4823 0001:00030D6C  4828 0001:00030D70  4829 0001:00030D76  4830 0001:00030D78
  4831 0001:00030D7C  4832 0001:00030D91  4833 0001:00030D95  4834 0001:00030DAA
  4837 0001:00030DB0  4838 0001:00030DB4  4839 0001:00030DB6  4840 0001:00030DC8
  4841 0001:00030DCC  4842 0001:00030DDE  4843 0001:00030DE0  4846 0001:00030DE8
  4847 0001:00030DEE  4849 0001:00030DF7  4850 0001:00030DFA  4853 0001:00030E04
  4854 0001:00030E07  4856 0001:00030E15  4864 0001:00030E1C  4865 0001:00030E3C
  4869 0001:00030E46  4871 0001:00030E4C  4873 0001:00030E52  4875 0001:00030E5E
  4874 0001:00030E61  4876 0001:00030E70  4877 0001:00030E78  4878 0001:00030E89
  4882 0001:00030EBA  4883 0001:00030EBE  4884 0001:00030ECE  4885 0001:00030ED4
  4886 0001:00030EE4  4889 0001:00030F13  4891 0001:00030F22  4892 0001:00030F34
  4896 0001:00030F48  4897 0001:00030F4E  4898 0001:00030F5D  4899 0001:00030F63
  4902 0001:00030F70  4905 0001:00030F94  4906 0001:00030F9D  4907 0001:00030FAC
  4909 0001:00030FB5  4911 0001:00030FB8  4912 0001:00030FC1  4914 0001:00030FCB
  4916 0001:00030FCE  4917 0001:00030FD7  4919 0001:00030FE1  4922 0001:00030FF6
  4923 0001:00031000  4929 0001:00031008  4930 0001:00031011  4931 0001:0003102A
  4932 0001:0003102E  4934 0001:00031034  4935 0001:00031041  4938 0001:00031097
  4940 0001:000310AA  4941 0001:000310CA  4942 0001:000310EA  4943 0001:000310FD
  4945 0001:00031110  4946 0001:0003111A  4951 0001:00031120  4952 0001:00031126
  4954 0001:0003112F  4957 0001:00031156  4958 0001:00031159  4960 0001:00031167
  4963 0001:0003116C  4964 0001:00031170  4965 0001:00031176  4966 0001:00031184
  4967 0001:0003118B  4970 0001:00031190  4971 0001:00031194  4972 0001:0003119A
  4973 0001:000311A8  4974 0001:000311AF  4977 0001:000311B4  4978 0001:000311BA
  4980 0001:000311C6  4982 0001:000311DB  4984 0001:000311E7  4985 0001:00031203
  4986 0001:0003120A  4990 0001:0003120D  4992 0001:00031217  4994 0001:00031238
  4996 0001:0003123F  4999 0001:00031242  5000 0001:0003124B  5010 0001:00031250
  5011 0001:0003126F  5012 0001:00031284  5013 0001:000312A5  5014 0001:000312AF
  5015 0001:000312B9  5016 0001:000312C7  5018 0001:000312D4  5020 0001:000312E4
  5021 0001:000312F2  5023 0001:0003130D  5025 0001:0003131F  5028 0001:0003134B
  5030 0001:00031357  5031 0001:00031373  5034 0001:00031391  5035 0001:000313AA
  5037 0001:000313C3  5038 0001:000313D1  5039 0001:000313DD  5040 0001:000313EB
  5041 0001:000313F7  5042 0001:00031414  5044 0001:0003142E  5046 0001:00031446
  5047 0001:0003144E  5048 0001:0003146F  5049 0001:00031475  5051 0001:00031479
  5052 0001:00031494  5055 0001:000314B1  5056 0001:000314CA  5058 0001:000314E3
  5059 0001:000314F1  5060 0001:000314FD  5061 0001:0003150B  5062 0001:00031517
  5063 0001:00031534  5065 0001:0003154E  5067 0001:00031556  5069 0001:00031562
  5070 0001:0003157E  5073 0001:0003159C  5074 0001:000315B5  5076 0001:000315CE
  5077 0001:000315D4  5078 0001:000315DA  5080 0001:000315F7  5081 0001:00031601
  5084 0001:00031611  5086 0001:0003161D  5087 0001:00031641  5091 0001:00031653
  5092 0001:00031673  5094 0001:0003169C  5096 0001:000316A4  5100 0001:000316C6
  5103 0001:000316EB  5104 0001:000316F9  5106 0001:00031714  5108 0001:00031726
  5109 0001:00031733  5110 0001:0003173D  5111 0001:00031749  5112 0001:00031759
  5113 0001:00031765  5117 0001:00031787  5118 0001:00031789  5119 0001:000317AE
  5120 0001:000317BD  5123 0001:000317C1  5124 0001:000317DE  5127 0001:000317E6
  5130 0001:000317F8  5131 0001:00031816  5133 0001:00031833  5135 0001:00031845
  5138 0001:0003186C  5139 0001:0003186F  5140 0001:00031887  5144 0001:0003188C
  5145 0001:00031891  5148 0001:00031894  5149 0001:00031897  5150 0001:0003189E
  5152 0001:000318C3  5153 0001:000318E0  5157 0001:000318E4  5158 0001:000318E9
  5163 0001:000318EC  5164 0001:000318F3  5165 0001:000318F9  5166 0001:000318FF
  5169 0001:0003190C  5170 0001:0003191B  5171 0001:00031929  5173 0001:00031941
  5176 0001:00031951  5179 0001:00031958  5180 0001:0003195F  5181 0001:00031970
  5183 0001:00031979  5184 0001:0003197E  5189 0001:00031984  5190 0001:00031989
  5191 0001:00031992  5193 0001:000319A1  5195 0001:000319AF  5196 0001:000319B8
  5197 0001:000319C1  5198 0001:000319C7  5200 0001:000319CD  5201 0001:000319D1
  5202 0001:000319DE  5203 0001:000319E4  5204 0001:000319FA  5205 0001:00031A09
  5206 0001:00031A1A  5208 0001:00031A21  5213 0001:00031A28  5214 0001:00031A2E
  5216 0001:00031A37  5217 0001:00031A3B  5218 0001:00031A4C  5217 0001:00031A62
  5220 0001:00031A65  5221 0001:00031A69  5222 0001:00031A83  5227 0001:00031A8C
  5228 0001:00031A98  5229 0001:00031AA6  5230 0001:00031AAA  5232 0001:00031AB9
  5233 0001:00031ABD  5235 0001:00031ACC  5236 0001:00031ADA  5237 0001:00031AE7
  5240 0001:00031AFE  5241 0001:00031B09  5243 0001:00031B1B  5345 0001:00031B24
  5346 0001:00031B2B  5349 0001:00031B2C  5350 0001:00031B2F  5351 0001:00031B38
  5352 0001:00031B3F  5355 0001:00031B44  5356 0001:00031B5A  5358 0001:00031B63
  5362 0001:00031B74  5363 0001:00031B85  5364 0001:00031BA6  5366 0001:00031BAD
  5369 0001:00031BD0  5370 0001:00031BD3  5371 0001:00031BD9  5372 0001:00031BE1
  5373 0001:00031BEC  5375 0001:00031BF5  5376 0001:00031BFC  5379 0001:00031C00
  5380 0001:00031C03  5381 0001:00031C19  5390 0001:00031C1C  5391 0001:00031C3A
  5392 0001:00031C3F  5394 0001:00031C6C  5395 0001:00031C8D  5396 0001:00031CA7
  5397 0001:00031CAC  5398 0001:00031CB6  5399 0001:00031CC4  5400 0001:00031CCE
  5402 0001:00031CE8  5403 0001:00031CF0  5405 0001:00031CF8  5406 0001:00031D00
  5407 0001:00031D08  5408 0001:00031D1F  5409 0001:00031D2A  5410 0001:00031D37
  5411 0001:00031D43  5412 0001:00031D4E  5413 0001:00031D58  5414 0001:00031D66
  5415 0001:00031D6E  5416 0001:00031D7C  5417 0001:00031D93  5419 0001:00031D9E
  5420 0001:00031DA8  5421 0001:00031DC5  5422 0001:00031DD9  5423 0001:00031DE6
  5424 0001:00031DE9  5425 0001:00031E00  5427 0001:00031E25  5430 0001:00031E42
  5431 0001:00031E4F  5432 0001:00031E5F  5433 0001:00031E6B  5434 0001:00031E73
  5436 0001:00031E81  5437 0001:00031E92  5438 0001:00031EA3  5439 0001:00031EAD
  5440 0001:00031EBC  5441 0001:00031EC4  5444 0001:00031EE6  5446 0001:00031EF8
  5456 0001:00031F20  5457 0001:00031F2A  5458 0001:00031F36  5460 0001:00031F48
  5461 0001:00031F54  5462 0001:00031F60  5463 0001:00031F67  5464 0001:00031F78
  5465 0001:00031F84  5458 0001:00031F85  5466 0001:00031F88  5468 0001:00031F90
  5469 0001:00031F98  5471 0001:00031FA7  5473 0001:00031FAE  5474 0001:00031FB8
  5475 0001:00031FCA  5476 0001:00031FDA  5474 0001:00031FE6  5478 0001:00031FE9
  5479 0001:00031FF2  5500 0001:00031FF8  5501 0001:00031FFE  5502 0001:0003200B
  5503 0001:00032011  5504 0001:00032016  5507 0001:00032018  5508 0001:0003201E
  5509 0001:00032027  5510 0001:0003202D  5511 0001:00032034  5516 0001:00032038
  5517 0001:0003203F  5519 0001:00032061  5525 0001:00032068  5526 0001:00032072
  5527 0001:0003207E  5529 0001:00032090  5530 0001:0003209C  5533 0001:000320D3
  5534 0001:000320D5  5536 0001:000320D7  5527 0001:000320D8  5537 0001:000320DB
  5538 0001:000320DD  5540 0001:000320E4  5541 0001:000320EE  5543 0001:000320FD
  5545 0001:00032128  5546 0001:00032132  5551 0001:00032138  5552 0001:0003213F
  5554 0001:00032161  5560 0001:00032168  5561 0001:00032172  5562 0001:0003217E
  5564 0001:00032190  5565 0001:0003219C  5568 0001:000321D3  5569 0001:000321D5
  5571 0001:000321D7  5562 0001:000321D8  5572 0001:000321DB  5573 0001:000321DD
  5575 0001:000321E4  5576 0001:000321EE  5578 0001:000321FD  5580 0001:00032228
  5581 0001:00032232  5589 0001:00032238  5590 0001:00032244  5592 0001:00032248
  5594 0001:0003225A  5595 0001:00032266  5597 0001:00032277  5599 0001:00032288
  5600 0001:0003228C  5605 0001:0003228E  5606 0001:0003229D  5609 0001:000322A3
  5592 0001:000322A4  5610 0001:000322A7  5612 0001:000322B4  5613 0001:000322C2
  5614 0001:000322C6  5615 0001:000322E2  5617 0001:00032320  5620 0001:0003232C
  5622 0001:0003233B  5623 0001:00032355  5625 0001:0003235F  5626 0001:00032361
  5629 0001:00032368  5632 0001:0003236F  5633 0001:00032379  5635 0001:00032391
  5637 0001:0003239A  5641 0001:000323A0  5642 0001:000323AC  5643 0001:000323AE
  5651 0001:000323B0  5652 0001:000323B4  5655 0001:000323DA  5656 0001:000323EB
  5658 0001:000323FD  5659 0001:00032405  5660 0001:0003241B  5665 0001:00032457
  5666 0001:0003246D  5669 0001:00032483  5673 0001:00032488  5675 0001:00032490
  5676 0001:00032496  5678 0001:0003249B  5682 0001:0003249C  5684 0001:000324A4
  5685 0001:000324AA  5687 0001:000324AF  5691 0001:000324B0  5693 0001:000324B8
  5694 0001:000324BE  5696 0001:000324C3  5700 0001:000324C4  5702 0001:000324CC
  5703 0001:000324D2  5705 0001:000324D7  5709 0001:000324D8  5710 0001:000324E7
  5711 0001:000324F9  5712 0001:00032500  5736 0001:00032504  5738 0001:00032510
  5739 0001:00032521  5740 0001:00032530  5742 0001:00032538  5743 0001:0003253D
  5747 0001:00032540  5749 0001:0003254C  5750 0001:00032560  5751 0001:0003256F
  5753 0001:00032577  5754 0001:0003257C  5794 0001:00032580  5795 0001:00032597
  5796 0001:000325A5  5797 0001:000325AE  5798 0001:000325B7  5799 0001:000325C0
  5800 0001:000325C9  5806 0001:000325E8  5807 0001:0003260B  5812 0001:00032615
  5813 0001:0003262A  5815 0001:0003264A  5816 0001:0003265F  5818 0001:00032671
  5819 0001:0003267C  5820 0001:0003267E  5815 0001:0003267F  5822 0001:00032682
  5824 0001:0003268C  5825 0001:00032699  5826 0001:000326A3  5827 0001:000326A9
  5828 0001:000326B2  5831 0001:000326D8  5832 0001:000326DB  5833 0001:000326E2
  5834 0001:000326F4  5839 0001:000326F8  5841 0001:00032701  5842 0001:00032712
  5841 0001:00032732  5843 0001:00032735  5844 0001:0003273C  5848 0001:00032744
  5849 0001:00032757  5850 0001:00032766  5853 0001:00032770  5854 0001:00032776
  5855 0001:0003277F  5856 0001:0003278B  5857 0001:00032792  5860 0001:00032798
  5861 0001:0003279E  5867 0001:000327CF  5868 0001:000327E8  5870 0001:00032802
  5873 0001:00032821  5874 0001:0003282A  5877 0001:00032830  5878 0001:0003283A
  5879 0001:00032843  5881 0001:00032849  5882 0001:0003285B  5883 0001:00032866
  5885 0001:0003287F  5891 0001:00032888  5892 0001:000328A2  5893 0001:000328AB
  5894 0001:000328C0  5897 0001:000328D0  5898 0001:000328E5  5900 0001:00032905
  5901 0001:0003291A  5903 0001:0003292C  5904 0001:00032937  5905 0001:00032939
  5900 0001:0003293A  5906 0001:0003293D  5909 0001:00032947  5912 0001:0003296C
  5913 0001:0003296F  5914 0001:00032976  5915 0001:00032980  5920 0001:00032984
  5921 0001:00032989  5922 0001:00032990  5923 0001:00032996  5924 0001:000329A7
  5923 0001:000329BA  5925 0001:000329BD  5930 0001:000329C4  5931 0001:000329CA
  5932 0001:000329D6  5935 0001:000329DC  5936 0001:000329E2  5937 0001:000329EB
  5938 0001:000329F3  5941 0001:000329F8  5942 0001:000329FE  5943 0001:00032A0B
  5946 0001:00032A10  5947 0001:00032A16  5948 0001:00032A1F  5949 0001:00032A26
  5954 0001:00032A2C  5955 0001:00032A34  5956 0001:00032A3B  5957 0001:00032A49
  5958 0001:00032A53  5963 0001:00032A5C  5964 0001:00032A64  5965 0001:00032A6B
  5966 0001:00032A79  5967 0001:00032A83  5972 0001:00032A8C  5973 0001:00032A8F
  5974 0001:00032A96  5975 0001:00032AA4  5976 0001:00032AAC  6005 0001:00032AB0
  6006 0001:00032AC7  6007 0001:00032AD0  6008 0001:00032ADE  6009 0001:00032AEC
  6010 0001:00032AF3  6011 0001:00032AFD  6012 0001:00032B0C  6013 0001:00032B1B
  6014 0001:00032B2A  6015 0001:00032B39  6016 0001:00032B48  6017 0001:00032B51
  6018 0001:00032B5C  6019 0001:00032B64  6020 0001:00032B7B  6021 0001:00032B8D
  6022 0001:00032B9F  6023 0001:00032BB1  6024 0001:00032BB8  6025 0001:00032BC8
  6026 0001:00032BD8  6027 0001:00032BE8  6032 0001:00032C08  6033 0001:00032C15
  6034 0001:00032C20  6035 0001:00032C2B  6036 0001:00032C36  6037 0001:00032C3E
  6038 0001:00032C46  6039 0001:00032C4E  6040 0001:00032C56  6041 0001:00032C5E
  6042 0001:00032C66  6043 0001:00032C6D  6044 0001:00032C78  6043 0001:00032C88
  6045 0001:00032C8B  6046 0001:00032C93  6047 0001:00032C9A  6048 0001:00032CA6
  6049 0001:00032CB2  6050 0001:00032CBE  6054 0001:00032CD0  6055 0001:00032CDB
  6059 0001:00032CDC  6060 0001:00032CE7  6064 0001:00032CE8  6065 0001:00032CF3
  6069 0001:00032CF4  6070 0001:00032CFF  6074 0001:00032D00  6075 0001:00032D0B
  6079 0001:00032D0C  6080 0001:00032D17  6083 0001:00032D18  6084 0001:00032D1E
  6085 0001:00032D28  6089 0001:00032D2C  6090 0001:00032D36  6092 0001:00032D42
  6093 0001:00032D44  6096 0001:00032D48  6097 0001:00032D4E  6098 0001:00032D58
  6102 0001:00032D5C  6103 0001:00032D62  6106 0001:00032D64  6107 0001:00032D6A
  6108 0001:00032D74  6112 0001:00032D78  6113 0001:00032D7E  6116 0001:00032D80
  6117 0001:00032D83  6119 0001:00032D8B  6120 0001:00032D8E  6122 0001:00032DA6
  6124 0001:00032DAE  6125 0001:00032DB1  6127 0001:00032DC9  6130 0001:00032DCC
  6131 0001:00032DD2  6132 0001:00032DDC  6134 0001:00032DED  6135 0001:00032DF7
  6137 0001:00032E01  6140 0001:00032E04  6141 0001:00032E0A  6142 0001:00032E14
  6143 0001:00032E1E  6144 0001:00032E28  6145 0001:00032E3F  6146 0001:00032E4F
  6150 0001:00032E54  6151 0001:00032E5C  6155 0001:00032E60  6156 0001:00032E68
  6205 0001:00032E6C  6206 0001:00032E72  6207 0001:00032E81  6209 0001:00032E8B
  6216 0001:00032E9A  6217 0001:00032EA2  6218 0001:00032EA4  6220 0001:00032EB8
  6207 0001:00032EBC  6221 0001:00032EC1  6227 0001:00032EC8  6228 0001:00032ECE
  6229 0001:00032ED1  6231 0001:00032ED5  6233 0001:00032EEB  6234 0001:00032EF4
  6235 0001:00032EF6  6236 0001:00032F02  6229 0001:00032F04  6238 0001:00032F08
  6239 0001:00032F14  6240 0001:00032F1B  6241 0001:00032F21  6278 0001:00032F28
  6279 0001:00032F31  6280 0001:00032F3B  6281 0001:00032F40  6282 0001:00032F43
  6283 0001:00032F46  6284 0001:00032F49  6296 0001:00032F50  6297 0001:00032F73
  6299 0001:00032F80  6301 0001:00032F92  6302 0001:00032F9D  6304 0001:00032FAB
  6306 0001:00032FC1  6308 0001:00032FD3  6311 0001:0003301B  6312 0001:00033029
  6313 0001:00033030  6316 0001:00033051  6317 0001:0003307D  6318 0001:0003308A
  6321 0001:000330AD  6324 0001:000330BE  6304 0001:000330C2  6325 0001:000330CB
  6326 0001:000330D5  6328 0001:000330DC  6329 0001:000330E2  6332 0001:00033150
  6333 0001:00033156  6334 0001:0003315D  6335 0001:00033167  6338 0001:0003316C
  6339 0001:00033172  6340 0001:00033180  6342 0001:0003319F  6343 0001:000331AB
  6345 0001:000331B7  6348 0001:000331BC  6349 0001:000331C2  6350 0001:000331CC
  6354 0001:000331D0  6355 0001:000331D6  6361 0001:000331D8  6362 0001:000331DA
  6364 0001:000331DF  6365 0001:000331E4  6366 0001:000331EF  6368 0001:000331FB
  6375 0001:00033200  6376 0001:0003320B  6378 0001:00033211  6379 0001:00033215
  6383 0001:0003321A  6384 0001:00033220  6385 0001:0003322F  6388 0001:00033246
  6389 0001:0003326B  6390 0001:0003327D  6393 0001:0003327F  6395 0001:0003328F
  6396 0001:00033292  6432 0001:0003329C  6433 0001:000332A8  6434 0001:000332AC
  6435 0001:000332C4  6436 0001:000332D2  6437 0001:000332E7  6438 0001:000332FA
  6440 0001:00033312  6441 0001:00033326  6442 0001:00033330  6444 0001:00033346
  6445 0001:0003335F  6448 0001:0003337A  6449 0001:0003338A  6451 0001:0003339E
  6452 0001:000333AE  6454 0001:000333CB  6456 0001:000333EA  6460 0001:000333F0
  6461 0001:000333F7  6465 0001:000333F8  6466 0001:000333FF  6467 0001:00033417
  6471 0001:00033418  6472 0001:0003341F  6479 0001:00033420  6480 0001:00033427
  6481 0001:00033429  6482 0001:0003343B  6483 0001:00033452  6484 0001:0003346F
  6485 0001:00033486  6487 0001:000334A1  6492 0001:000334A8  6495 0001:000334B6
  6496 0001:000334C7  6497 0001:000334D5  6498 0001:000334D8  6499 0001:000334ED
  6500 0001:000334FC  6501 0001:00033502  6503 0001:00033511  6504 0001:0003351B
  6505 0001:00033525  6509 0001:00033534  6510 0001:0003353F  6512 0001:0003354B
  6513 0001:00033561  6516 0001:0003356F  6517 0001:0003357B  6519 0001:00033589
  6522 0001:00033593  6523 0001:0003359C  6527 0001:000335A8  6528 0001:000335BD
  6530 0001:000335C6  6531 0001:000335C9  6534 0001:000335CF  6536 0001:000335DE
  6537 0001:00033606  6538 0001:00033617  6539 0001:00033628  6540 0001:00033634
  6543 0001:00033641  6544 0001:0003364C  6547 0001:0003365B  6553 0001:00033664
  6554 0001:00033670  6555 0001:0003367B  6559 0001:000336C6  6560 0001:000336D7
  6562 0001:000336F5  6563 0001:00033705  6567 0001:00033729  6568 0001:00033731
  6570 0001:00033735  6569 0001:00033736  6571 0001:0003375F  6573 0001:0003376E
  6560 0001:00033771  6574 0001:00033774  6575 0001:0003378A  6574 0001:000337A9
  6576 0001:000337AC  6581 0001:000337B4  6582 0001:000337B9  6583 0001:000337BB
  6584 0001:000337CE  6585 0001:000337DB  6586 0001:000337FC  6583 0001:000337FD
  6587 0001:00033802  6588 0001:00033804  6590 0001:0003380C  6591 0001:0003381B
  6593 0001:00033826  6594 0001:00033835  6595 0001:00033843  6596 0001:0003384C
  6597 0001:00033855  6598 0001:0003385E  6599 0001:00033867  6601 0001:0003387D
  6604 0001:0003388D  6609 0001:00033894  6610 0001:000338A0  6611 0001:000338AD
  6614 0001:000338BA  6615 0001:000338C2  6616 0001:000338D0  6617 0001:000338DF
  6619 0001:000338F9  6620 0001:00033904  6623 0001:00033914  6649 0001:0003391C
  6650 0001:00033924  6655 0001:00033928  6656 0001:0003392E  6657 0001:00033932
  6658 0001:0003393B  6661 0001:00033940  6662 0001:0003394D  6656 0001:00033950
  6664 0001:00033954  6665 0001:0003395B  6669 0001:00033960  6670 0001:00033962
  6671 0001:00033972  6672 0001:0003397E  6675 0001:00033980  6676 0001:00033986
  6677 0001:0003398F  6678 0001:0003399D  6680 0001:000339B6  6682 0001:000339CB
  6693 0001:000339D4  6694 0001:000339E0  6697 0001:000339EC  6699 0001:000339F9
  6700 0001:00033A02  6701 0001:00033A0E  6695 0001:00033A15  6704 0001:00033A29
  6711 0001:00033A30  6712 0001:00033A3C  6713 0001:00033A4F  6714 0001:00033A68
  6719 0001:00033A74  6720 0001:00033A75  6722 0001:00033A83  6723 0001:00033A8C
  6724 0001:00033AA6  6725 0001:00033AAF  6726 0001:00033AC1  6727 0001:00033ACA
  6729 0001:00033AE5  6733 0001:00033AE8  6734 0001:00033AFC  6735 0001:00033B03
  6737 0001:00033B0C  6738 0001:00033B17  6739 0001:00033B24  6740 0001:00033B31
  6741 0001:00033B3C  6743 0001:00033B43  6748 0001:00033B44  6749 0001:00033B47
  6750 0001:00033B4E  6751 0001:00033B62  6752 0001:00033B6D  6753 0001:00033B6F
  6758 0001:00033B74  6759 0001:00033B77  6760 0001:00033B7E  6761 0001:00033B87
  6762 0001:00033B97  6767 0001:00033B9C  6768 0001:00033BA3  6769 0001:00033BAA
  6770 0001:00033BB5  6771 0001:00033BBC  6772 0001:00033BC7  6834 0001:00033BCC
  6835 0001:00033BD1  6836 0001:00033BDF  6835 0001:00033BEF  6837 0001:00033BF2
  6838 0001:00033BFF  6842 0001:00033C04  6843 0001:00033C09  6844 0001:00033C25
  6849 0001:00033C28  6850 0001:00033C2E  6851 0001:00033C30  6853 0001:00033C41
  6855 0001:00033C53  6856 0001:00033C5E  6858 0001:00033C60  6851 0001:00033C61
  6861 0001:00033C64  6862 0001:00033C6B  6864 0001:00033C7C  6866 0001:00033C8E
  6867 0001:00033C99  6869 0001:00033C9B  6862 0001:00033C9C  6870 0001:00033C9F
  6891 0001:00033CB8  6892 0001:00033CD4  6893 0001:00033CDD  6894 0001:00033CE9
  6895 0001:00033CF7  6896 0001:00033D03  6897 0001:00033D11  6898 0001:00033D15
  6899 0001:00033D27  6900 0001:00033D39  6901 0001:00033D4B  6902 0001:00033D50
  6903 0001:00033D58  6904 0001:00033D5F  6905 0001:00033D66  6906 0001:00033D6A
  6907 0001:00033D72  6908 0001:00033D79  6909 0001:00033D80  6910 0001:00033D87
  6911 0001:00033D8E  6913 0001:00033DA2  6915 0001:00033DBD  6916 0001:00033DCD
  6917 0001:00033DE6  6918 0001:00033DF9  6919 0001:00033E06  6920 0001:00033E18
  6921 0001:00033E25  6922 0001:00033E2C  6923 0001:00033E3E  6924 0001:00033E54
  6925 0001:00033E5B  6926 0001:00033E6C  6927 0001:00033E7D  6928 0001:00033E81
  6929 0001:00033E85  6930 0001:00033E89  6931 0001:00033E90  6932 0001:00033E98
  6933 0001:00033E9F  6934 0001:00033EA6  6942 0001:00033ED4  6943 0001:00033EE2
  6944 0001:00033EE9  6945 0001:00033EF4  6946 0001:00033F00  6947 0001:00033F0C
  6948 0001:00033F18  6949 0001:00033F25  6950 0001:00033F31  6951 0001:00033F3B
  6952 0001:00033F41  6953 0001:00033F48  6954 0001:00033F4F  6955 0001:00033F58
  6956 0001:00033F64  6957 0001:00033F6E  6958 0001:00033F73  6959 0001:00033F80
  6961 0001:00033F90  6962 0001:00033FAA  6964 0001:00033FB3  6969 0001:00033FC1
  6971 0001:00033FCD  6972 0001:00033FD8  6973 0001:00033FE3  6974 0001:00033FEE
  6975 0001:00033FF9  6981 0001:0003400C  6982 0001:00034028  6994 0001:00034043
  6996 0001:00034051  6997 0001:0003405B  6999 0001:00034074  7000 0001:0003407E
  7001 0001:0003408D  7003 0001:000340AE  7009 0001:00034103  7010 0001:0003410E
  7011 0001:00034115  7012 0001:00034124  7014 0001:0003412E  7015 0001:00034146
  7017 0001:00034159  7018 0001:00034166  7019 0001:00034173  7020 0001:00034180
  7022 0001:00034197  7025 0001:000341BC  7026 0001:000341C3  7027 0001:000341CD
  7028 0001:000341D7  7029 0001:000341E5  7031 0001:000341EC  7032 0001:000341F3
  7034 0001:000341FA  7035 0001:00034208  7036 0001:00034212  7037 0001:00034219
  7047 0001:0003421C  7048 0001:00034225  7049 0001:00034228  7050 0001:0003423B
  7053 0001:00034267  7056 0001:0003427B  7057 0001:00034280  7059 0001:00034282
  7065 0001:0003428C  7066 0001:00034293  7068 0001:000342A2  7070 0001:000342AF
  7071 0001:000342B5  7072 0001:000342B9  7073 0001:000342C6  7075 0001:000342D2
  7076 0001:000342E3  7077 0001:000342EF  7078 0001:000342F6  7079 0001:00034305
  7080 0001:0003432A  7078 0001:0003432B  7083 0001:00034330  7085 0001:00034336
  7088 0001:0003433C  7089 0001:0003433D  7090 0001:00034343  7091 0001:00034356
  7092 0001:00034366  7095 0001:00034368  7096 0001:00034369  7097 0001:0003436F
  7098 0001:00034382  7099 0001:00034392  7103 0001:00034394  7104 0001:0003439B
  7108 0001:0003439C  7109 0001:000343A3  7114 0001:000343A4  7115 0001:000343AB
  7116 0001:000343BF  7118 0001:000343CE  7119 0001:000343DA  7120 0001:000343E7
  7121 0001:000343E9  7115 0001:000343EA  7122 0001:000343ED  7127 0001:000343F4
  7128 0001:000343F8  7130 0001:0003440C  7131 0001:00034412  7133 0001:0003441B
  7134 0001:0003442A  7135 0001:0003444C  7133 0001:0003444D  7136 0001:00034452
  7139 0001:0003445D  7145 0001:00034460  7146 0001:00034466  7147 0001:00034469
  7148 0001:00034476  7149 0001:00034484  7151 0001:00034490  7152 0001:00034495
  7153 0001:000344B5  7154 0001:000344C7  7159 0001:000344D0  7160 0001:000344D7
  7162 0001:000344E6  7164 0001:000344EA  7166 0001:000344F3  7167 0001:000344FF
  7168 0001:0003450C  7169 0001:00034514  7168 0001:0003452F  7171 0001:00034534
  7172 0001:0003453C  7174 0001:00034545  7175 0001:0003454B  7177 0001:00034554
  7178 0001:00034561  7179 0001:00034569  7178 0001:00034584  7180 0001:00034589
  7184 0001:00034594  7193 0001:00034598  7194 0001:000345AF  7198 0001:000345B0
  7199 0001:000345C7  7208 0001:000345C8  7209 0001:000345CF  7210 0001:000345D1
  7213 0001:000345E0  7215 0001:000345E6  7216 0001:000345F0  7218 0001:000345F5
  7219 0001:000345FB  7221 0001:00034605  7223 0001:0003460F  7226 0001:00034619
  7229 0001:00034620  7230 0001:00034639  7231 0001:00034643  7233 0001:00034667
  7246 0001:0003468C  7247 0001:0003468F  7249 0001:000346C4  7255 0001:000346C8
  7258 0001:000346CF  7259 0001:000346E4  7260 0001:000346FA  7262 0001:0003470D
  7264 0001:00034714  7265 0001:00034723  7266 0001:00034731  7267 0001:00034739
  7268 0001:0003474D  7267 0001:00034779  7269 0001:0003477C  7271 0001:00034787
  7273 0001:000348DA  7274 0001:000348F5  7275 0001:00034902  7277 0001:0003490F
  7280 0001:0003491B  7282 0001:00034933  7285 0001:0003495B  7286 0001:00034964
  7289 0001:00034970  7292 0001:00034983  7293 0001:00034998  7297 0001:000349A4
  7298 0001:000349AB  7299 0001:000349BE  7301 0001:000349C7  7302 0001:000349CF
  7306 0001:000349E9  7307 0001:000349F1  7311 0001:00034A0B  7313 0001:00034A14
  7315 0001:00034A1D  7316 0001:00034A25  7318 0001:00034A32  7319 0001:00034A37
  7322 0001:00034A42  7325 0001:00034A4E  7326 0001:00034A55  7327 0001:00034A6A
  7328 0001:00034A7E  7331 0001:00034A8B  7333 0001:00034AB7  7335 0001:00034AC4
  7336 0001:00034AC9  7339 0001:00034AD3  7341 0001:00034AE2  7343 0001:00034B04
  7346 0001:00034B10  7348 0001:00034B2A  7350 0001:00034B2E  7351 0001:00034B36
  7352 0001:00034B4E  7353 0001:00034B56  7358 0001:00034B6E  7359 0001:00034B79
  7363 0001:00034B89  7365 0001:00034B96  7367 0001:00034BB7  7369 0001:00034BD9
  7370 0001:00034BE7  7371 0001:00034BE9  7374 0001:00034C22  7375 0001:00034C29
  7376 0001:00034C30  7377 0001:00034C3D  7378 0001:00034C56  7379 0001:00034C5C
  7380 0001:00034C63  7383 0001:00034C72  7385 0001:00034C9A  7387 0001:00034CC2
  7389 0001:00034CE7  7390 0001:00034CEE  7393 0001:00034D01  7395 0001:00034D1B
  7396 0001:00034D24  7397 0001:00034D3C  7399 0001:00034D54  7400 0001:00034D5D
  7402 0001:00034D6E  7405 0001:00034D7F  7406 0001:00034D91  7407 0001:00034D9C
  7411 0001:00034DA5  7412 0001:00034DAF  7415 0001:00034DB8  7417 0001:00034DC4
  7419 0001:00034DCD  7422 0001:00034DE3  7424 0001:00034DF3  7428 0001:00034E28
  7429 0001:00034E33  7430 0001:00034E43  7433 0001:00034E44  7434 0001:00034E47
  7436 0001:00034E58  7437 0001:00034E5F  7438 0001:00034E68  7439 0001:00034E71
  7443 0001:00034E98  7444 0001:00034EC7  7446 0001:00034EDE  7447 0001:00034EEB
  7449 0001:00034F03  7452 0001:00034F08  7453 0001:00034F0C  7455 0001:00034F1D
  7456 0001:00034F26  7458 0001:00034F4D  7459 0001:00034F64  7460 0001:00034F71
  7462 0001:00034FA8  7465 0001:00034FBE  7466 0001:00034FC5  7468 0001:00034FCD
  7469 0001:00034FD4  7470 0001:00034FDD  7471 0001:00034FE9  7472 0001:00034FF6
  7474 0001:0003500E  7479 0001:00035014  7480 0001:00035018  7482 0001:0003501F
  7483 0001:00035027  7485 0001:00035044  7487 0001:0003504A  7492 0001:00035050
  7493 0001:0003505C  7494 0001:00035065  7496 0001:00035085  7497 0001:00035092
  7542 0001:0003509C  7543 0001:000350A2  7544 0001:000350A4  7545 0001:000350AD
  7546 0001:000350B9  7548 0001:000350CE  7549 0001:000350E1  7552 0001:000350E4
  7553 0001:000350EB  7554 0001:000350ED  7556 0001:0003511B  7557 0001:0003512E
  7563 0001:00035134  7564 0001:0003513F  7566 0001:00035141  7568 0001:0003515A
  7569 0001:00035161  7571 0001:00035165  7572 0001:00035167  7573 0001:00035176
  7580 0001:0003517F  7579 0001:00035187  7581 0001:00035196  7583 0001:0003519C
  7585 0001:000351A6  7586 0001:000351C1  7587 0001:000351C5  7588 0001:000351E0
  7592 0001:000351E4  7593 0001:000351EB  7594 0001:000351F9  7595 0001:00035202
  7596 0001:0003521D  7599 0001:0003521F  7602 0001:00035228  7603 0001:00035230
  7604 0001:00035232  7605 0001:0003524C  7606 0001:00035253  7609 0001:0003525C
  7610 0001:00035265  7611 0001:00035269  7612 0001:00035283  7614 0001:000352BC
  7619 0001:000352C8  7620 0001:000352D0  7623 0001:000352DF  7624 0001:000352F1
  7627 0001:0003530F  7628 0001:0003531C  7631 0001:00035330  7632 0001:0003533F
  7634 0001:0003534E  7635 0001:00035350  7623 0001:00035351  7638 0001:00035356
  7640 0001:0003535D  7647 0001:00035364  7648 0001:0003536D  7649 0001:0003536F
  7651 0001:00035385  7652 0001:0003539E  7653 0001:000353A4  7655 0001:000353BA
  7656 0001:000353CE  7657 0001:000353D6  7658 0001:000353D8  7660 0001:000353E2
  7661 0001:000353E7  7662 0001:00035403  7666 0001:0003544B  7667 0001:00035451
  7668 0001:00035457  7670 0001:0003545F  7674 0001:00035467  7676 0001:0003546E
  7688 0001:00035478  7689 0001:0003547E  7690 0001:00035494  7695 0001:0003549C
  7696 0001:000354A2  7698 0001:000354AB  7699 0001:000354B2  7702 0001:000354C5
  7703 0001:000354D0  7704 0001:000354DA  7705 0001:000354E5  7707 0001:000354F2
  7713 0001:000354F8  7714 0001:00035500  7716 0001:00035509  7717 0001:00035510
  7719 0001:00035523  7721 0001:00035534  7722 0001:00035541  7725 0001:00035550
  7726 0001:0003555A  7727 0001:00035567  7729 0001:00035569  7719 0001:0003556A
  7730 0001:0003556D  7733 0001:00035574  7734 0001:00035575  7735 0001:00035589
  7740 0001:0003558C  7741 0001:0003559A  7742 0001:000355A1  7743 0001:000355A6
  7744 0001:000355B4  7746 0001:000355CF  7747 0001:000355D6  7749 0001:000355E0
  7751 0001:000355F7  7752 0001:00035600  7754 0001:00035603  7757 0001:0003560C
  7758 0001:00035616  7759 0001:00035620  7760 0001:0003562E  7761 0001:00035638
  7763 0001:00035646  7764 0001:00035658  7765 0001:00035661  7767 0001:00035668
  7768 0001:00035671  7769 0001:00035680  7770 0001:0003568A  7772 0001:00035691
  7773 0001:0003569F  7775 0001:000356B6  7777 0001:000356C6  7780 0001:000356DF
  7782 0001:000356F1  7786 0001:000356F8  7787 0001:00035708  7792 0001:0003570C
  7793 0001:00035716  7795 0001:0003571F  7794 0001:00035728  7796 0001:00035759
  7797 0001:0003575E  7800 0001:00035768  7801 0001:0003576E  7802 0001:00035788
  7804 0001:0003579C  7805 0001:000357B0  7806 0001:000357BA  7808 0001:000357D1
  7810 0001:000357E2  7811 0001:000357F3  7821 0001:000357F8  7822 0001:0003580C
  7823 0001:00035817  7824 0001:0003581D  7826 0001:00035825  7827 0001:00035828
  7828 0001:0003583A  7829 0001:0003584F  7831 0001:00035857  7832 0001:0003585E
  7833 0001:0003586F  7834 0001:0003587F  7839 0001:000358B7  7840 0001:000358C2
  7841 0001:000358CA  7842 0001:000358DC  7843 0001:000358EA  7845 0001:00035906
  7846 0001:0003590E  7850 0001:00035946  7851 0001:0003594E  7852 0001:00035957
  7854 0001:00035967  7859 0001:00035974  7860 0001:0003599C  7861 0001:000359A7
  7862 0001:000359E1  7863 0001:00035A0E  7870 0001:00035A4C  7871 0001:00035A5A
  7872 0001:00035A5C  7873 0001:00035A61  7875 0001:00035A75  7877 0001:00035A79
  7878 0001:00035A81  7879 0001:00035A87  7880 0001:00035A8C  7882 0001:00035AAC
  7885 0001:00035AB1  7887 0001:00035ABC  7889 0001:00035AD4  7890 0001:00035ADF
  7891 0001:00035AEA  7894 0001:00035B06  7896 0001:00035B0C  7897 0001:00035B13
  7898 0001:00035B23  7901 0001:00035B47  7902 0001:00035B50  7904 0001:00035B66
  7909 0001:00035B70  7910 0001:00035B82  7911 0001:00035B84  7912 0001:00035B8A
  7915 0001:00035B8C  7917 0001:00035B98  7918 0001:00035BA1  7919 0001:00035BAF
  7922 0001:00035BC8  7925 0001:00035BCC  7927 0001:00035BDC  7928 0001:00035BDE
  7929 0001:00035BEC  7932 0001:00035C05  7933 0001:00035C16  7935 0001:00035C32
  7940 0001:00035C3C  7941 0001:00035C5C  7942 0001:00035C76  7944 0001:00035C7C
  7947 0001:00035C87  7948 0001:00035C89  7951 0001:00035CA2  7953 0001:00035CA4
  7958 0001:00035CCC  7959 0001:00035CEC  7960 0001:00035CFF  7962 0001:00035D05
  7965 0001:00035D10  7966 0001:00035D12  7969 0001:00035D2B  7971 0001:00035D2D
  7975 0001:00035D54  7976 0001:00035D59  8009 0001:00035D5C  8010 0001:00035D60
  8012 0001:00035D68  8013 0001:00035D70  8015 0001:00035D74  8016 0001:00035D88
  8020 0001:00035D94  8021 0001:00035D9F  8024 0001:00035DA7  8039 0001:00035DAC
  8040 0001:00035DAF  8041 0001:00035DC3  8042 0001:00035DD1  8044 0001:00035DFE
  8040 0001:00035E09  8045 0001:00035E0C  8050 0001:00035E10  8051 0001:00035E16
  8052 0001:00035E1C  8053 0001:00035E25  8054 0001:00035E2A  8055 0001:00035E2D
  8061 0001:00035E34  8062 0001:00035E3A  8063 0001:00035E43  8064 0001:00035E51
  8065 0001:00035E5E  8066 0001:00035E65  8068 0001:00035E7E  8070 0001:00035E93
  8076 0001:00035E9C  8077 0001:00035EBE  8078 0001:00035EC8  8079 0001:00035EDD
  8080 0001:00035EE5  8081 0001:00035F07  8082 0001:00035F0B  8083 0001:00035F19
  8084 0001:00035F3B  8085 0001:00035F41  8086 0001:00035F4E  8088 0001:00035F58
  8090 0001:00035F61  8091 0001:00035F75  8092 0001:00035F7E  8095 0001:00035F95
  8098 0001:00035FA5  8103 0001:00035FBF  8104 0001:00035FC3  8105 0001:00035FCE
  8121 0001:00035FF8  8122 0001:00035FFD  8123 0001:0003602D  8126 0001:00036034
  8127 0001:00036037  8129 0001:00036041  8130 0001:00036059  8133 0001:0003606E
  8134 0001:00036088  8135 0001:00036093  8138 0001:00036098  8139 0001:000360A2
  8141 0001:000360AE  8142 0001:000360B8  8143 0001:000360C2  8146 0001:000360D2
  8148 0001:000360E3  8149 0001:000360ED  8150 0001:000360FB  8152 0001:00036114
  8156 0001:00036124  8168 0001:0003612C  8170 0001:00036132  8172 0001:00036157
  8173 0001:0003617C  8175 0001:00036182  8180 0001:00036188  8181 0001:00036192
  8183 0001:0003619B  8185 0001:000361AF  8186 0001:000361BD  8189 0001:000361EF
  8190 0001:000361F8  8192 0001:000361FA  8183 0001:000361FB  8193 0001:000361FE
  8195 0001:00036207  8198 0001:00036210  8200 0001:00036213  8202 0001:00036219
  8204 0001:00036226  8205 0001:0003622D  8210 0001:00036230  8211 0001:00036239
  8212 0001:00036240  8213 0001:00036256  8214 0001:0003625C  8215 0001:0003626D
  8218 0001:00036274  8219 0001:00036277  8221 0001:00036283  8222 0001:0003628E
  8224 0001:00036297  8232 0001:0003629C  8233 0001:000362A9  8234 0001:000362E3
  8235 0001:000362F0  8238 0001:000362FC  8241 0001:00036349  8242 0001:0003634D
  8243 0001:00036351  8244 0001:0003635C  8245 0001:00036362  8247 0001:00036374
  8249 0001:0003637E  8250 0001:00036381  8251 0001:00036384  8252 0001:0003638E
  8256 0001:0003639B  8257 0001:000363A2  8258 0001:000363A5  8259 0001:000363A8
  8263 0001:000363B4  8268 0001:000363BC  8269 0001:000363C2  8270 0001:000363C9
  8272 0001:000363D6  8275 0001:000363DF  8276 0001:000363E5  8279 0001:000363EE
  8282 0001:000363F4  8283 0001:000363F8  8285 0001:0003640D  8286 0001:00036422
  8288 0001:00036434  8290 0001:00036447  8295 0001:00036456  8298 0001:00036462
  8301 0001:00036468  8302 0001:0003646B  8304 0001:00036471  8305 0001:00036478
  8306 0001:0003647D  8307 0001:00036481  8308 0001:00036486  8310 0001:0003648D
  8333 0001:00036490  8334 0001:00036491  8335 0001:00036493  8336 0001:00036495
  8337 0001:00036497  8338 0001:00036498  8339 0001:0003649A  8340 0001:0003649C
  8341 0001:0003649E  8343 0001:000364A0  8345 0001:000364A9  8346 0001:000364B7
  8347 0001:000364CE  8348 0001:000364DC  8349 0001:000364EA  8350 0001:000364F8
  8351 0001:00036506  8352 0001:0003650C  8358 0001:0003652A  8359 0001:00036549
  8360 0001:0003654F  8363 0001:00036554  8366 0001:00036565  8367 0001:00036577
  8369 0001:00036587  8371 0001:00036593  8374 0001:000365A6  8377 0001:000365C9
  8378 0001:000365D6  8380 0001:000365EB  8383 0001:000365F8  8384 0001:000365FF
  8385 0001:00036609  8387 0001:00036627  8388 0001:00036638  8390 0001:00036651
  8397 0001:00036658  8398 0001:00036674  8399 0001:00036679  8400 0001:0003667B
  8403 0001:00036681  8405 0001:00036685  8404 0001:0003668E  8406 0001:0003669D
  8407 0001:000366AB  8408 0001:000366C7  8409 0001:000366CC  8410 0001:000366CF
  8411 0001:000366D5  8401 0001:000366DB  8413 0001:000366E0  8415 0001:00036708
  8416 0001:0003674B  8417 0001:00036751  8418 0001:00036756  8421 0001:00036798
  8422 0001:000367A0  8423 0001:000367AC  8424 0001:000367B4  8425 0001:000367C1
  8426 0001:000367C9  8427 0001:000367E0  8428 0001:000367ED  8429 0001:000367F2
  8430 0001:000367F7  8431 0001:00036803  8432 0001:0003680F  8434 0001:0003682E
  8435 0001:0003683E  8437 0001:00036855  8438 0001:0003687A  8439 0001:000368A9
  8440 0001:000368B1  8441 0001:000368B9  8442 0001:000368BE  8443 0001:000368D9
  8444 0001:000368EB  8445 0001:00036903  8446 0001:0003691C  8448 0001:00036932
  8450 0001:0003693C  8452 0001:00036952  8454 0001:00036970  8455 0001:00036981
  8458 0001:00036996  8459 0001:000369A3  8460 0001:000369A6  8466 0001:000369A9
  8467 0001:000369D0  8470 0001:000369F7  8471 0001:00036A07  8472 0001:00036A21
  8473 0001:00036A26  8474 0001:00036A2D  8476 0001:00036A3A  8477 0001:00036A46
  8480 0001:00036A48  8481 0001:00036A4F  8483 0001:00036A5C  8484 0001:00036A63
  8489 0001:00036AA0  8490 0001:00036AA9  8493 0001:00036AAD  8495 0001:00036ABC
  8496 0001:00036AC8  8497 0001:00036ACD  8499 0001:00036AD9  8491 0001:00036ADA
  8501 0001:00036AE9  8502 0001:00036AF2  8503 0001:00036AF8  8505 0001:00036B07
  8506 0001:00036B14  8508 0001:00036B31  8509 0001:00036B40  8510 0001:00036B4A
  8511 0001:00036B5E  8516 0001:00036B68  8517 0001:00036B6F  8518 0001:00036B77
  8519 0001:00036B84  8521 0001:00036B93  8522 0001:00036B9D  8540 0001:00036BA4
  8541 0001:00036BA8  8542 0001:00036BAD  8543 0001:00036BB7  8544 0001:00036BC5
  8545 0001:00036BCB  8546 0001:00036BD3  8547 0001:00036BD9  8548 0001:00036BE5
  8551 0001:00036BEC  8552 0001:00036BF0  8553 0001:00036BF5  8554 0001:00036BFF
  8555 0001:00036C0D  8556 0001:00036C19  8557 0001:00036C24  8562 0001:00036C2C
  8563 0001:00036C3A  8564 0001:00036C42  8568 0001:00036C7D  8571 0001:00036CA7
  8572 0001:00036CB6  8575 0001:00036CC4  8576 0001:00036CC6  8577 0001:00036CCA
  8578 0001:00036CE4  8581 0001:00036CEC  8582 0001:00036CEE  8583 0001:00036CF2
  8584 0001:00036D0C  8591 0001:00036D14  8592 0001:00036D15  8593 0001:00036D21
  8594 0001:00036D25  8595 0001:00036D35  8599 0001:00036D60  8600 0001:00036D6F
  8604 0001:00036D70  8605 0001:00036D7F  8609 0001:00036D80  8610 0001:00036D8C
  8616 0001:00036D90  8617 0001:00036D98  8618 0001:00036D9A  8619 0001:00036DA1
  8621 0001:00036DA5  8622 0001:00036DA7  8623 0001:00036DB6  8626 0001:00036DBA
  8627 0001:00036DC3  8629 0001:00036DC7  8630 0001:00036DCF  8631 0001:00036DD3
  8627 0001:00036DDC  8636 0001:00036DE0  8637 0001:00036DE4  8639 0001:00036DF3
  8648 0001:00036E0C  8649 0001:00036E2E  8650 0001:00036E33  8651 0001:00036E3C
  8652 0001:00036E47  8654 0001:00036E51

Line numbers for Forms(Forms.pas) segment .itext

  8641 0002:00000548  8642 0002:0000055B  8643 0002:00000560  8644 0002:0000056F
  8645 0002:00000579  8647 0002:00000580

Line numbers for Controls(Controls.pas) segment .text

  2041 0001:00039378  2042 0001:00039380  2043 0001:0003938E  2045 0001:0003939B
  2046 0001:000393B2  2048 0001:000393D3  2051 0001:000393E4  2052 0001:000393FB
  2054 0001:0003941C  2056 0001:0003942B  2057 0001:00039442  2065 0001:00039459
  2066 0001:0003945C  2067 0001:0003945F  2068 0001:00039462  2069 0001:00039465
  2070 0001:0003946A  2071 0001:00039474  2072 0001:0003947A  2075 0001:0003947D
  2080 0001:00039488  2081 0001:0003948C  2083 0001:000394A1  2085 0001:000394B4
  2086 0001:000394B6  2097 0001:000394BC  2098 0001:000394C1  2099 0001:000394C3
  2102 0001:000394DC  2103 0001:000394F5  2105 0001:00039507  2107 0001:00039510
  2110 0001:00039518  2111 0001:0003951B  2112 0001:00039527  2113 0001:00039535
  2114 0001:00039543  2119 0001:00039548  2120 0001:0003954A  2121 0001:00039559
  2122 0001:0003956A  2123 0001:0003956C  2179 0001:0003970C  2180 0001:00039718
  2184 0001:0003971C  2185 0001:00039728  2190 0001:0003972C  2191 0001:00039733
  2192 0001:00039741  2193 0001:00039745  2194 0001:00039750  2195 0001:00039760
  2200 0001:00039770  2201 0001:00039777  2202 0001:00039785  2203 0001:00039789
  2204 0001:00039794  2205 0001:000397A4  2210 0001:000397B4  2211 0001:000397BD
  2212 0001:000397C4  2213 0001:000397DC  2214 0001:000397EE  2215 0001:00039800
  2224 0001:00039808  2225 0001:00039812  2226 0001:0003982A  2227 0001:0003982F
  2230 0001:00039830  2231 0001:00039833  2232 0001:00039838  2233 0001:0003983F
  2235 0001:00039843  2237 0001:00039854  2238 0001:0003985A  2239 0001:00039860
  2241 0001:00039863  2243 0001:00039870  2268 0001:000398DC  2269 0001:000398E6
  2270 0001:000398EA  2273 0001:000398EE  2274 0001:000398FD  2275 0001:00039901
  2271 0001:00039903  2277 0001:0003990A  2284 0001:00039914  2285 0001:00039919
  2286 0001:00039926  2287 0001:00039928  2289 0001:0003992C  2290 0001:0003992E
  2287 0001:00039936  2292 0001:0003993A  2298 0001:00039940  2299 0001:0003994E
  2300 0001:0003995A  2301 0001:0003995F  2302 0001:0003996B  2306 0001:0003997B
  2307 0001:00039987  2312 0001:000399A0  2314 0001:000399A3  2317 0001:000399B1
  2318 0001:000399BA  2323 0001:000399C4  2324 0001:000399C9  2325 0001:000399D4
  2324 0001:000399E8  2326 0001:000399EB  2327 0001:000399F2  2333 0001:000399F8
  2334 0001:000399FE  2335 0001:00039A00  2336 0001:00039A07  2338 0001:00039A17
  2339 0001:00039A1C  2342 0001:00039A26  2343 0001:00039A35  2345 0001:00039A42
  2340 0001:00039A4C  2348 0001:00039A54  2381 0001:00039A5C  2382 0001:00039A62
  2383 0001:00039A68  2384 0001:00039A74  2385 0001:00039A80  2386 0001:00039A8C
  2387 0001:00039A98  2390 0001:00039A9C  2395 0001:00039A9D  2397 0001:00039AAA
  2398 0001:00039AB0  2401 0001:00039AB4  2402 0001:00039AB7  2405 0001:00039ABC
  2406 0001:00039AC8  2407 0001:00039ADA  2410 0001:00039AE4  2411 0001:00039AE7
  2416 0001:00039AEC  2418 0001:00039AF3  2423 0001:00039AF8  2424 0001:00039B04
  2425 0001:00039B12  2428 0001:00039B46  2429 0001:00039B66  2430 0001:00039B75
  2433 0001:00039B7F  2435 0001:00039B88  2437 0001:00039B91  2438 0001:00039B9A
  2440 0001:00039BA3  2444 0001:00039BAC  2447 0001:00039BC1  2449 0001:00039BD0
  2453 0001:00039BDF  2454 0001:00039BE6  2460 0001:00039BFC  2461 0001:00039C0C
  2463 0001:00039C20  2467 0001:00039C28  2468 0001:00039C2A  2471 0001:00039C2C
  2472 0001:00039C2F  2473 0001:00039C39  2474 0001:00039C3D  2479 0001:00039C44
  2483 0001:00039C48  2484 0001:00039C4D  2489 0001:00039C50  2492 0001:00039C54
  2493 0001:00039C5E  2494 0001:00039C6C  2496 0001:00039C83  2498 0001:00039C97
  2505 0001:00039CA0  2506 0001:00039CA5  2507 0001:00039CAC  2511 0001:00039CB0
  2512 0001:00039CB5  2513 0001:00039CBC  2526 0001:00039CC0  2527 0001:00039CCC
  2528 0001:00039CCF  2531 0001:00039CE4  2532 0001:00039CEA  2533 0001:00039CF3
  2534 0001:00039D04  2535 0001:00039D0A  2538 0001:00039D10  2539 0001:00039D17
  2540 0001:00039D1E  2541 0001:00039D2D  2544 0001:00039D34  2545 0001:00039D3E
  2547 0001:00039D44  2548 0001:00039D50  2550 0001:00039D52  2551 0001:00039D5F
  2556 0001:00039D68  2557 0001:00039D6B  2558 0001:00039D78  2559 0001:00039D7C
  2563 0001:00039D80  2564 0001:00039D88  2567 0001:00039D8C  2568 0001:00039D8F
  2569 0001:00039D9B  2570 0001:00039DA8  2573 0001:00039DAC  2574 0001:00039DAF
  2575 0001:00039DBB  2576 0001:00039DC8  2584 0001:00039DCC  2589 0001:00039DD0
  2590 0001:00039DE7  2591 0001:00039DF0  2592 0001:00039DF4  2594 0001:00039E05
  2601 0001:00039E1A  2604 0001:00039E38  2605 0001:00039E43  2606 0001:00039E4B
  2607 0001:00039E57  2610 0001:00039E68  2611 0001:00039E6F  2612 0001:00039E78
  2614 0001:00039E89  2615 0001:00039E92  2616 0001:00039E98  2617 0001:00039E9F
  2618 0001:00039EAB  2619 0001:00039EB7  2621 0001:00039EC2  2629 0001:00039EC8
  2630 0001:00039ECE  2631 0001:00039EDE  2638 0001:00039EE4  2639 0001:00039EEA
  2640 0001:00039F03  2641 0001:00039F05  2643 0001:00039F08  2645 0001:00039F19
  2646 0001:00039F29  2647 0001:00039F3D  2648 0001:00039F3F  2649 0001:00039F50
  2650 0001:00039F62  2651 0001:00039F64  2652 0001:00039F6C  2653 0001:00039F7B
  2656 0001:00039F84  2657 0001:00039F85  2658 0001:00039F93  2661 0001:00039F98
  2662 0001:00039F99  2663 0001:00039FA7  2666 0001:00039FAC  2667 0001:00039FAF
  2668 0001:00039FB1  2672 0001:00039FB8  2673 0001:00039FBA  2677 0001:00039FBC
  2678 0001:00039FC1  2686 0001:00039FC4  2702 0001:00039FC8  2703 0001:00039FD7
  2704 0001:00039FDE  2707 0001:00039FE2  2709 0001:00039FE8  2710 0001:00039FF2
  2711 0001:0003A005  2713 0001:0003A008  2715 0001:0003A00F  2716 0001:0003A011
  2718 0001:0003A017  2720 0001:0003A01B  2721 0001:0003A01E  2724 0001:0003A025
  2726 0001:0003A028  2742 0001:0003A034  2743 0001:0003A03F  2745 0001:0003A043
  2746 0001:0003A053  2748 0001:0003A068  2749 0001:0003A072  2750 0001:0003A07C
  2751 0001:0003A085  2753 0001:0003A08F  2756 0001:0003A099  2757 0001:0003A09D
  2758 0001:0003A0A6  2759 0001:0003A0B2  2762 0001:0003A0BB  2764 0001:0003A0C8
  2765 0001:0003A0CF  2766 0001:0003A0D8  2768 0001:0003A0E4  2769 0001:0003A0F9
  2771 0001:0003A109  2773 0001:0003A10E  2774 0001:0003A112  2775 0001:0003A121
  2777 0001:0003A135  2779 0001:0003A13F  2780 0001:0003A14C  2782 0001:0003A16C
  2786 0001:0003A1A9  2787 0001:0003A1BE  2789 0001:0003A1C2  2792 0001:0003A1D0
  2793 0001:0003A1D3  2794 0001:0003A1E8  2796 0001:0003A20D  2797 0001:0003A20F
  2799 0001:0003A214  2800 0001:0003A227  2801 0001:0003A22C  2804 0001:0003A25B
  2805 0001:0003A265  2807 0001:0003A279  2808 0001:0003A288  2812 0001:0003A2E0
  2813 0001:0003A2E4  2814 0001:0003A2FE  2815 0001:0003A317  2817 0001:0003A324
  2805 0001:0003A325  2818 0001:0003A32C  2819 0001:0003A337  2820 0001:0003A344
  2821 0001:0003A358  2822 0001:0003A35D  2827 0001:0003A368  2828 0001:0003A36E
  2830 0001:0003A372  2831 0001:0003A38C  2832 0001:0003A398  2834 0001:0003A39C
  2838 0001:0003A3AD  2841 0001:0003A3BE  2849 0001:0003A3C4  2850 0001:0003A3CE
  2851 0001:0003A3D0  2853 0001:0003A3D4  2854 0001:0003A3E2  2855 0001:0003A3E8
  2856 0001:0003A3EE  2857 0001:0003A3FB  2859 0001:0003A410  2866 0001:0003A41C
  2867 0001:0003A421  2868 0001:0003A423  2871 0001:0003A43C  2872 0001:0003A455
  2874 0001:0003A46A  2876 0001:0003A476  2879 0001:0003A47C  2880 0001:0003A47D
  2881 0001:0003A489  2882 0001:0003A48D  2881 0001:0003A4A0  2884 0001:0003A4A4
  2888 0001:0003A4A8  2889 0001:0003A4B1  2891 0001:0003A4B5  2892 0001:0003A4BE
  2895 0001:0003A4D4  2896 0001:0003A4E0  2897 0001:0003A4E4  2899 0001:0003A4ED
  2902 0001:0003A4F8  2903 0001:0003A4FC  2904 0001:0003A4FE  2905 0001:0003A50B
  2907 0001:0003A530  2916 0001:0003A534  2917 0001:0003A53B  2918 0001:0003A540
  2919 0001:0003A548  2924 0001:0003A58B  2927 0001:0003A59E  2928 0001:0003A5AD
  2930 0001:0003A5B2  2931 0001:0003A5BE  2934 0001:0003A5C0  2925 0001:0003A5C3
  2936 0001:0003A5CB  2943 0001:0003A5D4  2944 0001:0003A5DC  2947 0001:0003A612
  2948 0001:0003A631  2949 0001:0003A643  2950 0001:0003A660  2952 0001:0003A66E
  2953 0001:0003A675  2957 0001:0003A67C  2958 0001:0003A688  2960 0001:0003A68F
  2962 0001:0003A699  2963 0001:0003A6A0  2964 0001:0003A6AD  2965 0001:0003A6B5
  2966 0001:0003A6C0  2967 0001:0003A6D0  2968 0001:0003A6D7  2970 0001:0003A6E4
  2971 0001:0003A6F4  2972 0001:0003A6FF  2973 0001:0003A725  2975 0001:0003A740
  2977 0001:0003A749  2980 0001:0003A75E  2981 0001:0003A76A  2982 0001:0003A775
  2983 0001:0003A78E  2987 0001:0003A79F  2988 0001:0003A7A9  2991 0001:0003A7BE
  2992 0001:0003A7D3  2996 0001:0003A7E0  2997 0001:0003A7E4  3000 0001:0003A7FE
  3001 0001:0003A80D  3002 0001:0003A811  3005 0001:0003A835  3008 0001:0003A85A
  3010 0001:0003A863  3012 0001:0003A87D  3013 0001:0003A89C  3014 0001:0003A8A6
  3018 0001:0003A8B5  3021 0001:0003A8BC  3022 0001:0003A8C8  3023 0001:0003A8CE
  3024 0001:0003A8D8  3025 0001:0003A8E2  3026 0001:0003A8F9  3027 0001:0003A903
  3028 0001:0003A912  3029 0001:0003A918  3031 0001:0003A92D  3033 0001:0003A932
  3034 0001:0003A93D  3035 0001:0003A95D  3036 0001:0003A965  3037 0001:0003A971
  3038 0001:0003A994  3039 0001:0003A99C  3041 0001:0003A9A0  3042 0001:0003A9A7
  3044 0001:0003A9B0  3048 0001:0003A9B9  3049 0001:0003A9C6  3051 0001:0003A9CD
  3052 0001:0003A9DC  3053 0001:0003A9E5  3054 0001:0003AA02  3055 0001:0003AA13
  3056 0001:0003AA26  3062 0001:0003AA2C  3063 0001:0003AA3C  3064 0001:0003AA42
  3065 0001:0003AA50  3066 0001:0003AA55  3067 0001:0003AA5C  3069 0001:0003AA65
  3070 0001:0003AA73  3071 0001:0003AA89  3073 0001:0003AA93  3074 0001:0003AAA4
  3079 0001:0003AAB0  3080 0001:0003AABE  3081 0001:0003AAD4  3083 0001:0003AADA
  3084 0001:0003AAEB  3088 0001:0003AAF2  3089 0001:0003AB09  3092 0001:0003AB22
  3094 0001:0003AB3F  3095 0001:0003AB48  3098 0001:0003AB59  3099 0001:0003AB81
  3102 0001:0003ABAD  3105 0001:0003ABBA  3107 0001:0003ABD6  3108 0001:0003ABDD
  3110 0001:0003ABE7  3115 0001:0003ABF0  3116 0001:0003ABF5  3118 0001:0003AC01
  3119 0001:0003AC13  3120 0001:0003AC2F  3121 0001:0003AC33  3122 0001:0003AC42
  3123 0001:0003AC5C  3132 0001:0003AC64  3133 0001:0003AC6E  3134 0001:0003AC70
  3135 0001:0003AC74  3136 0001:0003AC90  3137 0001:0003AC9E  3138 0001:0003ACA8
  3139 0001:0003ACB6  3140 0001:0003ACBF  3141 0001:0003ACCB  3142 0001:0003ACDB
  3144 0001:0003ACE4  3145 0001:0003ACF6  3146 0001:0003ACFD  3148 0001:0003AD07
  3150 0001:0003AD29  3152 0001:0003AD3C  3153 0001:0003AD4D  3157 0001:0003AD8A
  3159 0001:0003AD93  3161 0001:0003AD9F  3162 0001:0003ADA9  3164 0001:0003ADB8
  3165 0001:0003ADBF  3170 0001:0003ADD8  3171 0001:0003ADE1  3173 0001:0003ADED
  3175 0001:0003ADF8  3176 0001:0003ADFF  3177 0001:0003AE06  3179 0001:0003AE22
  3180 0001:0003AE24  3182 0001:0003AE2A  3183 0001:0003AE2C  3184 0001:0003AE37
  3185 0001:0003AE42  3186 0001:0003AE47  3188 0001:0003AE4C  3189 0001:0003AE55
  3191 0001:0003AE63  3193 0001:0003AE99  3194 0001:0003AEA2  3198 0001:0003AEBF
  3199 0001:0003AEC9  3200 0001:0003AED0  3202 0001:0003AED9  3203 0001:0003AEE2
  3205 0001:0003AEFF  3208 0001:0003AF1B  3209 0001:0003AF22  3211 0001:0003AF67
  3212 0001:0003AF71  3214 0001:0003AF80  3218 0001:0003AF88  3219 0001:0003AF98
  3220 0001:0003AF9F  3225 0001:0003AFA0  3226 0001:0003AFA2  3227 0001:0003AFAE
  3228 0001:0003AFB0  3230 0001:0003AFB4  3231 0001:0003AFBD  3232 0001:0003AFC1
  3228 0001:0003AFC9  3234 0001:0003AFCD  3240 0001:0003AFD4  3241 0001:0003AFDF
  3242 0001:0003AFE1  3243 0001:0003AFEA  3245 0001:0003AFEE  3246 0001:0003AFF0
  3247 0001:0003B00E  3249 0001:0003B014  3254 0001:0003B020  3255 0001:0003B026
  3256 0001:0003B039  3257 0001:0003B042  3260 0001:0003B048  3261 0001:0003B04B
  3262 0001:0003B052  3264 0001:0003B05A  3265 0001:0003B061  3267 0001:0003B065
  3274 0001:0003B068  3275 0001:0003B074  3276 0001:0003B07B  3277 0001:0003B091
  3293 0001:0003B098  3294 0001:0003B09E  3295 0001:0003B0AB  3296 0001:0003B0B9
  3297 0001:0003B0CF  3298 0001:0003B0DD  3299 0001:0003B0E9  3300 0001:0003B0F7
  3301 0001:0003B0FF  3303 0001:0003B118  3304 0001:0003B128  3296 0001:0003B12B
  3306 0001:0003B13D  3308 0001:0003B14F  3313 0001:0003B154  3314 0001:0003B15A
  3315 0001:0003B167  3316 0001:0003B175  3317 0001:0003B184  3318 0001:0003B192
  3319 0001:0003B19E  3320 0001:0003B1AC  3322 0001:0003B1C1  3323 0001:0003B1D1
  3316 0001:0003B1D4  3325 0001:0003B1E7  3327 0001:0003B1F9  3330 0001:0003B200
  3331 0001:0003B20B  3332 0001:0003B212  3333 0001:0003B21E  3336 0001:0003B22C
  3337 0001:0003B234  3339 0001:0003B24A  3341 0001:0003B253  3342 0001:0003B25F
  3343 0001:0003B26D  3344 0001:0003B278  3345 0001:0003B28F  3347 0001:0003B2A6
  3350 0001:0003B2B8  3351 0001:0003B2C6  3353 0001:0003B2CE  3356 0001:0003B2D4
  3357 0001:0003B2D7  3359 0001:0003B2DD  3360 0001:0003B2E6  3361 0001:0003B2F2
  3362 0001:0003B2FF  3364 0001:0003B304  3367 0001:0003B308  3368 0001:0003B30E
  3370 0001:0003B313  3371 0001:0003B31A  3373 0001:0003B31D  3376 0001:0003B320
  3377 0001:0003B324  3378 0001:0003B32B  3379 0001:0003B336  3381 0001:0003B33F
  3382 0001:0003B346  3387 0001:0003B34C  3388 0001:0003B361  3389 0001:0003B36A
  3390 0001:0003B36D  3393 0001:0003B388  3394 0001:0003B38E  3397 0001:0003B39F
  3398 0001:0003B3A7  3399 0001:0003B3AD  3400 0001:0003B3B3  3401 0001:0003B3B9
  3403 0001:0003B3C1  3404 0001:0003B3CA  3408 0001:0003B3D0  3409 0001:0003B3D3
  3411 0001:0003B3E2  3413 0001:0003B3E7  3414 0001:0003B3EA  3415 0001:0003B3F3
  3416 0001:0003B3F6  3419 0001:0003B3FF  3421 0001:0003B404  3422 0001:0003B407
  3423 0001:0003B410  3424 0001:0003B413  3427 0001:0003B41C  3429 0001:0003B421
  3430 0001:0003B424  3431 0001:0003B42F  3432 0001:0003B432  3435 0001:0003B43B
  3437 0001:0003B440  3438 0001:0003B443  3439 0001:0003B44E  3440 0001:0003B451
  3443 0001:0003B458  3446 0001:0003B45C  3447 0001:0003B45D  3448 0001:0003B46E
  3453 0001:0003B470  3454 0001:0003B476  3455 0001:0003B486  3458 0001:0003B48C
  3459 0001:0003B4AF  3460 0001:0003B4B3  3462 0001:0003B4C5  3465 0001:0003B4F1
  3466 0001:0003B4F6  3469 0001:0003B53B  3472 0001:0003B57C  3473 0001:0003B592
  3475 0001:0003B5CD  3478 0001:0003B5F0  3479 0001:0003B5F3  3480 0001:0003B601
  3483 0001:0003B604  3484 0001:0003B607  3486 0001:0003B635  3489 0001:0003B638
  3490 0001:0003B63B  3491 0001:0003B649  3494 0001:0003B64C  3495 0001:0003B64F
  3497 0001:0003B681  3500 0001:0003B684  3501 0001:0003B688  3503 0001:0003B6C1
  3506 0001:0003B6C4  3507 0001:0003B6C7  3509 0001:0003B6F5  3512 0001:0003B6F8
  3513 0001:0003B6FB  3515 0001:0003B71D  3518 0001:0003B720  3519 0001:0003B726
  3520 0001:0003B73B  3524 0001:0003B740  3527 0001:0003B744  3528 0001:0003B74A
  3529 0001:0003B75F  3533 0001:0003B764  3536 0001:0003B768  3537 0001:0003B76E
  3538 0001:0003B788  3541 0001:0003B78C  3542 0001:0003B792  3543 0001:0003B7A7
  3546 0001:0003B7AC  3547 0001:0003B7B2  3548 0001:0003B7D2  3551 0001:0003B7D8
  3552 0001:0003B7DD  3556 0001:0003B839  3559 0001:0003B840  3560 0001:0003B846
  3561 0001:0003B85B  3564 0001:0003B860  3565 0001:0003B866  3566 0001:0003B87B
  3569 0001:0003B880  3570 0001:0003B886  3571 0001:0003B89A  3574 0001:0003B8A0
  3575 0001:0003B8A6  3576 0001:0003B8BE  3581 0001:0003B8C4  3582 0001:0003B8DB
  3583 0001:0003B8E4  3584 0001:0003B8EF  3585 0001:0003B8F7  3586 0001:0003B908
  3587 0001:0003B912  3588 0001:0003B91C  3589 0001:0003B92F  3590 0001:0003B939
  3591 0001:0003B94C  3592 0001:0003B956  3593 0001:0003B95D  3594 0001:0003B961
  3595 0001:0003B965  3596 0001:0003B969  3597 0001:0003B96D  3598 0001:0003B974
  3599 0001:0003B978  3600 0001:0003B97C  3601 0001:0003B982  3602 0001:0003B98D
  3603 0001:0003B994  3606 0001:0003B9BC  3607 0001:0003B9CB  3608 0001:0003B9D9
  3610 0001:0003B9E9  3611 0001:0003B9F0  3612 0001:0003BA03  3613 0001:0003BA0C
  3614 0001:0003BA25  3616 0001:0003BA2F  3617 0001:0003BA38  3618 0001:0003BA40
  3619 0001:0003BA45  3620 0001:0003BA4D  3621 0001:0003BA55  3622 0001:0003BA5D
  3623 0001:0003BA65  3624 0001:0003BA71  3628 0001:0003BA84  3629 0001:0003BA86
  3633 0001:0003BA88  3634 0001:0003BA8C  3638 0001:0003BA90  3639 0001:0003BA92
  3643 0001:0003BA94  3644 0001:0003BA9B  3648 0001:0003BA9C  3649 0001:0003BA9F
  3652 0001:0003BAA0  3653 0001:0003BAA6  3654 0001:0003BABC  3655 0001:0003BAC5
  3662 0001:0003BAC8  3663 0001:0003BAD4  3664 0001:0003BAD6  3665 0001:0003BADC
  3666 0001:0003BAE9  3668 0001:0003BAED  3669 0001:0003BAFA  3670 0001:0003BB0E
  3671 0001:0003BB22  3672 0001:0003BB2B  3673 0001:0003BB36  3675 0001:0003BB38
  3679 0001:0003BB44  3680 0001:0003BB4B  3681 0001:0003BB4F  3682 0001:0003BB51
  3688 0001:0003BB54  3689 0001:0003BB5C  3691 0001:0003BB69  3692 0001:0003BB6D
  3693 0001:0003BB74  3694 0001:0003BB7A  3697 0001:0003BBBD  3699 0001:0003BBE3
  3701 0001:0003BBEA  3704 0001:0003BBF4  3705 0001:0003BBFB  3707 0001:0003BBFF
  3708 0001:0003BC07  3709 0001:0003BC0C  3713 0001:0003BC15  3714 0001:0003BC1C
  3715 0001:0003BC22  3716 0001:0003BC37  3717 0001:0003BC41  3718 0001:0003BC4E
  3719 0001:0003BC62  3721 0001:0003BC6B  3724 0001:0003BC70  3725 0001:0003BC73
  3726 0001:0003BC84  3729 0001:0003BC88  3730 0001:0003BC8B  3732 0001:0003BC9E
  3733 0001:0003BCA2  3735 0001:0003BCAA  3736 0001:0003BCB0  3738 0001:0003BCBB
  3742 0001:0003BCC0  3743 0001:0003BCC3  3747 0001:0003BCC4  3748 0001:0003BCD1
  3751 0001:0003BCD4  3752 0001:0003BCD5  3753 0001:0003BCEF  3756 0001:0003BCF4
  3757 0001:0003BCFB  3758 0001:0003BD00  3759 0001:0003BD1D  3760 0001:0003BD26
  3761 0001:0003BD2B  3763 0001:0003BD31  3764 0001:0003BD41  3765 0001:0003BD51
  3766 0001:0003BD61  3767 0001:0003BD71  3769 0001:0003BD81  3773 0001:0003BD88
  3774 0001:0003BD91  3775 0001:0003BD9C  3777 0001:0003BDA1  3778 0001:0003BDA9
  3779 0001:0003BDB4  3780 0001:0003BDBF  3781 0001:0003BDCA  3782 0001:0003BDD2
  3784 0001:0003BDDA  3789 0001:0003BDE0  3790 0001:0003BDE8  3792 0001:0003BDF4
  3793 0001:0003BDF7  3794 0001:0003BDFA  3795 0001:0003BE0B  3797 0001:0003BE38
  3799 0001:0003BE67  3800 0001:0003BE81  3801 0001:0003BE8B  3803 0001:0003BEB1
  3805 0001:0003BEBC  3806 0001:0003BEC3  3809 0001:0003BEC8  3810 0001:0003BED4
  3814 0001:0003BEFF  3815 0001:0003BF0C  3816 0001:0003BF0F  3817 0001:0003BF12
  3818 0001:0003BF18  3819 0001:0003BF1E  3820 0001:0003BF25  3821 0001:0003BF2C
  3822 0001:0003BF36  3823 0001:0003BF46  3824 0001:0003BF4D  3826 0001:0003BF5E
  3831 0001:0003BF68  3832 0001:0003BF70  3834 0001:0003BF87  3835 0001:0003BF8B
  3838 0001:0003BFF2  3840 0001:0003BFFD  3841 0001:0003C005  3842 0001:0003C00D
  3844 0001:0003C012  3845 0001:0003C017  3846 0001:0003C01C  3847 0001:0003C031
  3849 0001:0003C043  3850 0001:0003C06B  3851 0001:0003C070  3852 0001:0003C075
  3853 0001:0003C08A  3855 0001:0003C09F  3856 0001:0003C0CA  3857 0001:0003C0D1
  3859 0001:0003C0E1  3862 0001:0003C0EC  3863 0001:0003C0F0  3864 0001:0003C105
  3865 0001:0003C10C  3866 0001:0003C112  3867 0001:0003C11B  3870 0001:0003C120
  3871 0001:0003C124  3872 0001:0003C13B  3873 0001:0003C142  3874 0001:0003C148
  3875 0001:0003C151  3878 0001:0003C154  3879 0001:0003C158  3880 0001:0003C16D
  3881 0001:0003C174  3882 0001:0003C17A  3883 0001:0003C183  3886 0001:0003C188
  3887 0001:0003C18C  3888 0001:0003C1A1  3889 0001:0003C1A8  3890 0001:0003C1AE
  3891 0001:0003C1B7  3896 0001:0003C1BC  3897 0001:0003C1D2  3899 0001:0003C1DD
  3901 0001:0003C1F3  3902 0001:0003C201  3904 0001:0003C212  3906 0001:0003C224
  3908 0001:0003C232  3909 0001:0003C23B  3910 0001:0003C249  3911 0001:0003C24E
  3912 0001:0003C25F  3914 0001:0003C26C  3915 0001:0003C26F  3917 0001:0003C274
  3918 0001:0003C27D  3920 0001:0003C281  3921 0001:0003C292  3925 0001:0003C2A5
  3926 0001:0003C2B0  3929 0001:0003C2D2  3931 0001:0003C2E3  3934 0001:0003C2EC
  3936 0001:0003C2F5  3937 0001:0003C313  3938 0001:0003C318  3939 0001:0003C323
  3940 0001:0003C32C  3941 0001:0003C33E  3945 0001:0003C344  3946 0001:0003C351
  3947 0001:0003C357  3950 0001:0003C358  3951 0001:0003C35E  3952 0001:0003C36B
  3953 0001:0003C378  3962 0001:0003C37C  3963 0001:0003C381  3964 0001:0003C387
  3965 0001:0003C390  3966 0001:0003C399  3969 0001:0003C39C  3970 0001:0003C39F
  3971 0001:0003C3BC  3975 0001:0003C3C0  3976 0001:0003C3C4  3977 0001:0003C3C9
  3978 0001:0003C3CF  3979 0001:0003C3D5  3982 0001:0003C3D8  3983 0001:0003C3DE
  3984 0001:0003C3EB  3987 0001:0003C3F0  3988 0001:0003C3F9  3989 0001:0003C414
  3992 0001:0003C41C  3993 0001:0003C422  3994 0001:0003C42F  3997 0001:0003C434
  3998 0001:0003C43D  3999 0001:0003C456  4002 0001:0003C45C  4003 0001:0003C47B
  4004 0001:0003C481  4005 0001:0003C4B2  4006 0001:0003C4BC  4007 0001:0003C4C1
  4008 0001:0003C4C7  4013 0001:0003C4EC  4014 0001:0003C4F8  4015 0001:0003C501
  4016 0001:0003C508  4017 0001:0003C512  4020 0001:0003C518  4021 0001:0003C520
  4023 0001:0003C523  4024 0001:0003C52A  4025 0001:0003C540  4026 0001:0003C547
  4027 0001:0003C55D  4028 0001:0003C564  4029 0001:0003C57A  4030 0001:0003C581
  4032 0001:0003C594  4037 0001:0003C59C  4038 0001:0003C5A8  4039 0001:0003C5B1
  4040 0001:0003C5B8  4041 0001:0003C5C2  4046 0001:0003C5C8  4047 0001:0003C5CC
  4048 0001:0003C5CE  4050 0001:0003C5D2  4051 0001:0003C5E3  4052 0001:0003C5EC
  4048 0001:0003C5EF  4054 0001:0003C5F3  4059 0001:0003C5F8  4060 0001:0003C608
  4065 0001:0003C632  4066 0001:0003C635  4067 0001:0003C63B  4069 0001:0003C641
  4071 0001:0003C653  4075 0001:0003C664  4076 0001:0003C671  4082 0001:0003C674
  4083 0001:0003C682  4085 0001:0003C68B  4086 0001:0003C691  4087 0001:0003C69A
  4088 0001:0003C6A1  4089 0001:0003C6A6  4090 0001:0003C6B8  4091 0001:0003C6BB
  4092 0001:0003C6C0  4093 0001:0003C6D4  4094 0001:0003C6DB  4095 0001:0003C6E6
  4096 0001:0003C6EB  4097 0001:0003C704  4098 0001:0003C718  4099 0001:0003C71F
  4100 0001:0003C72F  4101 0001:0003C739  4102 0001:0003C754  4103 0001:0003C768
  4104 0001:0003C76F  4105 0001:0003C77B  4106 0001:0003C795  4107 0001:0003C7A8
  4108 0001:0003C7BF  4109 0001:0003C7D2  4110 0001:0003C7E9  4111 0001:0003C7F4
  4113 0001:0003C812  4114 0001:0003C81F  4117 0001:0003C838  4118 0001:0003C83B
  4120 0001:0003C840  4121 0001:0003C843  4123 0001:0003C852  4128 0001:0003C854
  4129 0001:0003C875  4133 0001:0003C8BC  4134 0001:0003C8C6  4135 0001:0003C8D4
  4140 0001:0003C8F8  4141 0001:0003C907  4142 0001:0003C912  4144 0001:0003C939
  4147 0001:0003C940  4148 0001:0003C946  4150 0001:0003C94B  4151 0001:0003C94F
  4152 0001:0003C966  4153 0001:0003C96D  4154 0001:0003C974  4156 0001:0003C978
  4157 0001:0003C981  4160 0001:0003C988  4163 0001:0003C98C  4164 0001:0003C993
  4166 0001:0003C998  4167 0001:0003C9A3  4168 0001:0003C9A6  4169 0001:0003C9B7
  4171 0001:0003C9BE  4175 0001:0003C9C4  4177 0001:0003C9C9  4178 0001:0003C9CC
  4180 0001:0003C9DA  4184 0001:0003C9DC  4185 0001:0003C9EA  4189 0001:0003C9EC
  4190 0001:0003C9F7  4194 0001:0003C9F8  4195 0001:0003CA05  4196 0001:0003CA08
  4200 0001:0003CA0C  4201 0001:0003CA19  4202 0001:0003CA1C  4217 0001:0003CA20
  4218 0001:0003CA26  4219 0001:0003CA2C  4221 0001:0003CA30  4222 0001:0003CA39
  4224 0001:0003CA42  4227 0001:0003CA48  4228 0001:0003CA4B  4229 0001:0003CA5A
  4230 0001:0003CA6A  4235 0001:0003CA6C  4236 0001:0003CA73  4237 0001:0003CA7C
  4238 0001:0003CA87  4239 0001:0003CA97  4242 0001:0003CA9C  4243 0001:0003CAB5
  4244 0001:0003CADB  4248 0001:0003CB00  4250 0001:0003CB05  4251 0001:0003CB08
  4252 0001:0003CB0C  4254 0001:0003CB1A  4257 0001:0003CB1C  4258 0001:0003CB1F
  4259 0001:0003CB23  4260 0001:0003CB27  4262 0001:0003CB37  4263 0001:0003CB3E
  4265 0001:0003CB4C  4266 0001:0003CB5C  4269 0001:0003CB60  4270 0001:0003CB63
  4271 0001:0003CB6B  4275 0001:0003CB70  4276 0001:0003CB81  4280 0001:0003CB84
  4281 0001:0003CB8D  4285 0001:0003CB90  4286 0001:0003CB96  4290 0001:0003CB98
  4292 0001:0003CB9D  4293 0001:0003CBA0  4294 0001:0003CBAC  4296 0001:0003CBBA
  4309 0001:0003CBBC  4311 0001:0003CBC4  4312 0001:0003CBCA  4313 0001:0003CBD1
  4315 0001:0003CBDF  4319 0001:0003CBE0  4321 0001:0003CBE8  4322 0001:0003CBEE
  4323 0001:0003CBFA  4325 0001:0003CC08  4329 0001:0003CC0C  4331 0001:0003CC11
  4332 0001:0003CC14  4333 0001:0003CC18  4335 0001:0003CC26  4339 0001:0003CC28
  4340 0001:0003CC2E  4344 0001:0003CC30  4346 0001:0003CC35  4347 0001:0003CC38
  4348 0001:0003CC44  4350 0001:0003CC52  4354 0001:0003CC54  4356 0001:0003CC59
  4357 0001:0003CC5C  4358 0001:0003CC68  4360 0001:0003CC76  4364 0001:0003CC78
  4366 0001:0003CC7E  4367 0001:0003CC82  4369 0001:0003CC90  4372 0001:0003CC94
  4373 0001:0003CC97  4374 0001:0003CCA1  4377 0001:0003CCA4  4378 0001:0003CCAA
  4379 0001:0003CCB5  4380 0001:0003CCC9  4383 0001:0003CCCC  4384 0001:0003CCCF
  4385 0001:0003CCDC  4396 0001:0003CCE0  4397 0001:0003CCE7  4399 0001:0003CCEE
  4400 0001:0003CCFB  4402 0001:0003CCFF  4403 0001:0003CD0B  4404 0001:0003CD11
  4405 0001:0003CD18  4407 0001:0003CD1C  4408 0001:0003CD24  4409 0001:0003CD36
  4410 0001:0003CD43  4412 0001:0003CD49  4413 0001:0003CD52  4414 0001:0003CD58
  4419 0001:0003CD63  4423 0001:0003CD68  4424 0001:0003CD6F  4425 0001:0003CD73
  4426 0001:0003CD84  4427 0001:0003CD8B  4430 0001:0003CD8C  4431 0001:0003CDA9
  4432 0001:0003CDAF  4433 0001:0003CDE0  4434 0001:0003CDEA  4435 0001:0003CDFA
  4436 0001:0003CE0C  4448 0001:0003CE34  4449 0001:0003CE3D  4450 0001:0003CE41
  4451 0001:0003CE50  4452 0001:0003CE5F  4454 0001:0003CE63  4455 0001:0003CE64
  4457 0001:0003CE6F  4459 0001:0003CE7B  4460 0001:0003CE99  4452 0001:0003CEAD
  4463 0001:0003CEB1  4464 0001:0003CEB5  4466 0001:0003CEC0  4467 0001:0003CECF
  4471 0001:0003CEFD  4472 0001:0003CF08  4475 0001:0003CF45  4479 0001:0003CF4C
  4480 0001:0003CF5C  4484 0001:0003CF60  4485 0001:0003CF68  4486 0001:0003CF6C
  4487 0001:0003CF76  4488 0001:0003CF9D  4494 0001:0003CFA8  4495 0001:0003CFB1
  4496 0001:0003CFBC  4497 0001:0003CFC3  4498 0001:0003CFD5  4499 0001:0003CFDF
  4501 0001:0003CFE8  4502 0001:0003CFF0  4503 0001:0003D000  4506 0001:0003D020
  4521 0001:0003D028  4522 0001:0003D029  4523 0001:0003D03A  4533 0001:0003D03C
  4534 0001:0003D046  4537 0001:0003D089  4539 0001:0003D096  4540 0001:0003D0AA
  4541 0001:0003D0B8  4542 0001:0003D0E1  4544 0001:0003D0FF  4548 0001:0003D11C
  4549 0001:0003D127  4551 0001:0003D132  4555 0001:0003D138  4556 0001:0003D13A
  4565 0001:0003D13C  4566 0001:0003D153  4570 0001:0003D154  4571 0001:0003D16B
  4575 0001:0003D16C  4577 0001:0003D186  4581 0001:0003D188  4582 0001:0003D1A0
  4587 0001:0003D1A4  4588 0001:0003D1B0  4589 0001:0003D1BE  4590 0001:0003D1CA
  4591 0001:0003D1E4  4592 0001:0003D1FB  4593 0001:0003D202  4595 0001:0003D214
  4596 0001:0003D21B  4598 0001:0003D221  4599 0001:0003D227  4600 0001:0003D243
  4603 0001:0003D269  4604 0001:0003D26D  4606 0001:0003D275  4607 0001:0003D27E
  4609 0001:0003D289  4620 0001:0003D290  4624 0001:0003D294  4625 0001:0003D29D
  4629 0001:0003D2A0  4630 0001:0003D2A8  4631 0001:0003D2AB  4633 0001:0003D2B5
  4634 0001:0003D2B8  4636 0001:0003D2D5  4639 0001:0003D2DC  4640 0001:0003D2E0
  4641 0001:0003D301  4644 0001:0003D308  4645 0001:0003D309  4646 0001:0003D325
  4649 0001:0003D328  4650 0001:0003D32C  4651 0001:0003D34D  4657 0001:0003D354
  4660 0001:0003D35D  4662 0001:0003D36F  4663 0001:0003D379  4665 0001:0003D383
  4666 0001:0003D397  4667 0001:0003D3AC  4669 0001:0003D3AF  4670 0001:0003D3B9
  4671 0001:0003D3C5  4672 0001:0003D3CA  4675 0001:0003D3D0  4678 0001:0003D3DC
  4679 0001:0003D3EE  4681 0001:0003D403  4685 0001:0003D41D  4688 0001:0003D428
  4689 0001:0003D42E  4690 0001:0003D439  4693 0001:0003D440  4694 0001:0003D444
  4695 0001:0003D465  4698 0001:0003D46C  4699 0001:0003D46D  4700 0001:0003D489
  4703 0001:0003D48C  4704 0001:0003D494  4707 0001:0003D4BB  4713 0001:0003D4C0
  4714 0001:0003D4D8  4715 0001:0003D4DC  4716 0001:0003D4E6  4717 0001:0003D501
  4719 0001:0003D507  4722 0001:0003D50F  4723 0001:0003D519  4724 0001:0003D52D
  4726 0001:0003D531  4727 0001:0003D548  4730 0001:0003D55F  4720 0001:0003D574
  4733 0001:0003D584  4736 0001:0003D594  4737 0001:0003D5A5  4738 0001:0003D5AA
  4739 0001:0003D5B4  4740 0001:0003D5D3  4743 0001:0003D5E0  4744 0001:0003D5F1
  4745 0001:0003D5F6  4746 0001:0003D600  4747 0001:0003D61F  4757 0001:0003D62C
  4760 0001:0003D63A  4761 0001:0003D643  4762 0001:0003D657  4764 0001:0003D663
  4765 0001:0003D66B  4766 0001:0003D67E  4767 0001:0003D68C  4770 0001:0003D6A1
  4771 0001:0003D6C4  4772 0001:0003D6E6  4773 0001:0003D705  4775 0001:0003D71F
  4777 0001:0003D739  4779 0001:0003D74E  4782 0001:0003D758  4783 0001:0003D759
  4784 0001:0003D764  4787 0001:0003D768  4788 0001:0003D769  4789 0001:0003D774
  4795 0001:0003D778  4796 0001:0003D784  4798 0001:0003D787  4799 0001:0003D78A
  4800 0001:0003D799  4801 0001:0003D7A6  4802 0001:0003D7B6  4803 0001:0003D7C4
  4806 0001:0003D7D3  4807 0001:0003D7D8  4809 0001:0003D7DC  4813 0001:0003D7FF
  4814 0001:0003D821  4818 0001:0003D82B  4819 0001:0003D848  4823 0001:0003D860
  4831 0001:0003D868  4832 0001:0003D878  4834 0001:0003D885  4837 0001:0003D8A1
  4838 0001:0003D8B1  4841 0001:0003D8CC  4842 0001:0003D8E6  4844 0001:0003D906
  4845 0001:0003D930  4849 0001:0003D942  4850 0001:0003D949  4851 0001:0003D972
  4853 0001:0003D97C  4854 0001:0003D98D  4855 0001:0003D99B  4856 0001:0003D9A5
  4857 0001:0003D9AE  4858 0001:0003D9B0  4859 0001:0003D9BA  4860 0001:0003D9BE
  4863 0001:0003D9CC  4864 0001:0003D9D2  4865 0001:0003D9DC  4866 0001:0003D9E5
  4868 0001:0003D9F4  4869 0001:0003DA09  4871 0001:0003DA2B  4875 0001:0003DA3B
  4880 0001:0003DA48  4881 0001:0003DA59  4882 0001:0003DA7E  4884 0001:0003DA82
  4885 0001:0003DA8D  4886 0001:0003DA91  4888 0001:0003DAC3  4890 0001:0003DAD2
  4920 0001:0003DADC  4921 0001:0003DADF  4922 0001:0003DAEA  4926 0001:0003DAEC
  4927 0001:0003DAEE  4930 0001:0003DAF0  4931 0001:0003DAF2  4932 0001:0003DAF6
  4933 0001:0003DB18  4938 0001:0003DB20  4939 0001:0003DB2E  4941 0001:0003DB34
  4942 0001:0003DB3D  4943 0001:0003DB47  4944 0001:0003DB56  4945 0001:0003DB68
  4946 0001:0003DB71  4947 0001:0003DB76  4949 0001:0003DB82  4950 0001:0003DB84
  4953 0001:0003DB8C  4954 0001:0003DB97  4955 0001:0003DBA5  4956 0001:0003DBB5
  4960 0001:0003DBBC  4961 0001:0003DBC0  4963 0001:0003DBE5  4966 0001:0003DBEC
  4967 0001:0003DBF5  4968 0001:0003DBFB  4969 0001:0003DC12  4972 0001:0003DC18
  4973 0001:0003DC19  4976 0001:0003DC47  4981 0001:0003DC4C  4982 0001:0003DC56
  4983 0001:0003DC60  4985 0001:0003DC65  4986 0001:0003DC6A  4987 0001:0003DC74
  4989 0001:0003DC7A  4990 0001:0003DC80  4991 0001:0003DC8A  4993 0001:0003DC90
  4994 0001:0003DC96  4995 0001:0003DCA0  4997 0001:0003DCA6  4999 0001:0003DCAC
  5000 0001:0003DCC3  5001 0001:0003DCD2  5002 0001:0003DCDA  5003 0001:0003DCE7
  5004 0001:0003DCEC  5005 0001:0003DCFB  5006 0001:0003DD03  5007 0001:0003DD12
  5008 0001:0003DD18  5013 0001:0003DD20  5014 0001:0003DD27  5015 0001:0003DD2A
  5016 0001:0003DD2D  5017 0001:0003DD33  5018 0001:0003DD38  5019 0001:0003DD47
  5020 0001:0003DD4A  5023 0001:0003DD54  5024 0001:0003DD57  5026 0001:0003DD62
  5027 0001:0003DD6B  5029 0001:0003DD76  5031 0001:0003DD7F  5033 0001:0003DD97
  5034 0001:0003DDA2  5036 0001:0003DDBB  5038 0001:0003DDC4  5041 0001:0003DDC8
  5042 0001:0003DDCB  5043 0001:0003DDD0  5044 0001:0003DDD6  5045 0001:0003DDDE
  5046 0001:0003DDE7  5047 0001:0003DDEE  5048 0001:0003DDF5  5052 0001:0003DDF8
  5060 0001:0003DDFC  5061 0001:0003DE0C  5063 0001:0003DE12  5064 0001:0003DE1E
  5067 0001:0003DE4A  5069 0001:0003DE5A  5070 0001:0003DE66  5072 0001:0003DE8C
  5074 0001:0003DEA4  5075 0001:0003DEAA  5077 0001:0003DEBB  5079 0001:0003DEBE
  5080 0001:0003DEF5  5083 0001:0003DF0A  5087 0001:0003DF41  5088 0001:0003DF4B
  5089 0001:0003DF4F  5091 0001:0003DF5B  5092 0001:0003DF6C  5093 0001:0003DF86
  5094 0001:0003DF8C  5097 0001:0003DFA7  5098 0001:0003DFB3  5099 0001:0003DFB9
  5102 0001:0003DFD8  5104 0001:0003DFDE  5105 0001:0003DFE5  5107 0001:0003DFF6
  5108 0001:0003E005  5113 0001:0003E016  5115 0001:0003E01C  5116 0001:0003E027
  5118 0001:0003E02C  5121 0001:0003E033  5124 0001:0003E03A  5127 0001:0003E05D
  5130 0001:0003E069  5131 0001:0003E06E  5132 0001:0003E07C  5133 0001:0003E084
  5135 0001:0003E08A  5136 0001:0003E098  5140 0001:0003E09A  5141 0001:0003E0A1
  5143 0001:0003E0B1  5144 0001:0003E0BA  5149 0001:0003E0CC  5151 0001:0003E0D3
  5154 0001:0003E0E2  5155 0001:0003E0F2  5158 0001:0003E10A  5161 0001:0003E124
  5162 0001:0003E12E  5163 0001:0003E136  5164 0001:0003E139  5167 0001:0003E149
  5170 0001:0003E154  5171 0001:0003E15A  5172 0001:0003E164  5176 0001:0003E168
  5177 0001:0003E172  5184 0001:0003E174  5185 0001:0003E177  5186 0001:0003E184
  5187 0001:0003E199  5188 0001:0003E1A3  5191 0001:0003E1A8  5192 0001:0003E1AC
  5193 0001:0003E1CB  5195 0001:0003E245  5197 0001:0003E2BF  5199 0001:0003E336
  5202 0001:0003E3AD  5204 0001:0003E3AF  5206 0001:0003E3C8  5209 0001:0003E3D9
  5210 0001:0003E3FF  5211 0001:0003E437  5212 0001:0003E46F  5213 0001:0003E4A7
  5214 0001:0003E4DF  5217 0001:0003E558  5221 0001:0003E55B  5222 0001:0003E582
  5223 0001:0003E592  5224 0001:0003E59E  5225 0001:0003E5AA  5226 0001:0003E5B4
  5227 0001:0003E5C2  5230 0001:0003E5C4  5231 0001:0003E5C5  5232 0001:0003E5DF
  5236 0001:0003E5E4  5237 0001:0003E5EC  5238 0001:0003E615  5242 0001:0003E61C
  5243 0001:0003E62B  5245 0001:0003E631  5246 0001:0003E643  5247 0001:0003E64D
  5249 0001:0003E672  5250 0001:0003E697  5253 0001:0003E6A0  5254 0001:0003E6A6
  5255 0001:0003E6AF  5256 0001:0003E6B8  5257 0001:0003E6C7  5258 0001:0003E6D2
  5259 0001:0003E6E5  5262 0001:0003E6EC  5263 0001:0003E6F2  5264 0001:0003E6FB
  5265 0001:0003E704  5268 0001:0003E708  5269 0001:0003E70F  5270 0001:0003E718
  5271 0001:0003E721  5272 0001:0003E730  5273 0001:0003E741  5274 0001:0003E754
  5278 0001:0003E75C  5279 0001:0003E762  5284 0001:0003E764  5285 0001:0003E771
  5286 0001:0003E773  5287 0001:0003E778  5288 0001:0003E77F  5290 0001:0003E790
  5291 0001:0003E797  5292 0001:0003E79F  5294 0001:0003E7E4  5296 0001:0003E7E8
  5297 0001:0003E7EE  5300 0001:0003E7F5  5303 0001:0003E800  5304 0001:0003E806
  5305 0001:0003E80F  5306 0001:0003E822  5309 0001:0003E82C  5310 0001:0003E832
  5311 0001:0003E83B  5312 0001:0003E84E  5315 0001:0003E858  5316 0001:0003E85E
  5317 0001:0003E867  5318 0001:0003E87A  5321 0001:0003E884  5322 0001:0003E88A
  5323 0001:0003E893  5324 0001:0003E8A6  5327 0001:0003E8B0  5328 0001:0003E8B8
  5329 0001:0003E8DB  5332 0001:0003E8E4  5333 0001:0003E8ED  5334 0001:0003E8F6
  5336 0001:0003E8FC  5337 0001:0003E90E  5338 0001:0003E917  5340 0001:0003E938
  5341 0001:0003E957  5345 0001:0003E95C  5346 0001:0003E964  5347 0001:0003E98D
  5350 0001:0003E994  5351 0001:0003E99D  5352 0001:0003E9A3  5353 0001:0003E9C5
  5356 0001:0003E9CC  5357 0001:0003E9D6  5358 0001:0003E9DF  5359 0001:0003E9EE
  5361 0001:0003E9F4  5362 0001:0003E9F9  5364 0001:0003EA3C  5365 0001:0003EA47
  5368 0001:0003EA50  5369 0001:0003EA56  5370 0001:0003EA5F  5371 0001:0003EA6A
  5374 0001:0003EA70  5375 0001:0003EA76  5376 0001:0003EA7F  5377 0001:0003EA8A
  5380 0001:0003EA90  5381 0001:0003EA97  5383 0001:0003EAA2  5384 0001:0003EAAB
  5386 0001:0003EABA  5387 0001:0003EAC6  5388 0001:0003EAD3  5389 0001:0003EAE2
  5392 0001:0003EAE8  5393 0001:0003EAEB  5394 0001:0003EAF2  5396 0001:0003EAFD
  5397 0001:0003EB06  5401 0001:0003EB1E  5402 0001:0003EB23  5405 0001:0003EB28
  5406 0001:0003EB2E  5408 0001:0003EB37  5410 0001:0003EB4E  5412 0001:0003EB51
  5413 0001:0003EB5D  5414 0001:0003EB65  5415 0001:0003EB71  5416 0001:0003EB77
  5417 0001:0003EB83  5418 0001:0003EB8B  5419 0001:0003EB97  5421 0001:0003EB9D
  5423 0001:0003EBA4  5425 0001:0003EBC5  5427 0001:0003EBCC  5431 0001:0003EBD8
  5433 0001:0003EBE4  5434 0001:0003EBFD  5437 0001:0003EC00  5438 0001:0003EC03
  5439 0001:0003EC0D  5442 0001:0003EC10  5443 0001:0003EC13  5444 0001:0003EC1D
  5447 0001:0003EC20  5448 0001:0003EC23  5449 0001:0003EC2D  5452 0001:0003EC30
  5453 0001:0003EC33  5455 0001:0003EC39  5456 0001:0003EC3F  5457 0001:0003EC4B
  5458 0001:0003EC58  5460 0001:0003EC5C  5463 0001:0003EC60  5464 0001:0003EC64
  5466 0001:0003EC6A  5467 0001:0003EC7C  5469 0001:0003EC80  5472 0001:0003EC84
  5475 0001:0003EC8E  5476 0001:0003EC93  5477 0001:0003ECC6  5478 0001:0003ECCF
  5479 0001:0003ECD6  5482 0001:0003ECEC  5485 0001:0003ECF4  5486 0001:0003ECF7
  5487 0001:0003ED12  5490 0001:0003ED14  5491 0001:0003ED17  5494 0001:0003ED35
  5495 0001:0003ED46  5497 0001:0003ED4D  5500 0001:0003ED50  5501 0001:0003ED53
  5503 0001:0003ED59  5504 0001:0003ED5F  5505 0001:0003ED6B  5506 0001:0003ED78
  5508 0001:0003ED7C  5511 0001:0003ED80  5512 0001:0003ED83  5514 0001:0003ED89
  5515 0001:0003ED9D  5517 0001:0003EDA1  5521 0001:0003EDA4  5522 0001:0003EDAB
  5525 0001:0003EDAC  5526 0001:0003EDB2  5527 0001:0003EDB9  5528 0001:0003EDC6
  5529 0001:0003EDD6  5530 0001:0003EDE4  5533 0001:0003EDE8  5534 0001:0003EDEE
  5535 0001:0003EDF5  5536 0001:0003EE02  5537 0001:0003EE12  5538 0001:0003EE20
  5542 0001:0003EE24  5543 0001:0003EE29  5546 0001:0003EE2C  5547 0001:0003EE3D
  5548 0001:0003EE3F  5551 0001:0003EE5E  5554 0001:0003EE74  5555 0001:0003EE7F
  5556 0001:0003EE89  5557 0001:0003EE97  5560 0001:0003EEA6  5569 0001:0003EEB0
  5570 0001:0003EEBF  5571 0001:0003EEE1  5572 0001:0003EEED  5576 0001:0003EF32
  5578 0001:0003EF3C  5579 0001:0003EF49  5580 0001:0003EF5E  5583 0001:0003EF67
  5584 0001:0003EF7A  5586 0001:0003EF7E  5587 0001:0003EF87  5590 0001:0003EF97
  5593 0001:0003EF9C  5594 0001:0003EFBA  5597 0001:0003EFCF  5598 0001:0003EFFA
  5599 0001:0003F004  5600 0001:0003F013  5601 0001:0003F01E  5602 0001:0003F02B
  5603 0001:0003F039  5604 0001:0003F043  5605 0001:0003F051  5606 0001:0003F05F
  5608 0001:0003F071  5611 0001:0003F09C  5612 0001:0003F0A2  5613 0001:0003F0BC
  5617 0001:0003F0C0  5618 0001:0003F0C5  5621 0001:0003F0C8  5622 0001:0003F0CC
  5623 0001:0003F0E5  5626 0001:0003F0E8  5627 0001:0003F0EC  5628 0001:0003F105
  5631 0001:0003F108  5632 0001:0003F10C  5633 0001:0003F125  5636 0001:0003F128
  5637 0001:0003F12C  5638 0001:0003F145  5641 0001:0003F148  5642 0001:0003F14C
  5643 0001:0003F165  5646 0001:0003F168  5647 0001:0003F16C  5648 0001:0003F185
  5651 0001:0003F188  5652 0001:0003F18C  5653 0001:0003F193  5654 0001:0003F1B4
  5655 0001:0003F1BB  5658 0001:0003F1C0  5659 0001:0003F1DA  5662 0001:0003F1EB
  5663 0001:0003F1FD  5664 0001:0003F20A  5665 0001:0003F21E  5666 0001:0003F229
  5668 0001:0003F23E  5669 0001:0003F247  5676 0001:0003F26C  5677 0001:0003F275
  5678 0001:0003F277  5679 0001:0003F288  5678 0001:0003F29C  5680 0001:0003F29F
  5684 0001:0003F2A8  5685 0001:0003F2B6  5686 0001:0003F2B8  5687 0001:0003F2BB
  5689 0001:0003F2BE  5690 0001:0003F2CC  5691 0001:0003F2D4  5692 0001:0003F2E0
  5696 0001:0003F2E8  5697 0001:0003F2EA  5698 0001:0003F2EC  5699 0001:0003F2F0
  5700 0001:0003F2F2  5701 0001:0003F33F  5702 0001:0003F343  5703 0001:0003F347
  5704 0001:0003F34B  5707 0001:0003F34D  5710 0001:0003F358  5711 0001:0003F35B
  5712 0001:0003F382  5716 0001:0003F384  5717 0001:0003F38A  5720 0001:0003F38C
  5721 0001:0003F38D  5722 0001:0003F3A9  5737 0001:0003F3AC  5738 0001:0003F3AF
  5739 0001:0003F3BA  5741 0001:0003F3C1  5742 0001:0003F3C3  5746 0001:0003F3C8
  5747 0001:0003F3D6  5750 0001:0003F3D8  5751 0001:0003F3DF  5753 0001:0003F3FA
  5754 0001:0003F401  5761 0001:0003F408  5762 0001:0003F413  5763 0001:0003F41D
  5765 0001:0003F423  5766 0001:0003F42C  5769 0001:0003F431  5770 0001:0003F459
  5771 0001:0003F464  5774 0001:0003F475  5775 0001:0003F482  5777 0001:0003F4A3
  5778 0001:0003F4AC  5782 0001:0003F4B1  5783 0001:0003F4B6  5784 0001:0003F4C9
  5785 0001:0003F4D1  5787 0001:0003F4D8  5788 0001:0003F4E5  5790 0001:0003F4EF
  5791 0001:0003F4F8  5792 0001:0003F4FB  5793 0001:0003F506  5794 0001:0003F520
  5795 0001:0003F52E  5798 0001:0003F535  5799 0001:0003F53B  5800 0001:0003F544
  5803 0001:0003F54C  5804 0001:0003F559  5805 0001:0003F578  5809 0001:0003F580
  5810 0001:0003F588  5863 0001:0003F58C  5864 0001:0003F592  5865 0001:0003F59B
  5866 0001:0003F5A1  5867 0001:0003F5AA  5871 0001:0003F5B0  5872 0001:0003F5B5
  5876 0001:0003F5B8  5877 0001:0003F5C0  5881 0001:0003F5C4  5882 0001:0003F5CB
  5885 0001:0003F5CC  5886 0001:0003F5D2  5888 0001:0003F5DD  5889 0001:0003F5E1
  5891 0001:0003F5EA  5892 0001:0003F5F1  5894 0001:0003F5F8  5898 0001:0003F5FC
  5900 0001:0003F608  5901 0001:0003F611  5902 0001:0003F61A  5903 0001:0003F623
  5905 0001:0003F62C  5909 0001:0003F630  5910 0001:0003F63C  5914 0001:0003F640
  5915 0001:0003F64C  5919 0001:0003F650  5920 0001:0003F65C  5923 0001:0003F660
  5924 0001:0003F666  5925 0001:0003F673  5929 0001:0003F678  5930 0001:0003F684
  5933 0001:0003F688  5934 0001:0003F68E  5935 0001:0003F69B  5938 0001:0003F6A0
  5939 0001:0003F6A6  5940 0001:0003F6B3  5943 0001:0003F6B8  5944 0001:0003F6BE
  5945 0001:0003F6CB  5950 0001:0003F6D0  5951 0001:0003F6D6  5952 0001:0003F6DF
  5953 0001:0003F6EF  5958 0001:0003F6F4  5959 0001:0003F6F9  5963 0001:0003F6FC
  5964 0001:0003F701  5969 0001:0003F704  5970 0001:0003F730  5975 0001:0003F739
  5977 0001:0003F74A  5978 0001:0003F75E  5979 0001:0003F768  5980 0001:0003F76F
  5981 0001:0003F779  5982 0001:0003F780  5983 0001:0003F78B  5985 0001:0003F798
  5986 0001:0003F7B5  5987 0001:0003F7BC  5988 0001:0003F7C9  5989 0001:0003F7D0
  5990 0001:0003F7D7  5991 0001:0003F7E1  5992 0001:0003F7E8  5993 0001:0003F7FE
  5994 0001:0003F808  6018 0001:0003F848  6019 0001:0003F855  6020 0001:0003F85C
  6022 0001:0003F865  6023 0001:0003F86C  6025 0001:0003F875  6026 0001:0003F880
  6027 0001:0003F88B  6028 0001:0003F89A  6029 0001:0003F8AD  6030 0001:0003F8B6
  6032 0001:0003F8BA  6033 0001:0003F8C6  6034 0001:0003F8CF  6035 0001:0003F8D8
  6030 0001:0003F8E1  6037 0001:0003F8E5  6042 0001:0003F8F0  6044 0001:0003F8FF
  6045 0001:0003F90A  6046 0001:0003F916  6053 0001:0003F928  6054 0001:0003F933
  6056 0001:0003F943  6057 0001:0003F952  6058 0001:0003F960  6059 0001:0003F96F
  6060 0001:0003F97A  6062 0001:0003F985  6063 0001:0003F995  6064 0001:0003F99B
  6065 0001:0003F9AE  6060 0001:0003F9AF  6066 0001:0003F9B2  6068 0001:0003F9BD
  6069 0001:0003F9C7  6070 0001:0003F9D2  6066 0001:0003F9D3  6072 0001:0003F9E3
  6075 0001:0003F9F3  6078 0001:0003F9FC  6079 0001:0003FA06  6080 0001:0003FA0E
  6081 0001:0003FA1C  6083 0001:0003FA33  6085 0001:0003FA43  6086 0001:0003FA4B
  6087 0001:0003FA65  6088 0001:0003FA6D  6093 0001:0003FA74  6094 0001:0003FA7F
  6095 0001:0003FA8B  6096 0001:0003FA97  6097 0001:0003FAA3  6103 0001:0003FAA4
  6106 0001:0003FAC1  6109 0001:0003FADB  6111 0001:0003FAF5  6112 0001:0003FB02
  6113 0001:0003FB12  6114 0001:0003FB22  6115 0001:0003FB32  6116 0001:0003FB38
  6118 0001:0003FB3E  6121 0001:0003FB53  6122 0001:0003FB68  6124 0001:0003FB6E
  6126 0001:0003FB93  6127 0001:0003FB99  6129 0001:0003FB9F  6132 0001:0003FBB5
  6133 0001:0003FBCB  6135 0001:0003FBD1  6137 0001:0003FBF7  6139 0001:0003FBFD
  6140 0001:0003FC12  6141 0001:0003FC37  6142 0001:0003FC4C  6144 0001:0003FC72
  6146 0001:0003FC8A  6149 0001:0003FC94  6150 0001:0003FC9C  6151 0001:0003FCB0
  6152 0001:0003FCC0  6153 0001:0003FCC9  6154 0001:0003FCDC  6155 0001:0003FCEC
  6156 0001:0003FCF1  6157 0001:0003FCF7  6159 0001:0003FD23  6162 0001:0003FD2B
  6163 0001:0003FD31  6166 0001:0003FD39  6169 0001:0003FD40  6170 0001:0003FD46
  6174 0001:0003FD4E  6175 0001:0003FD54  6176 0001:0003FD5A  6181 0001:0003FD7B
  6183 0001:0003FD93  6185 0001:0003FDBB  6186 0001:0003FDE7  6187 0001:0003FDFE
  6188 0001:0003FE15  6189 0001:0003FE2B  6192 0001:0003FE42  6193 0001:0003FE57
  6196 0001:0003FE6C  6203 0001:0003FE84  6204 0001:0003FE90  6205 0001:0003FE9B
  6207 0001:0003FEB2  6208 0001:0003FEBF  6209 0001:0003FECD  6210 0001:0003FEDC
  6213 0001:0003FEE4  6214 0001:0003FEF4  6215 0001:0003FEF6  6216 0001:0003FF26
  6217 0001:0003FF4F  6218 0001:0003FF98  6219 0001:0003FFB8  6220 0001:0003FFFB
  6222 0001:0004000E  6225 0001:00040014  6226 0001:0004002A  6227 0001:00040053
  6354 0001:0004005C  6355 0001:00040067  6356 0001:00040072  6360 0001:000400AE
  6361 0001:000400BF  6363 0001:000400DE  6364 0001:000400EE  6371 0001:00040136
  6372 0001:0004013E  6374 0001:00040142  6373 0001:00040143  6375 0001:0004016F
  6377 0001:0004017E  6361 0001:00040181  6378 0001:0004018A  6380 0001:000401A3
  6381 0001:000401AC  6382 0001:000401B2  6383 0001:000401B5  6384 0001:000401D2
  6378 0001:000401D5  6385 0001:000401DA  6390 0001:000401E8  6391 0001:000401F4
  6392 0001:000401F6  6393 0001:00040205  6394 0001:00040229  6392 0001:0004022A
  6395 0001:0004022F  6396 0001:00040231  6398 0001:0004023C  6399 0001:0004024C
  6400 0001:00040270  6403 0001:00040280  6405 0001:0004028F  6406 0001:0004029D
  6407 0001:000402AC  6408 0001:000402BA  6409 0001:000402C3  6410 0001:000402CC
  6411 0001:000402D5  6412 0001:000402DE  6413 0001:000402E7  6414 0001:000402F0
  6415 0001:000402F9  6417 0001:00040312  6421 0001:00040322  6422 0001:0004033A
  6427 0001:00040340  6428 0001:0004034C  6429 0001:00040361  6430 0001:0004036E
  6433 0001:00040378  6434 0001:00040380  6435 0001:0004038E  6436 0001:00040399
  6438 0001:000403B6  6439 0001:000403BE  6442 0001:000403CE  6446 0001:000403D4
  6447 0001:000403DB  6451 0001:000403DC  6452 0001:000403E3  6454 0001:000403ED
  6456 0001:000403F8  6460 0001:000403FC  6461 0001:00040403  6468 0001:00040404
  6469 0001:00040410  6470 0001:0004041F  6471 0001:0004042D  6472 0001:00040438
  6473 0001:00040456  6475 0001:00040461  6476 0001:00040475  6477 0001:00040485
  6472 0001:00040486  6479 0001:00040489  6480 0001:00040497  6479 0001:000404B0
  6482 0001:000404C0  6484 0001:000404D0  6490 0001:000404D8  6491 0001:000404E7
  6492 0001:000404F7  6493 0001:00040506  6494 0001:0004050E  6496 0001:0004051C
  6497 0001:00040538  6496 0001:00040557  6499 0001:0004055A  6504 0001:00040575
  6505 0001:00040582  6506 0001:00040588  6508 0001:00040593  6509 0001:0004059C
  6502 0001:000405AB  6511 0001:000405B5  6512 0001:000405BD  6514 0001:000405CD
  6515 0001:000405D3  6516 0001:000405E5  6517 0001:000405FE  6515 0001:00040614
  6518 0001:00040617  6521 0001:00040620  6522 0001:00040622  6523 0001:0004062D
  6524 0001:00040632  6529 0001:00040634  6530 0001:0004063A  6531 0001:00040643
  6532 0001:00040650  6535 0001:00040654  6536 0001:0004065A  6538 0001:0004065E
  6540 0001:0004066F  6541 0001:0004067C  6543 0001:0004068B  6544 0001:00040698
  6546 0001:0004069B  6549 0001:000406A0  6550 0001:000406A6  6552 0001:000406B7
  6553 0001:000406C4  6555 0001:000406D3  6556 0001:000406E0  6557 0001:000406E5
  6562 0001:000406E8  6563 0001:000406F2  6564 0001:000406FF  6565 0001:00040702
  6566 0001:00040706  6567 0001:00040718  6568 0001:0004072A  6569 0001:00040733
  6571 0001:0004073D  6572 0001:0004074D  6573 0001:0004075D  6574 0001:0004076D
  6575 0001:0004077D  6577 0001:0004078E  6578 0001:0004079E  6580 0001:000407A7
  6581 0001:000407BC  6583 0001:000407C5  6584 0001:000407D5  6589 0001:000407DC
  6590 0001:000407E7  6591 0001:000407EA  6592 0001:000407EE  6593 0001:00040800
  6596 0001:00040811  6597 0001:0004081C  6600 0001:00040828  6601 0001:00040833
  6602 0001:00040840  6603 0001:00040849  6604 0001:00040859  6605 0001:0004086B
  6606 0001:00040872  6611 0001:0004087C  6612 0001:00040884  6613 0001:00040895
  6614 0001:00040899  6615 0001:000408A4  6616 0001:000408B3  6620 0001:000408B8
  6621 0001:000408BA  6622 0001:000408C7  6623 0001:000408D4  6628 0001:000408D8
  6629 0001:000408E2  6631 0001:000408F4  6632 0001:00040908  6633 0001:0004090E
  6629 0001:0004090F  6634 0001:00040912  6638 0001:00040918  6639 0001:00040921
  6640 0001:0004092C  6641 0001:00040939  6642 0001:00040941  6647 0001:00040948
  6648 0001:0004094B  6649 0001:00040951  6650 0001:00040957  6651 0001:0004095D
  6652 0001:00040963  6653 0001:0004096A  6662 0001:00040970  6663 0001:00040977
  6666 0001:0004097B  6667 0001:0004097E  6670 0001:000409B8  6671 0001:000409C6
  6672 0001:000409C9  6674 0001:000409D7  6677 0001:000409DC  6678 0001:000409E3
  6679 0001:000409EE  6680 0001:000409F4  6681 0001:000409FF  6682 0001:00040A05
  6683 0001:00040A14  6684 0001:00040A23  6685 0001:00040A2B  6686 0001:00040A3A
  6687 0001:00040A3D  6690 0001:00040A44  6691 0001:00040A67  6694 0001:00040A75
  6695 0001:00040A7A  6696 0001:00040A81  6697 0001:00040A8B  6699 0001:00040A91
  6700 0001:00040A98  6702 0001:00040A9F  6703 0001:00040AB0  6704 0001:00040AB7
  6705 0001:00040AC7  6706 0001:00040ACD  6707 0001:00040AD3  6708 0001:00040AD9
  6709 0001:00040ADF  6710 0001:00040AE6  6711 0001:00040AF2  6712 0001:00040AFB
  6713 0001:00040B02  6714 0001:00040B0A  6715 0001:00040B19  6716 0001:00040B1E
  6717 0001:00040B26  6719 0001:00040B4C  6726 0001:00040B70  6727 0001:00040B93
  6730 0001:00040BA3  6731 0001:00040BB2  6733 0001:00040BD0  6735 0001:00040BDC
  6736 0001:00040C1C  6737 0001:00040C25  6738 0001:00040C3F  6740 0001:00040C50
  6742 0001:00040C61  6743 0001:00040C68  6744 0001:00040C6E  6746 0001:00040C81
  6747 0001:00040C87  6748 0001:00040C97  6749 0001:00040CA0  6750 0001:00040CA5
  6752 0001:00040CCC  6754 0001:00040CDB  6755 0001:00040CE3  6756 0001:00040CE8
  6757 0001:00040CEF  6758 0001:00040D07  6759 0001:00040D18  6762 0001:00040D40
  6763 0001:00040D46  6766 0001:00040D7B  6769 0001:00040D80  6770 0001:00040D86
  6771 0001:00040D8D  6772 0001:00040D9A  6773 0001:00040DA7  6774 0001:00040DAE
  6775 0001:00040DB5  6778 0001:00040DB8  6779 0001:00040DC1  6780 0001:00040DDE
  6781 0001:00040DE5  6782 0001:00040DF2  6783 0001:00040DFF  6784 0001:00040E06
  6790 0001:00040E0C  6791 0001:00040E1F  6796 0001:00040E20  6797 0001:00040E27
  6798 0001:00040E2B  6801 0001:00040E59  6802 0001:00040E69  6803 0001:00040E77
  6804 0001:00040E8C  6805 0001:00040E9E  6802 0001:00040E9F  6806 0001:00040EA2
  6807 0001:00040EB2  6808 0001:00040EC0  6809 0001:00040ED5  6810 0001:00040EE7
  6807 0001:00040EE8  6812 0001:00040EEB  6813 0001:00040EEF  6815 0001:00040F00
  6816 0001:00040F0D  6817 0001:00040F18  6819 0001:00040F40  6824 0001:00040F5C
  6825 0001:00040F61  6827 0001:00040F67  6828 0001:00040F70  6830 0001:00040F84
  6831 0001:00040F91  6834 0001:00040FA3  6835 0001:00040FA8  6836 0001:00040FB2
  6839 0001:00040FBC  6840 0001:00040FC3  6841 0001:00040FCC  6842 0001:00040FDA
  6843 0001:00040FED  6845 0001:00040FFF  6847 0001:00041010  6848 0001:0004101B
  6853 0001:00041020  6854 0001:00041027  6856 0001:00041046  6857 0001:00041059
  6858 0001:0004105D  6854 0001:0004105E  6859 0001:00041061  6860 0001:00041063
  6865 0001:00041068  6866 0001:0004106D  6868 0001:0004107A  6869 0001:00041084
  6870 0001:0004109B  6871 0001:000410B0  6872 0001:000410B7  6874 0001:000410D7
  6875 0001:000410E8  6874 0001:000410F7  6877 0001:000410FA  6880 0001:00041100
  6881 0001:00041101  6882 0001:0004110B  6884 0001:00041120  6885 0001:00041122
  6890 0001:00041124  6891 0001:00041138  6892 0001:00041142  6894 0001:00041169
  6904 0001:00041174  6905 0001:0004117F  6907 0001:0004119A  6908 0001:000411AC
  6909 0001:000411AF  6915 0001:000411B8  6916 0001:000411C0  6918 0001:000411C9
  6919 0001:000411D3  6920 0001:000411DE  6919 0001:000411F4  6921 0001:000411F7
  6922 0001:00041200  6923 0001:0004120B  6924 0001:00041219  6926 0001:00041223
  6930 0001:0004122C  6931 0001:00041243  6936 0001:00041244  6937 0001:0004124E
  6938 0001:0004125D  6939 0001:00041267  6940 0001:00041275  6941 0001:00041280
  6943 0001:00041295  6945 0001:000412A7  6946 0001:000412B9  6947 0001:000412C8
  6953 0001:000412D0  6954 0001:000412DC  6958 0001:0004132D  6960 0001:00041333
  6961 0001:0004134A  6962 0001:00041357  6963 0001:00041362  6962 0001:00041378
  6965 0001:0004137B  6966 0001:00041387  6968 0001:00041396  6969 0001:000413A3
  6970 0001:000413B1  6972 0001:000413D1  6973 0001:000413E0  6976 0001:000413EA
  6981 0001:000413F4  6982 0001:000413F8  6985 0001:000413FC  6986 0001:000413FE
  6983 0001:00041407  6988 0001:0004140E  6989 0001:0004142E  6990 0001:00041435
  6993 0001:00041438  6994 0001:00041442  6996 0001:0004145E  6998 0001:0004147A
  6999 0001:00041483  7000 0001:00041493  7001 0001:000414A7  7002 0001:000414BB
  7005 0001:000414C5  7006 0001:000414CF  7007 0001:000414DD  7008 0001:000414E8
  7009 0001:000414F1  7011 0001:00041506  7015 0001:00041518  7018 0001:0004151C
  7019 0001:00041526  7020 0001:00041534  7021 0001:00041542  7023 0001:00041558
  7024 0001:0004155D  7027 0001:00041579  7029 0001:0004158D  7039 0001:00041594
  7042 0001:0004159D  7043 0001:000415CB  7048 0001:00041650  7049 0001:00041654
  7051 0001:0004165A  7053 0001:00041660  7054 0001:00041674  7055 0001:00041679
  7056 0001:00041688  7058 0001:00041697  7059 0001:0004169B  7060 0001:000416BB
  7062 0001:000416D9  7056 0001:000416DA  7063 0001:000416DF  7065 0001:000416EF
  7066 0001:000416F8  7067 0001:00041710  7065 0001:00041711  7068 0001:00041716
  7069 0001:00041719  7076 0001:00041724  7077 0001:00041733  7078 0001:00041760
  7079 0001:00041764  7080 0001:00041777  7084 0001:0004177F  7086 0001:00041783
  7087 0001:00041790  7089 0001:000417A0  7090 0001:000417B5  7091 0001:000417C0
  7092 0001:000417CA  7094 0001:00041805  7096 0001:0004180F  7098 0001:00041819
  7100 0001:00041823  7102 0001:0004182B  7103 0001:00041835  7105 0001:00041845
  7106 0001:0004185E  7108 0001:00041862  7109 0001:00041864  7115 0001:00041870
  7116 0001:0004187A  7118 0001:0004188C  7119 0001:0004189F  7121 0001:000418A7
  7124 0001:000418AB  7125 0001:000418D7  7126 0001:000418D9  7128 0001:000418DD
  7129 0001:000418E7  7130 0001:000418F2  7131 0001:00041919  7133 0001:0004191B
  7141 0001:00041924  7142 0001:00041931  7145 0001:000419BE  7146 0001:000419CA
  7147 0001:000419DB  7151 0001:000419F9  7152 0001:00041A05  7153 0001:00041A1D
  7156 0001:00041A37  7159 0001:00041A49  7160 0001:00041A54  7162 0001:00041A9F
  7163 0001:00041AA9  7167 0001:00041AAE  7168 0001:00041AB8  7169 0001:00041AC5
  7171 0001:00041AD5  7172 0001:00041AE6  7176 0001:00041AF6  7178 0001:00041B04
  7179 0001:00041B28  7180 0001:00041B32  7181 0001:00041B3B  7183 0001:00041B49
  7184 0001:00041B4F  7186 0001:00041B5E  7189 0001:00041BA9  7190 0001:00041BC0
  7191 0001:00041BCD  7192 0001:00041BD5  7193 0001:00041BE0  7194 0001:00041BE4
  7195 0001:00041BEC  7197 0001:00041C1B  7199 0001:00041C32  7201 0001:00041C3E
  7204 0001:00041C48  7205 0001:00041C4F  7206 0001:00041C56  7207 0001:00041C61
  7208 0001:00041C68  7211 0001:00041C71  7215 0001:00041C84  7216 0001:00041CA1
  7217 0001:00041CC3  7221 0001:00041CC8  7223 0001:00041CDD  7224 0001:00041CFA
  7225 0001:00041D05  7228 0001:00041D0A  7230 0001:00041D1F  7232 0001:00041D4C
  7235 0001:00041D61  7236 0001:00041D6B  7237 0001:00041D75  7238 0001:00041D83
  7240 0001:00041D9B  7241 0001:00041DA5  7246 0001:00041DB7  7247 0001:00041DC2
  7250 0001:00041DC8  7251 0001:00041DD0  7255 0001:00041DDD  7257 0001:00041DEA
  7258 0001:00041E00  7260 0001:00041E08  7262 0001:00041E22  7265 0001:00041E3C
  7266 0001:00041E51  7267 0001:00041E6B  7270 0001:00041E7B  7271 0001:00041E83
  7273 0001:00041E88  7275 0001:00041EA7  7276 0001:00041EAE  7280 0001:00041EC0
  7281 0001:00041EC9  7286 0001:00041ED0  7287 0001:00041ED5  7288 0001:00041ED7
  7289 0001:00041EDE  7292 0001:00041EE2  7293 0001:00041EFB  7295 0001:00041EFD
  7302 0001:00041F04  7303 0001:00041F13  7304 0001:00041F1C  7305 0001:00041F37
  7306 0001:00041F45  7308 0001:00041F64  7309 0001:00041F70  7310 0001:00041F7E
  7311 0001:00041F83  7312 0001:00041F97  7313 0001:00041FA7  7318 0001:00041FD1
  7319 0001:00041FF1  7320 0001:00041FF6  7311 0001:00041FF7  7321 0001:00041FFA
  7323 0001:00042018  7326 0001:0004202D  7328 0001:00042047  7330 0001:0004206A
  7335 0001:00042074  7336 0001:00042077  7337 0001:0004207E  7338 0001:00042082
  7339 0001:00042088  7340 0001:0004208E  7341 0001:00042095  7347 0001:0004209C
  7348 0001:000420AD  7349 0001:000420D1  7350 0001:000420E2  7352 0001:000420F3
  7353 0001:000420F8  7355 0001:000420FC  7356 0001:00042106  7358 0001:00042111
  7359 0001:00042120  7361 0001:0004212C  7362 0001:00042140  7367 0001:000421C1
  7368 0001:000421CA  7369 0001:000421D3  7370 0001:000421DF  7371 0001:000421ED
  7372 0001:00042201  7373 0001:0004221C  7375 0001:0004223B  7377 0001:00042250
  7379 0001:00042259  7359 0001:0004225C  7382 0001:00042268  7383 0001:00042279
  7384 0001:0004228D  7385 0001:000422A0  7389 0001:000422D1  7390 0001:000422E3
  7392 0001:0004230F  7393 0001:00042315  7394 0001:00042327  7396 0001:00042353
  7397 0001:00042359  7383 0001:0004235C  7398 0001:00042363  7414 0001:0004236C
  7415 0001:0004237C  7416 0001:00042385  7417 0001:00042391  7418 0001:0004239F
  7419 0001:000423AC  7420 0001:000423C7  7421 0001:000423C9  7422 0001:000423CB
  7424 0001:000423E0  7425 0001:000423E5  7427 0001:000423EC  7429 0001:00042403
  7430 0001:00042408  7432 0001:0004240D  7434 0001:00042411  7435 0001:0004242C
  7436 0001:0004243B  7437 0001:00042449  7439 0001:00042464  7440 0001:00042476
  7441 0001:00042488  7442 0001:00042495  7443 0001:000424A0  7444 0001:000424B0
  7442 0001:000424C6  7446 0001:000424D6  7448 0001:000424EB  7449 0001:000424F4
  7456 0001:000424FC  7457 0001:00042509  7459 0001:00042518  7460 0001:00042529
  7462 0001:00042537  7466 0001:00042545  7467 0001:0004254E  7468 0001:00042573
  7469 0001:0004257B  7470 0001:00042585  7471 0001:00042595  7472 0001:000425A3
  7473 0001:000425B6  7474 0001:000425C9  7475 0001:000425CF  7476 0001:000425D8
  7477 0001:000425DD  7478 0001:00042610  7480 0001:0004262E  7481 0001:0004263B
  7482 0001:00042644  7485 0001:00042655  7488 0001:0004265C  7489 0001:00042662
  7490 0001:00042679  7493 0001:0004267C  7494 0001:00042682  7495 0001:0004269B
  7498 0001:000426A0  7499 0001:000426A3  7500 0001:000426A8  7501 0001:000426B8
  7505 0001:000426BC  7506 0001:000426CD  7510 0001:000426D0  7511 0001:000426DE
  7515 0001:000426E0  7516 0001:000426EE  7519 0001:000426F0  7520 0001:000426F6
  7521 0001:0004270D  7524 0001:00042710  7525 0001:00042716  7526 0001:0004272D
  7529 0001:00042730  7530 0001:00042736  7531 0001:00042750  7534 0001:00042754
  7535 0001:0004275A  7536 0001:00042774  7539 0001:00042778  7540 0001:0004277E
  7541 0001:00042798  7544 0001:0004279C  7545 0001:000427A2  7546 0001:000427B9
  7549 0001:000427BC  7550 0001:000427C2  7552 0001:000427D1  7553 0001:000427E2
  7555 0001:000427EB  7558 0001:000427F0  7559 0001:000427FA  7560 0001:00042801
  7563 0001:00042818  7564 0001:00042824  7566 0001:00042830  7571 0001:0004284B
  7573 0001:0004285C  7576 0001:00042881  7577 0001:00042888  7582 0001:00042890
  7583 0001:00042898  7585 0001:000428BC  7587 0001:000428DE  7589 0001:00042901
  7590 0001:0004290F  7591 0001:00042916  7592 0001:0004291C  7593 0001:00042923
  7594 0001:0004292C  7596 0001:00042943  7597 0001:0004294A  7600 0001:00042950
  7601 0001:00042957  7602 0001:0004296E  7603 0001:00042971  7604 0001:00042988
  7605 0001:0004298C  7606 0001:00042995  7609 0001:000429A4  7610 0001:000429AA
  7611 0001:000429B1  7612 0001:000429B8  7613 0001:000429C1  7614 0001:000429C8
  7615 0001:000429D9  7618 0001:000429DC  7619 0001:000429DF  7620 0001:000429E6
  7621 0001:000429ED  7622 0001:000429F4  7629 0001:000429F8  7631 0001:00042A02
  7632 0001:00042A11  7635 0001:00042A29  7636 0001:00042A34  7638 0001:00042A39
  7639 0001:00042A3F  7640 0001:00042A5F  7641 0001:00042A63  7642 0001:00042A69
  7644 0001:00042A6F  7645 0001:00042A73  7646 0001:00042A78  7647 0001:00042A7E
  7649 0001:00042A84  7651 0001:00042A88  7653 0001:00042A8D  7654 0001:00042AA2
  7655 0001:00042AA9  7659 0001:00042AAB  7662 0001:00042ADB  7663 0001:00042AE7
  7666 0001:00042AE9  7667 0001:00042AF2  7670 0001:00042AFC  7671 0001:00042AFF
  7672 0001:00042B06  7673 0001:00042B0D  7674 0001:00042B16  7677 0001:00042B18
  7678 0001:00042B1B  7679 0001:00042B22  7680 0001:00042B29  7681 0001:00042B32
  7684 0001:00042B34  7685 0001:00042B37  7686 0001:00042B3E  7687 0001:00042B45
  7690 0001:00042B48  7691 0001:00042B4B  7692 0001:00042B52  7693 0001:00042B59
  7750 0001:00042B5C  7751 0001:00042B7A  7752 0001:00042B89  7754 0001:00042B96
  7756 0001:00042C05  7757 0001:00042C0F  7759 0001:00042C18  7760 0001:00042C31
  7761 0001:00042C35  7763 0001:00042C4A  7766 0001:00042C52  7767 0001:00042C65
  7770 0001:00042C8C  7771 0001:00042CAA  7772 0001:00042CB9  7774 0001:00042CC2
  7775 0001:00042D1C  7777 0001:00042D2E  7778 0001:00042D45  7781 0001:00042D6C
  7782 0001:00042D6F  7783 0001:00042D78  7788 0001:00042D7C  7791 0001:00042D80
  7792 0001:00042D81  7793 0001:00042D9B  7796 0001:00042DA0  7797 0001:00042DA1
  7798 0001:00042DBB  7801 0001:00042DC0  7802 0001:00042DCC  7804 0001:00042DF4
  7805 0001:00042E09  7809 0001:00042E10  7810 0001:00042E14  7811 0001:00042E1E
  7812 0001:00042E3E  7816 0001:00042E44  7817 0001:00042E54  7818 0001:00042E62
  7819 0001:00042E80  7822 0001:00042E88  7823 0001:00042E92  7824 0001:00042E96
  7825 0001:00042EB6  7826 0001:00042ED8  7830 0001:00042EE4  7831 0001:00042EED
  7832 0001:00042F04  7836 0001:00042F08  7837 0001:00042F16  7838 0001:00042F18
  7841 0001:00042F1C  7842 0001:00042F23  7843 0001:00042F38  7844 0001:00042F3A
  7850 0001:00042F40  7851 0001:00042F57  7852 0001:00042F65  7853 0001:00042F6F
  7854 0001:00042F79  7855 0001:00042F92  7860 0001:00042F9C  7861 0001:00042FA1
  7862 0001:00042FAA  7863 0001:00042FAE  7864 0001:00042FB6  7863 0001:00042FCB
  7865 0001:00042FD0  7870 0001:00042FD8  7873 0001:00042FDC  7874 0001:00042FE2
  7875 0001:00042FFD  7877 0001:0004301B  7878 0001:00043028  7879 0001:00043042
  7882 0001:00043048  7883 0001:0004304B  7885 0001:0004305E  7886 0001:00043062
  7888 0001:0004306A  7889 0001:00043070  7891 0001:00043077  7894 0001:0004307C
  7895 0001:00043096  7897 0001:0004309E  7898 0001:000430A4  7900 0001:000430AA
  7901 0001:000430B3  7903 0001:000430B7  7904 0001:000430C2  7905 0001:000430CA
  7909 0001:000430D7  7910 0001:000430E0  7911 0001:000430F2  7915 0001:0004310E
  7921 0001:00043134  7923 0001:00043143  7926 0001:00043150  7927 0001:00043160
  7928 0001:00043176  7929 0001:0004317E  7930 0001:0004318C  7931 0001:000431A4
  7932 0001:000431BC  7935 0001:000431EE  7937 0001:000431FE  7938 0001:00043208
  7939 0001:00043211  7941 0001:0004321B  7947 0001:00043224  7948 0001:00043229
  7949 0001:0004323B  7951 0001:00043249  7956 0001:0004324C  7957 0001:00043259
  7959 0001:0004326F  7960 0001:00043279  7961 0001:00043287  7963 0001:000432A8
  7967 0001:000432BE  7968 0001:000432C8  7971 0001:000432D0  7972 0001:000432D5
  7973 0001:000432F6  7979 0001:000432FC  7980 0001:00043307  7982 0001:00043309
  7983 0001:00043314  7985 0001:0004331C  7988 0001:00043332  7990 0001:00043338
  7991 0001:00043345  7998 0001:0004336E  7999 0001:00043379  8001 0001:0004337F
  8002 0001:00043391  8005 0001:00043398  8006 0001:0004339A  8009 0001:000433A4
  8010 0001:000433AA  8011 0001:000433C0  8012 0001:000433CB  8015 0001:000433D0
  8016 0001:000433D6  8017 0001:000433EC  8018 0001:000433F7  8021 0001:000433FC
  8022 0001:00043401  8023 0001:00043422  8029 0001:00043428  8030 0001:00043431
  8031 0001:00043433  8032 0001:0004343E  8036 0001:0004345C  8037 0001:00043467
  8039 0001:0004346D  8040 0001:0004347F  8043 0001:00043486  8044 0001:00043488
  8047 0001:00043490  8048 0001:00043496  8049 0001:000434AC  8052 0001:000434B0
  8053 0001:000434B6  8054 0001:000434CC  8057 0001:000434D0  8058 0001:000434D1
  8059 0001:000434ED  8065 0001:000434F0  8066 0001:000434F9  8067 0001:000434FB
  8068 0001:00043506  8070 0001:00043524  8073 0001:0004352A  8074 0001:00043531
  8075 0001:0004353E  8076 0001:00043546  8078 0001:0004354C  8079 0001:0004354E
  8082 0001:00043558  8083 0001:0004355E  8084 0001:00043574  8094 0001:00043578
  8095 0001:00043584  8096 0001:00043588  8097 0001:00043598  8099 0001:000435AA
  8100 0001:000435B6  8102 0001:000435C7  8107 0001:00043611  8108 0001:00043615
  8111 0001:00043617  8097 0001:00043618  8112 0001:0004361B  8114 0001:00043628
  8117 0001:00043633  8121 0001:0004367E  8122 0001:00043689  8127 0001:000436A3
  8130 0001:000436C2  8131 0001:000436CC  8134 0001:000436D4  8135 0001:000436DA
  8136 0001:000436F1  8139 0001:000436F4  8141 0001:000436FB  8142 0001:00043719
  8143 0001:00043722  8146 0001:00043728  8147 0001:0004372E  8148 0001:00043745
  8153 0001:00043748  8154 0001:00043750  8156 0001:00043756  8157 0001:0004375F
  8159 0001:00043773  8160 0001:00043780  8163 0001:00043792  8164 0001:0004379B
  8165 0001:000437A2  8168 0001:000437AC  8169 0001:000437AF  8170 0001:000437B6
  8171 0001:000437BE  8172 0001:000437C5  8175 0001:000437C8  8177 0001:000437CB
  8178 0001:000437D7  8180 0001:000437E0  8181 0001:000437E7  8186 0001:000437EC
  8187 0001:000437F6  8188 0001:00043803  8189 0001:00043809  8191 0001:00043818
  8192 0001:0004381D  8193 0001:00043835  8189 0001:00043836  8194 0001:0004383B
  8197 0001:00043844  8198 0001:0004384B  8199 0001:00043850  8200 0001:00043863
  8203 0001:00043868  8204 0001:0004386F  8205 0001:00043882  8208 0001:00043888
  8209 0001:0004388B  8210 0001:00043892  8211 0001:0004389D  8214 0001:000438A0
  8215 0001:000438A6  8216 0001:000438AF  8217 0001:000438C7  8218 0001:000438D2
  8221 0001:000438D8  8222 0001:000438DB  8223 0001:000438E6  8225 0001:000438F1
  8226 0001:000438FE  8229 0001:00043917  8230 0001:00043924  8231 0001:0004393B
  8232 0001:00043946  8235 0001:00043948  8236 0001:0004394B  8237 0001:00043956
  8240 0001:00043958  8241 0001:0004395E  8242 0001:00043974  8245 0001:00043978
  8246 0001:00043979  8247 0001:00043988  8250 0001:0004398C  8251 0001:0004398D
  8252 0001:0004399C  8256 0001:000439A0  8257 0001:000439A5  8261 0001:000439A8
  8262 0001:000439AD  8266 0001:000439B0  8267 0001:000439B5  8270 0001:000439B8
  8271 0001:000439BB  8272 0001:000439D0  8273 0001:000439DC  8274 0001:000439E3
  8282 0001:000439E8  8283 0001:00043A0E  8286 0001:00043A10  8287 0001:00043A13
  8288 0001:00043A2D  8289 0001:00043A3E  8290 0001:00043A56  8293 0001:00043A58
  8294 0001:00043A5B  8295 0001:00043A62  8296 0001:00043A70  8297 0001:00043A7B
  8300 0001:00043A80  8301 0001:00043A83  8302 0001:00043A8A  8303 0001:00043AAD
  8304 0001:00043AB8  8309 0001:00043ABC  8310 0001:00043AC2  8312 0001:00043ACB
  8313 0001:00043AD1  8314 0001:00043ADE  8316 0001:00043AF5  8319 0001:00043AFC
  8320 0001:00043AFF  8321 0001:00043B06  8324 0001:00043B11  8325 0001:00043B2A
  8326 0001:00043B30  8328 0001:00043B3A  8331 0001:00043B3C  8332 0001:00043B3F
  8333 0001:00043B66  8334 0001:00043B6D  8335 0001:00043B78  8338 0001:00043B7C
  8339 0001:00043B7F  8341 0001:00043B88  8342 0001:00043B8E  8343 0001:00043BA0
  8344 0001:00043BB1  8346 0001:00043BB8  8350 0001:00043BBC  8351 0001:00043BC1
  8355 0001:00043BC4  8356 0001:00043BC9  8360 0001:00043BCC  8361 0001:00043BD1
  8365 0001:00043BD4  8366 0001:00043BD9  8369 0001:00043BDC  8370 0001:00043BE7
  8371 0001:00043BEA  8373 0001:00043BF8  8376 0001:00043C0A  8377 0001:00043C2D
  8380 0001:00043C34  8383 0001:00043C3C  8384 0001:00043C3D  8385 0001:00043C4C
  8388 0001:00043C50  8389 0001:00043C51  8390 0001:00043C60  8393 0001:00043C64
  8394 0001:00043C6A  8395 0001:00043C73  8396 0001:00043C7C  8403 0001:00043C80
  8404 0001:00043C8C  8405 0001:00043C91  8407 0001:00043C9A  8408 0001:00043C9D
  8410 0001:00043CA1  8411 0001:00043CAE  8413 0001:00043CC9  8408 0001:00043CCC
  8415 0001:00043CD0  8416 0001:00043CDC  8419 0001:00043CF1  8420 0001:00043D06
  8421 0001:00043D0B  8426 0001:00043D18  8429 0001:00043D1F  8430 0001:00043D26
  8431 0001:00043D31  8432 0001:00043D42  8434 0001:00043D4C  8435 0001:00043D65
  8436 0001:00043D67  8438 0001:00043D92  8440 0001:00043D99  8442 0001:00043DA0
  8444 0001:00043DA5  8450 0001:00043DF2  8452 0001:00043DF7  8455 0001:00043DFC
  8456 0001:00043E03  8458 0001:00043E09  8461 0001:00043E35  8463 0001:00043E49
  8466 0001:00043E50  8467 0001:00043E56  8470 0001:00043E5C  8471 0001:00043E63
  8474 0001:00043E96  8476 0001:00043E9B  8479 0001:00043EA0  8482 0001:00043EA6
  8483 0001:00043EAD  8484 0001:00043EBA  8486 0001:00043EC0  8487 0001:00043ED5
  8490 0001:00043EF4  8492 0001:00043EF9  8495 0001:00043EFC  8496 0001:00043F02
  8498 0001:00043F08  8499 0001:00043F0F  8501 0001:00043F2D  8506 0001:00043F30
  8507 0001:00043F3F  8510 0001:00043F5D  8511 0001:00043F78  8515 0001:00043F94
  8516 0001:00043F97  8517 0001:00043F9A  8518 0001:00043FA0  8519 0001:00043FA6
  8521 0001:00043FB1  8522 0001:00043FB8  8523 0001:00043FC8  8524 0001:00043FDC
  8527 0001:00043FEC  8528 0001:00043FF3  8529 0001:00043FFA  8531 0001:00044001
  8536 0001:0004400C  8537 0001:0004401C  8538 0001:0004404A  8541 0001:00044054
  8542 0001:00044061  8543 0001:00044069  8544 0001:00044077  8545 0001:00044083
  8548 0001:0004409C  8549 0001:000440B6  8551 0001:000440D0  8553 0001:000440E9
  8555 0001:000440F9  8578 0001:00044100  8579 0001:00044110  8580 0001:0004412E
  8581 0001:0004414F  8583 0001:00044160  8584 0001:0004416B  8586 0001:00044185
  8587 0001:0004418B  8589 0001:00044194  8590 0001:0004419B  8593 0001:000441C5
  8581 0001:000441C6  8594 0001:000441C9  8595 0001:000441D0  8598 0001:000441D8
  8599 0001:000441D9  8600 0001:000441EC  8606 0001:000441F0  8607 0001:000441F8
  8609 0001:00044203  8610 0001:0004420D  8611 0001:00044210  8612 0001:0004421F
  8614 0001:00044223  8615 0001:0004422F  8616 0001:00044235  8617 0001:0004423C
  8619 0001:00044240  8620 0001:00044249  8623 0001:0004425B  8625 0001:00044264
  8626 0001:0004426F  8627 0001:00044284  8628 0001:00044288  8629 0001:00044299
  8630 0001:0004429D  8632 0001:000442AB  8635 0001:000442C2  8642 0001:000442C8
  8643 0001:000442CA  8645 0001:000442D1  8646 0001:000442E3  8647 0001:000442E5
  8648 0001:000442F2  8650 0001:000442FE  8651 0001:00044308  8653 0001:00044324
  8656 0001:00044328  8657 0001:0004432E  8658 0001:00044334  8660 0001:00044347
  8661 0001:00044354  8662 0001:0004436F  8663 0001:00044377  8686 0001:0004437C
  8687 0001:0004438A  8692 0001:0004438C  8693 0001:00044393  8695 0001:0004439E
  8696 0001:000443B6  8698 0001:000443BC  8700 0001:000443D8  8701 0001:000443E6
  8702 0001:000443F7  8703 0001:00044406  8701 0001:00044418  8706 0001:0004441B
  8709 0001:00044420  8710 0001:00044423  8711 0001:0004443A  8714 0001:0004443C
  8715 0001:0004443F  8716 0001:00044449  8717 0001:00044453  8722 0001:00044458
  8723 0001:0004445E  8724 0001:00044467  8725 0001:00044475  8726 0001:0004448B
  8732 0001:00044490  8733 0001:00044495  8734 0001:00044499  8735 0001:000444A4
  8738 0001:000444A8  8740 0001:000444AC  8741 0001:000444BD  8738 0001:000444C0
  8743 0001:000444C4  8745 0001:000444C8  8750 0001:000444D0  8751 0001:000444D3
  8752 0001:000444DC  8753 0001:000444E0  8754 0001:000444E9  8755 0001:000444F2
  8757 0001:00044501  8758 0001:0004450A  8761 0001:0004450C  8762 0001:0004450F
  8763 0001:0004452B  8766 0001:00044530  8767 0001:00044533  8769 0001:0004453C
  8770 0001:00044548  8772 0001:00044552  8775 0001:00044554  8776 0001:00044557
  8777 0001:0004455E  8778 0001:00044564  8783 0001:00044568  8784 0001:00044574
  8785 0001:00044588  8786 0001:000445A4  8787 0001:000445B2  8790 0001:000445CC
  8791 0001:000445E6  8792 0001:00044608  8793 0001:00044628  8794 0001:00044646
  8795 0001:00044669  8796 0001:0004468A  8785 0001:0004468E  8797 0001:00044695
  8800 0001:0004469C  8801 0001:000446A2  8802 0001:000446A6  8803 0001:000446AB
  8804 0001:000446B9  8807 0001:000446BC  8808 0001:000446C2  8809 0001:000446D0
  8812 0001:000446D4  8813 0001:000446D7  8816 0001:000446E8  8817 0001:00044705
  8819 0001:0004470C  8823 0001:00044710  8825 0001:00044718  8826 0001:0004471E
  8828 0001:0004472C  8832 0001:00044730  8834 0001:00044738  8835 0001:0004473E
  8836 0001:00044745  8838 0001:00044753  8861 0001:00044754  8862 0001:0004475D
  8866 0001:00044760  8868 0001:00044768  8869 0001:0004476E  8870 0001:0004477A
  8872 0001:00044788  8875 0001:0004478C  8876 0001:00044790  8877 0001:00044797
  8879 0001:000447A7  8880 0001:000447AA  8885 0001:000447B0  8886 0001:000447B8
  8887 0001:000447C2  8889 0001:000447C6  8890 0001:000447D2  8891 0001:000447D9
  8892 0001:000447E3  8894 0001:000447EA  8895 0001:000447F2  8898 0001:00044804
  8902 0001:0004480C  8903 0001:00044812  8904 0001:0004481C  8905 0001:00044821
  8910 0001:00044824  8911 0001:0004482A  8913 0001:00044832  8914 0001:00044838
  8916 0001:00044843  8917 0001:00044856  8918 0001:0004485F  8920 0001:0004486E
  8922 0001:0004487E  8925 0001:00044884  8926 0001:0004489B  8928 0001:000448A3
  8929 0001:000448A9  8930 0001:000448B6  8932 0001:000448D2  8936 0001:000448F4
  8937 0001:000448FE  8944 0001:00044900  8945 0001:00044908  8947 0001:00044918
  8948 0001:00044920  8949 0001:00044931  8951 0001:0004493D  8952 0001:0004494A
  8954 0001:0004495F  8955 0001:0004496F  8957 0001:00044973  8958 0001:0004497A
  8961 0001:00044985  8962 0001:0004498B  8963 0001:00044992  8964 0001:0004499C
  8965 0001:000449A7  8967 0001:000449AE  8973 0001:000449B8  8974 0001:000449C4
  8975 0001:000449CE  8977 0001:000449DF  8978 0001:000449F0  8979 0001:000449FA
  8980 0001:00044A08  8975 0001:00044A0C  8981 0001:00044A0F  8988 0001:00044A18
  8989 0001:00044A29  8990 0001:00044A2E  8991 0001:00044A3D  8992 0001:00044A4B
  8993 0001:00044A5A  8995 0001:00044A67  8996 0001:00044A74  8997 0001:00044A7A
  8998 0001:00044A91  9000 0001:00044A94  9002 0001:00044A9A  9003 0001:00044A9B
  9006 0001:00044AA7  9007 0001:00044AB1  9009 0001:00044AB2  9010 0001:00044ABE
  9013 0001:00044AEA  9014 0001:00044AED  9017 0001:00044B05  9019 0001:00044B15
  9023 0001:00044B24  9024 0001:00044B2D  9026 0001:00044B3B  9027 0001:00044B49
  9049 0001:00044B50  9050 0001:00044B5E  9052 0001:00044B70  9053 0001:00044B7A
  9054 0001:00044B8A  9050 0001:00044B8B  9055 0001:00044B8E  9058 0001:00044B98
  9059 0001:00044B9E  9060 0001:00044BAF  9061 0001:00044BBB  9062 0001:00044BCC
  9063 0001:00044BD5  9068 0001:00044BD8  9069 0001:00044BDD  9090 0001:00044BE0
  9093 0001:00044BE8  9094 0001:00044BF1  9096 0001:00044BFB  9097 0001:00044BFF
  9098 0001:00044C05  9100 0001:00044C0F  9101 0001:00044C13  9102 0001:00044C19
  9104 0001:00044C26  9105 0001:00044C2D  9106 0001:00044C33  9108 0001:00044C40
  9109 0001:00044C47  9111 0001:00044C4D  9112 0001:00044C59  9113 0001:00044C5E
  9114 0001:00044C60  9115 0001:00044C67  9116 0001:00044C6C  9117 0001:00044C78
  9118 0001:00044C7D  9119 0001:00044C7F  9120 0001:00044C86  9123 0001:00044C8B
  9125 0001:00044C9A  9127 0001:00044CA4  9128 0001:00044CB5  9130 0001:00044CD3
  9131 0001:00044CDD  9132 0001:00044CEA  9133 0001:00044CFB  9134 0001:00044D13
  9135 0001:00044D2B  9136 0001:00044D43  9137 0001:00044D5B  9138 0001:00044D6B
  9139 0001:00044D7B  9140 0001:00044D8B  9142 0001:00044D9B  9143 0001:00044DA9
  9144 0001:00044DAE  9145 0001:00044DB3  9146 0001:00044DB8  9147 0001:00044DBD
  9148 0001:00044DC2  9149 0001:00044DC7  9150 0001:00044DCC  9151 0001:00044DD1
  9153 0001:00044DEB  9155 0001:00044DF7  9158 0001:00044E11  9161 0001:00044E26
  9162 0001:00044E38  9163 0001:00044E3E  9165 0001:00044E44  9167 0001:00044E59
  9169 0001:00044E5D  9170 0001:00044E63  9171 0001:00044E7E  9172 0001:00044E84
  9175 0001:00044EA1  9177 0001:00044EA7  9180 0001:00044EAB  9181 0001:00044EBD
  9182 0001:00044EC3  9184 0001:00044EC9  9186 0001:00044EDE  9188 0001:00044EE2
  9189 0001:00044EE8  9190 0001:00044F03  9191 0001:00044F09  9194 0001:00044F26
  9196 0001:00044F2C  9200 0001:00044F30  9203 0001:00044F3D  9205 0001:00044F4D
  9206 0001:00044F55  9207 0001:00044F5F  9209 0001:00044F67  9211 0001:00044F77
  9212 0001:00044F7F  9213 0001:00044F89  9218 0001:00044F93  9219 0001:00044FA3
  9224 0001:00044FB3  9227 0001:00044FC0  9229 0001:00044FD0  9230 0001:00044FD8
  9231 0001:00044FE2  9233 0001:00044FEA  9235 0001:00044FFA  9236 0001:00045002
  9237 0001:0004500C  9242 0001:00045016  9243 0001:00045026  9247 0001:00045036
  9151 0001:00045039  9248 0001:00045040  9249 0001:00045053  9250 0001:0004505E
  9251 0001:00045079  9252 0001:00045084  9253 0001:00045097  9254 0001:000450A2
  9255 0001:000450BD  9257 0001:000450D5  9258 0001:000450E5  9259 0001:000450F5
  9260 0001:00045105  9262 0001:0004511D  9266 0001:00045130  9267 0001:0004513C
  9268 0001:0004514F  9269 0001:00045162  9272 0001:0004516C  9273 0001:00045175
  9274 0001:00045180  9276 0001:00045191  9277 0001:0004519E  9278 0001:000451A8
  9282 0001:000451AC  9283 0001:000451B1  9287 0001:000451B4  9288 0001:000451BA
  9289 0001:000451C3  9290 0001:000451E1  9296 0001:000451E4  9297 0001:000451F6
  9299 0001:000451FA  9302 0001:00045230  9304 0001:0004523E  9305 0001:00045249
  9306 0001:00045257  9307 0001:0004525F  9308 0001:0004526D  9309 0001:00045284
  9310 0001:0004528F  9313 0001:000452A1  9314 0001:000452B4  9315 0001:000452BC
  9316 0001:000452BE  9317 0001:000452CA  9318 0001:000452D2  9319 0001:000452D4
  9320 0001:000452EE  9308 0001:000452F1  9322 0001:00045301  9323 0001:00045309
  9325 0001:00045319  9326 0001:0004532C  9328 0001:00045336  9329 0001:00045349
  9332 0001:00045358  9333 0001:0004535F  9334 0001:0004536C  9336 0001:00045376
  9337 0001:00045389  9340 0001:00045398  9342 0001:0004539F  9392 0001:000453AC
  9393 0001:000453B3  9394 0001:000453BC  9396 0001:000453C1  9397 0001:000453DB
  9399 0001:000453E4  9400 0001:000453E6  9401 0001:000453F5  9402 0001:00045404
  9404 0001:00045406  9405 0001:00045411  9406 0001:0004541D  9407 0001:00045429
  9411 0001:00045435  9424 0001:0004543C  9426 0001:0004544B  9428 0001:00045467
  9429 0001:00045478  9430 0001:00045486  9431 0001:00045498  9432 0001:000454AA
  9433 0001:000454C0  9434 0001:000454D5  9436 0001:000454EE  9437 0001:000454F8
  9438 0001:0004550C  9441 0001:00045516  9442 0001:00045528  9443 0001:0004553E
  9445 0001:00045554  9447 0001:00045564  9448 0001:00045566  9449 0001:0004557D
  9452 0001:00045594  9453 0001:000455A3  9454 0001:000455B2  9455 0001:000455C1
  9457 0001:000455D0  9460 0001:00045625  9461 0001:0004563E  9463 0001:00045648
  9464 0001:00045653  9467 0001:0004566A  9468 0001:00045677  9469 0001:0004568D
  9470 0001:0004569E  9472 0001:000456B3  9474 0001:000456DC  9478 0001:000456F6
  9480 0001:00045701  9481 0001:00045718  9482 0001:00045727  9501 0001:00045730
  9502 0001:0004573A  9503 0001:00045740  9504 0001:00045779  9505 0001:0004577D
  9507 0001:00045792  9508 0001:00045798  9509 0001:000457A1  9514 0001:000457A8
  9515 0001:000457AB  9516 0001:000457B2  9517 0001:000457B6  9519 0001:000457CB
  9521 0001:000457DE  9523 0001:000457EF  9528 0001:000457F4  9530 0001:00045800
  9531 0001:00045809  9533 0001:00045818  9534 0001:00045827  9535 0001:00045835
  9537 0001:0004584C  9541 0001:00045864  9543 0001:00045870  9544 0001:0004587A
  9548 0001:00045880  9549 0001:00045887  9552 0001:00045888  9553 0001:0004588E
  9555 0001:00045899  9556 0001:0004589D  9558 0001:000458AA  9559 0001:000458B7
  9561 0001:000458C1  9564 0001:000458C8  9565 0001:000458CB  9566 0001:000458D2
  9567 0001:000458DB  9573 0001:000458E0  9576 0001:000458E1  9577 0001:000458E3
  9580 0001:000458E8  9581 0001:000458EA  9578 0001:000458ED  9583 0001:000458FA
  9584 0001:000458FE  9586 0001:00045910  9591 0001:00045914  9595 0001:00045917
  9596 0001:00045919  9600 0001:00045920  9601 0001:00045922  9604 0001:00045924
  9605 0001:00045927  9606 0001:0004593B  9607 0001:0004594F  9610 0001:00045954
  9611 0001:0004595A  9612 0001:00045973  9616 0001:00045978  9617 0001:0004597D
  9621 0001:00045980  9622 0001:0004598B  9627 0001:0004598C  9628 0001:00045994
  9629 0001:00045998  9631 0001:000459A0  9632 0001:000459A6  9633 0001:000459B0
  9634 0001:000459BB  9633 0001:000459D0  9635 0001:000459D3  9638 0001:000459D8
  9639 0001:000459E1  9641 0001:000459E7  9642 0001:000459ED  9644 0001:00045A00
  9645 0001:00045A0B  9648 0001:00045A23  9649 0001:00045A28  9651 0001:00045A2E
  9652 0001:00045A3C  9653 0001:00045A4B  9658 0001:00045A54  9659 0001:00045A60
  9660 0001:00045A7E  9661 0001:00045A84  9662 0001:00045A8E  9663 0001:00045A9C
  9665 0001:00045AB3  9666 0001:00045AB9  9668 0001:00045ACB  9711 0001:00045AD0
  9712 0001:00045AE2  9713 0001:00045AEB  9714 0001:00045AF7  9715 0001:00045B0F
  9716 0001:00045B1F  9719 0001:00045B3C  9720 0001:00045B42  9723 0001:00045B4B
  9724 0001:00045B52  9725 0001:00045B59  9726 0001:00045B62  9728 0001:00045B69
  9729 0001:00045B7C  9730 0001:00045B83  9731 0001:00045B93  9733 0001:00045B9D
  9737 0001:00045BA0  9738 0001:00045BA7  9743 0001:00045BA8  9744 0001:00045BB1
  9745 0001:00045BC2  9746 0001:00045BD0  9748 0001:00045BEB  9750 0001:00045C05
  9755 0001:00045C0C  9756 0001:00045C28  9757 0001:00045C32  9758 0001:00045C36
  9759 0001:00045C3A  9760 0001:00045C58  9762 0001:00045C8F  9765 0001:00045CB4
  9766 0001:00045CB5  9772 0001:00045D16  9776 0001:00045D18  9777 0001:00045D20
  9780 0001:00045D24  9781 0001:00045D3C  9783 0001:00045D43  9784 0001:00045D4C
  9785 0001:00045D70  9786 0001:00045D94  9797 0001:00045DBC  9798 0001:00045DD9
  9799 0001:00045DE3  9800 0001:00045DF1  9801 0001:00045DFB  9802 0001:00045DFF
  9803 0001:00045E0A  9804 0001:00045E1E  9805 0001:00045E2E  9806 0001:00045E42
  9807 0001:00045E52  9808 0001:00045E68  9809 0001:00045E7E  9811 0001:00045EA6
  9814 0001:00045EDD  9815 0001:00045EEF  9817 0001:00045EF5  9818 0001:00045F07
  9819 0001:00045F0D  9821 0001:00045F11  9822 0001:00045F26  9824 0001:00045F2A
  9825 0001:00045F2C  9828 0001:00045F4D  9829 0001:00045F5F  9830 0001:00045F6F
  9832 0001:00045F87  9833 0001:00045F95  9835 0001:00045FA7  9838 0001:00045FB0
  9839 0001:00045FC2  9840 0001:00045FCD  9843 0001:00045FD8  9844 0001:00045FE9
  9845 0001:00045FF7  9847 0001:00046021  9848 0001:00046025  9849 0001:00046029
  9855 0001:00046034  9856 0001:0004603D  9857 0001:00046052  9858 0001:00046060
  9861 0001:00046071  9862 0001:00046081  9864 0001:00046098  9867 0001:000460A0
  9868 0001:000460A6  9869 0001:000460B4  9870 0001:000460C1  9874 0001:000460C4
  9875 0001:000460C6  9883 0001:000460C8  9884 0001:000460D5  9885 0001:000460D8
  9886 0001:000460DB  9887 0001:000460E5  9888 0001:000460EF  9889 0001:000460F7
  9890 0001:00046100  9899 0001:00046108  9900 0001:00046114  9902 0001:0004611F
  9903 0001:00046122  9904 0001:00046125  9905 0001:0004612B  9906 0001:0004613E
  9907 0001:00046140  9909 0001:00046145  9910 0001:00046147  9914 0001:00046150
  9916 0001:00046156  9917 0001:0004615C  9918 0001:00046162  9920 0001:00046172
  9930 0001:00046174  9931 0001:00046182  9932 0001:00046184  9934 0001:0004618F
  9935 0001:000461A6  9936 0001:000461B8  9938 0001:000461BC  9939 0001:000461CB
  9942 0001:000461DB  9945 0001:000461E8  9946 0001:000461F8  9947 0001:000461FA
  9949 0001:0004620A  9950 0001:00046211  9951 0001:00046216  9952 0001:00046227
  9954 0001:0004623E  9957 0001:0004624C  9958 0001:0004624F  9960 0001:00046260
  9961 0001:00046269  9963 0001:0004626E  9966 0001:00046270  9967 0001:0004627C
  9968 0001:00046287  9969 0001:00046294  9971 0001:000462AB  9972 0001:000462AD
  9975 0001:000462B4  9976 0001:000462B7  9977 0001:000462C9  9980 0001:000462CC
  9981 0001:000462CF  9982 0001:000462E1  9985 0001:000462E4  9986 0001:000462E8
  9988 0001:000462F9  9989 0001:00046300  9990 0001:0004630B  9991 0001:0004630F
  9992 0001:00046319  9994 0001:0004632B  9995 0001:0004632D 10000 0001:00046334
 10001 0001:0004634B 10002 0001:00046354 10003 0001:00046368 10004 0001:00046371
 10007 0001:00046390 10008 0001:0004639B 10009 0001:000463A6 10010 0001:000463B2
 10013 0001:000463C0 10014 0001:000463C6 10015 0001:000463CC 10016 0001:000463D5
 10017 0001:000463DB 10020 0001:000463E0 10021 0001:000463EA 10022 0001:000463F8
 10023 0001:00046406 10024 0001:00046416 10025 0001:00046424 10026 0001:00046432
 10028 0001:0004644A 10031 0001:0004646F 10033 0001:00046485 10037 0001:0004648C
 10042 0001:00046490 10043 0001:00046491 10045 0001:00046495 10044 0001:00046498
 10046 0001:000464A7 10050 0001:000464AC 10053 0001:000464CC 10056 0001:000464D0
 10057 0001:000464DC 10058 0001:000464DF 10064 0001:000464F4 10065 0001:000464F6
 10066 0001:000464F9 10068 0001:000464FD 10069 0001:00046500 10066 0001:00046501
 10071 0001:00046505 10076 0001:00046508 10077 0001:0004650A 10078 0001:0004650C
 10079 0001:00046513 10081 0001:00046517 10082 0001:00046520 10079 0001:00046521
 10084 0001:00046525 10089 0001:0004652C 10090 0001:0004652E 10091 0001:00046535
 10094 0001:0004653B 10095 0001:0004653D 10096 0001:00046544 10098 0001:00046548
 10099 0001:00046553 10096 0001:00046556 10101 0001:0004655A 10103 0001:0004655C
 10109 0001:00046564 10110 0001:0004656C 10112 0001:00046570 10114 0001:00046573
 10115 0001:0004657C 10116 0001:00046587 10117 0001:0004658C 10119 0001:00046598
 10120 0001:000465AB 10126 0001:000465AC 10127 0001:000465B4 10129 0001:000465B8
 10131 0001:000465BB 10132 0001:000465C4 10133 0001:000465CF 10134 0001:000465D4
 10136 0001:000465E0 10137 0001:000465F3 10143 0001:000465F4 10144 0001:000465FF
 10147 0001:00046603 10150 0001:00046613 10151 0001:0004661E 10154 0001:00046620
 10145 0001:00046622 10156 0001:0004662A 10157 0001:00046639 10158 0001:0004664B
 10159 0001:00046655 10160 0001:0004665E 10162 0001:00046667 10164 0001:0004666C
 10170 0001:00046678 10171 0001:00046683 10174 0001:000466A6 10175 0001:000466B3
 10176 0001:000466C3 10177 0001:000466C9 10179 0001:000466D3 10183 0001:000466DC
 10186 0001:000466E0 10188 0001:000466EA 10189 0001:000466FC 10192 0001:000466FE
 10184 0001:00046701 10194 0001:00046709 10195 0001:00046716 10197 0001:0004671B
 10199 0001:00046724 10206 0001:00046730 10207 0001:00046735 10208 0001:0004674E
 10209 0001:00046757 10210 0001:00046765 10211 0001:00046775 10213 0001:00046785
 10215 0001:00046787 10216 0001:00046799 10218 0001:0004679D 10219 0001:000467A3
 10221 0001:000467AE 10222 0001:000467C0 10223 0001:000467C7 10216 0001:000467D0
 10225 0001:000467D4 10228 0001:000467D8 10229 0001:000467DF 10230 0001:000467E6
 10232 0001:000467ED 10233 0001:000467F3 10234 0001:0004680A 10236 0001:00046817
 10241 0001:0004681C 10242 0001:00046826 10243 0001:0004682B 10245 0001:00046831
 10246 0001:00046843 10247 0001:0004684B 10249 0001:00046851 10250 0001:00046857
 10251 0001:00046865 10253 0001:00046884 10257 0001:00046894 10264 0001:000468A0
 10265 0001:000468A5 10266 0001:000468A7 10267 0001:000468B0 10269 0001:000468B4
 10271 0001:000468BF 10272 0001:000468C1 10274 0001:000468C3 10267 0001:000468C6
 10276 0001:000468CA 10281 0001:000468D0 10282 0001:000468DC 10284 0001:00046904
 10285 0001:00046914 10286 0001:00046923 10287 0001:00046932 10289 0001:0004693D
 10290 0001:00046949 10292 0001:00046954 10294 0001:0004695D 10300 0001:000469D9
 10301 0001:000469E5 10303 0001:000469F0 10305 0001:000469F9 10306 0001:00046A21
 10307 0001:00046A34 10309 0001:00046A42 10312 0001:00046A4C 10313 0001:00046A4F
 10315 0001:00046A65 10317 0001:00046A6E 10318 0001:00046A71 10322 0001:00046A74
 10323 0001:00046A77 10330 0001:00046A78 10332 0001:00046A7D 10331 0001:00046A7F
 10333 0001:00046A86 10337 0001:00046A88 10338 0001:00046A8F 10339 0001:00046A98
 10340 0001:00046A9B 10342 0001:00046A9F 10344 0001:00046AAA 10345 0001:00046AB3
 10347 0001:00046ABC 10340 0001:00046ABF 10349 0001:00046AC3 10354 0001:00046AC8
 10355 0001:00046ACD 10356 0001:00046AD0 10359 0001:00046AD4 10362 0001:00046AFC
 10363 0001:00046B03 10365 0001:00046B15 10366 0001:00046B1C 10356 0001:00046B1F
 10368 0001:00046B23 10372 0001:00046B28 10373 0001:00046B30 10376 0001:00046B34
 10377 0001:00046B35 10379 0001:00046B3A 10378 0001:00046B3D 10380 0001:00046B4C
 10384 0001:00046B50 10385 0001:00046B58 10396 0001:00046B5C 10397 0001:00046B7A
 10398 0001:00046B84 10399 0001:00046B8E 10400 0001:00046B97 10401 0001:00046BA1
 10402 0001:00046BAB 10403 0001:00046BC6 10404 0001:00046BDB 10405 0001:00046BEF
 10407 0001:00046C04 10408 0001:00046C0C 10409 0001:00046C1A 10410 0001:00046C2C
 10409 0001:00046C45 10411 0001:00046C48 10413 0001:00046C60 10415 0001:00046C70
 10417 0001:00046C79 10418 0001:00046C8E 10420 0001:00046CA1 10423 0001:00046CC4
 10424 0001:00046CCF 10426 0001:00046CD5 10427 0001:00046CE4 10429 0001:00046CEC
 10430 0001:00046CF6 10431 0001:00046CFE 10432 0001:00046D0A 10438 0001:00046D18
 10439 0001:00046D24 10440 0001:00046D28 10441 0001:00046D2C 10445 0001:00046D30
 10446 0001:00046D33 10450 0001:00046D34 10451 0001:00046D37 10453 0001:00046D3D
 10454 0001:00046D42 10456 0001:00046D47 10463 0001:00046D48 10464 0001:00046D4E
 10465 0001:00046D59 10468 0001:00046D62 10469 0001:00046D71 10471 0001:00046D7E
 10472 0001:00046D8D 10474 0001:00046D9A 10476 0001:00046DA0 10477 0001:00046DA9
 10478 0001:00046DAE 10479 0001:00046DC4 10480 0001:00046DC7 10485 0001:00046DCC
 10486 0001:00046DD3 10488 0001:00046DE0 10490 0001:00046DF1 10491 0001:00046E02
 10493 0001:00046E08 10494 0001:00046E0B 10495 0001:00046E12 10496 0001:00046E1B
 10501 0001:00046E20 10502 0001:00046E28 10503 0001:00046E2F 10504 0001:00046E33
 10506 0001:00046E43 10508 0001:00046E8A 10514 0001:00046E94 10515 0001:00046E99
 10516 0001:00046EA1 10517 0001:00046EA3 10530 0001:00046EA4 10531 0001:00046EB4
 10532 0001:00046EBE 10534 0001:00046EC5 10535 0001:00046EC8 10537 0001:00046ED2
 10540 0001:00046EDF 10541 0001:00046EEA 10542 0001:00046EF8 10543 0001:00046EFE
 10544 0001:00046F07 10546 0001:00046F10 10547 0001:00046F1D 10549 0001:00046F2D
 10550 0001:00046F4E 10551 0001:00046F59 10552 0001:00046F63 10553 0001:00046F71
 10554 0001:00046F77 10555 0001:00046F7A 10560 0001:00046F82 10561 0001:00046F92
 10562 0001:00046F9B 10563 0001:00046FA8 10564 0001:00046FB5 10565 0001:00046FC3
 10569 0001:00046FCE 10570 0001:00046FD8 10573 0001:00046FE6 10574 0001:00046FFC
 10578 0001:00047011 10579 0001:00047027 10583 0001:0004703A 10584 0001:00047048
 10585 0001:0004704B 10586 0001:00047051 10588 0001:0004705D 10589 0001:00047064
 10590 0001:0004706A 10593 0001:0004706D 10597 0001:0004708C 10600 0001:000470A9
 10601 0001:000470B4 10607 0001:000470C0 10608 0001:000470CE 10609 0001:000470DE
 10610 0001:000470E5 10613 0001:000470ED 10614 0001:000470F7 10615 0001:00047102
 10616 0001:00047109 10617 0001:00047115 10619 0001:0004711B 10620 0001:00047121
 10621 0001:00047127 10622 0001:0004712D 10623 0001:00047133 10624 0001:00047139
 10625 0001:0004713C 10628 0001:0004714E 10629 0001:00047154 10630 0001:0004715A
 10631 0001:00047160 10632 0001:00047166 10633 0001:0004716C 10634 0001:0004716F
 10635 0001:0004717F 10636 0001:00047191 10637 0001:000471A1 10639 0001:000471BA
 10644 0001:000471CB 10645 0001:000471DB 10646 0001:000471E1 10647 0001:000471E7
 10648 0001:000471EB 10649 0001:000471EE 10650 0001:000471F4 10651 0001:000471F8
 10652 0001:000471FB 10653 0001:00047203 10654 0001:00047206 10655 0001:0004720C
 10656 0001:0004720F 10659 0001:00047215 10660 0001:00047218 10661 0001:0004721D
 10662 0001:00047223 10666 0001:0004722B 10667 0001:00047231 10668 0001:00047237
 10669 0001:0004723C 10673 0001:00047242 10674 0001:00047249 10675 0001:00047250
 10676 0001:0004725F 10680 0001:00047268 10681 0001:00047271 10684 0001:00047275
 10685 0001:0004727B 10687 0001:00047281 10686 0001:00047283 10689 0001:0004728A
 10692 0001:0004728E 10693 0001:00047294 10694 0001:00047297 10695 0001:0004729D
 10696 0001:000472A1 10697 0001:000472A4 10701 0001:000472A9 10702 0001:000472AC
 10703 0001:000472B2 10704 0001:000472B6 10705 0001:000472B9 10706 0001:000472BC
 10707 0001:000472C2 10708 0001:000472C7 10711 0001:000472CA 10712 0001:000472D2
 10713 0001:000472DA 10719 0001:000472E0 10720 0001:000472F0 10721 0001:000472F4
 10722 0001:00047302 10723 0001:00047311 10725 0001:0004731A 10728 0001:00047356
 10729 0001:0004735A 10730 0001:0004735D 10731 0001:0004736A 10733 0001:00047375
 10738 0001:00047380 10741 0001:000473AE 10742 0001:000473B2 10743 0001:000473C2
 10745 0001:000473CD 10748 0001:000473D6 10755 0001:000473E4 10756 0001:000473EF
 10758 0001:000473FF 10762 0001:0004740B 10765 0001:0004742B 10766 0001:0004743D
 10769 0001:0004745E 10756 0001:0004745F 10770 0001:00047464 10771 0001:00047466
 10779 0001:00047470 10781 0001:00047477 10785 0001:000474AD 10786 0001:000474B9
 10789 0001:000474C1 10793 0001:000474F5 10794 0001:00047501 10797 0001:00047509
 10799 0001:0004750F 10800 0001:0004752D 10803 0001:00047533 10804 0001:00047547
 10805 0001:00047558 10806 0001:0004756C 10807 0001:0004757D 10810 0001:00047584
 10811 0001:00047594 10812 0001:00047599 10813 0001:000475A0 10814 0001:000475AD
 10816 0001:000475BF 10817 0001:000475CC 10818 0001:000475D2 10820 0001:000475DD
 10821 0001:000475F0 10822 0001:00047602 10823 0001:00047605 10833 0001:0004760C
 10834 0001:00047614 10835 0001:0004761B 10836 0001:0004762E 10838 0001:00047634
 10839 0001:0004763E 10841 0001:0004764E 10851 0001:00047654 10852 0001:00047679
 10853 0001:00047687 10854 0001:00047691 10855 0001:00047699 10856 0001:000476A7
 10857 0001:000476B7 10860 0001:000476C0 10861 0001:000476C7 10863 0001:000476CD
 10867 0001:000476D8 10868 0001:000476EB 10871 0001:000476FD 10873 0001:0004773B
 10874 0001:0004774B 10876 0001:0004775E 10877 0001:00047768 10879 0001:0004776E
 10880 0001:00047783 10882 0001:00047789 10883 0001:00047793 10886 0001:000477A5
 10874 0001:000477A8 10888 0001:000477AD 10890 0001:000477C0 10891 0001:000477C9
 10893 0001:000477EB 10894 0001:000477F0 10900 0001:000477F2 10901 0001:00047802
 10903 0001:00047811 10904 0001:00047822 10905 0001:00047832 10906 0001:00047842
 10907 0001:0004784B 10908 0001:00047867 10909 0001:00047871 10910 0001:00047877
 10913 0001:00047885 10914 0001:0004788C 10917 0001:00047891 10918 0001:00047897
 10919 0001:000478A2 10926 0001:000478AA 10928 0001:000478B6 10929 0001:000478B9
 10930 0001:000478BC 10935 0001:000478C4 10936 0001:000478C7 10937 0001:000478CA
 10939 0001:000478D2 10941 0001:000478DA 10942 0001:000478DD 10944 0001:000478E2
 10946 0001:000478EA 10947 0001:000478ED 10948 0001:00047912 10949 0001:00047918
 10950 0001:0004791E 10952 0001:00047927 10953 0001:0004792D 10896 0001:0004792F
 10956 0001:00047941 10959 0001:0004794B 10960 0001:00047954 10961 0001:00047969
 10963 0001:00047979 10972 0001:000479A8 10973 0001:000479B5 10974 0001:000479DD
 10976 0001:000479EB 10977 0001:000479FA 10980 0001:00047A1C 10981 0001:00047A35
 10984 0001:00047A3C 10987 0001:00047A48 10988 0001:00047A5B 10989 0001:00047A6A
 10990 0001:00047A79 10991 0001:00047A89 10992 0001:00047A9C 10993 0001:00047AAC
 10995 0001:00047ABC 11002 0001:00047AC4 11003 0001:00047AD3 11004 0001:00047AE7
 11005 0001:00047AF6 11006 0001:00047B16 11008 0001:00047B20 11010 0001:00047B30
 11012 0001:00047B43 11013 0001:00047B51 11015 0001:00047B5F 11020 0001:00047B89
 11021 0001:00047BAB 11026 0001:00047BD2 11027 0001:00047BE7 11029 0001:00047BF5
 11034 0001:00047C1E 11035 0001:00047C44 11038 0001:00047C6A 11046 0001:00047C74
 11047 0001:00047C81 11048 0001:00047C90 11049 0001:00047C9E 11050 0001:00047CA9
 11051 0001:00047CB1 11052 0001:00047CBF 11053 0001:00047CC9 11054 0001:00047CD7
 11056 0001:00047CEF 11057 0001:00047CFC 11059 0001:00047D0D 11060 0001:00047D17
 11061 0001:00047D22 11062 0001:00047D2E 11064 0001:00047D3E 11054 0001:00047D41
 11066 0001:00047D53 11069 0001:00047D72 11072 0001:00047D8F 11074 0001:00047D9F
 11081 0001:00047DA8 11082 0001:00047DB5 11085 0001:00047DBF 11088 0001:00047DD5
 11090 0001:00047E05 11092 0001:00047E0D 11093 0001:00047E26 11094 0001:00047E3F
 11095 0001:00047E56 11096 0001:00047E6F 11102 0001:00047E84 11103 0001:00047E8A
 11104 0001:00047E90 11105 0001:00047E95 11106 0001:00047E9B 11107 0001:00047EA7
 11108 0001:00047EB2 11109 0001:00047EBB 11110 0001:00047EC8 11111 0001:00047ED4
 11112 0001:00047ED9 11114 0001:00047EDF 11116 0001:00047F02 11117 0001:00047F18
 11122 0001:00047F24 11124 0001:00047F2A 11125 0001:00047F31 11127 0001:00047F3B
 11128 0001:00047F42 11130 0001:00047F4C 11131 0001:00047F53 11133 0001:00047F58
 11134 0001:00047F61 11136 0001:00047F65 11138 0001:00047F73 11139 0001:00047F7A
 11140 0001:00047F82 11141 0001:00047F89 11142 0001:00047F8F 11143 0001:00047F96
 11145 0001:00047F9C 11146 0001:00047FA6 11147 0001:00047FAD 11152 0001:00047FB4
 11153 0001:00047FBA 11154 0001:00047FC3 11156 0001:00047FC7 11157 0001:00047FCC
 11159 0001:00047FD3 11160 0001:00047FDC 11162 0001:00047FE3 11164 0001:00047FEE
 11170 0001:00047FF4 11171 0001:00048012 11172 0001:00048016 11173 0001:00048051
 11174 0001:00048057 11175 0001:00048092 11176 0001:0004809A 11178 0001:0004809F
 11179 0001:000480A7 11181 0001:000480B0 11184 0001:000480B9 11185 0001:000480C0
 11186 0001:000480C5 11188 0001:000480C7 11191 0001:000480CD 11194 0001:000480D7
 11195 0001:000480DD 11196 0001:000480E2 11197 0001:000480E7 11198 0001:000480F8
 11202 0001:00048101 11203 0001:00048105 11204 0001:0004810B 11205 0001:00048110
 11207 0001:00048117 11213 0001:0004812C 11216 0001:00048134 11217 0001:0004813E
 11218 0001:00048149 11219 0001:00048151 11220 0001:00048154 11221 0001:00048159
 11222 0001:0004815E 11223 0001:00048163 11225 0001:0004816F 11229 0001:0004817A
 11230 0001:00048183 11231 0001:0004818C 11233 0001:00048197 11234 0001:000481A0
 11235 0001:000481A3 11236 0001:000481AC 11238 0001:000481B2 11239 0001:000481B5
 11240 0001:000481BE 11241 0001:000481C4 11242 0001:000481CD 11243 0001:000481D3
 11244 0001:000481D9 11245 0001:000481E9 11246 0001:000481F1 11253 0001:000481FA
 11254 0001:00048202 11261 0001:0004820B 11265 0001:00048212 11266 0001:0004821B
 11267 0001:00048223 11273 0001:0004822A 11274 0001:00048230 11275 0001:00048237
 11276 0001:0004823A 11277 0001:0004824B 11279 0001:00048253 11281 0001:00048263
 11282 0001:0004826A 11287 0001:00048294 11288 0001:0004829E 11292 0001:000482CE
 11293 0001:000482D8 11294 0001:000482E5 11296 0001:000482FC 11297 0001:00048309
 11300 0001:0004831A 11301 0001:00048326 11305 0001:00048333 11306 0001:00048340
 11309 0001:0004834A 11311 0001:00048356 11312 0001:0004835F 11316 0001:00048374
 11319 0001:0004837C 11320 0001:00048383 11321 0001:00048387 11322 0001:00048397
 11324 0001:000483B5 11331 0001:000483BC 11332 0001:000483DC 11333 0001:000483EB
 11334 0001:000483FE 11335 0001:00048415 11340 0001:00048438 11346 0001:00048458
 11349 0001:00048473 11350 0001:00048486 11351 0001:00048499 11352 0001:000484A5
 11354 0001:000484C9 11355 0001:000484CF 11356 0001:000484E2 11360 0001:000484F9
 11361 0001:00048500 11363 0001:0004850E 11364 0001:00048515 11365 0001:00048522
 11371 0001:00048548 11373 0001:00048569 11375 0001:0004857C 11376 0001:0004858F
 11378 0001:000485A5 11379 0001:000485B4 11380 0001:000485C2 11382 0001:000485DC
 11383 0001:000485EC 11384 0001:000485F8 11385 0001:00048603 11380 0001:00048606
 11387 0001:00048609 11388 0001:00048614 11389 0001:00048624 11391 0001:0004865F
 11394 0001:0004866F 11395 0001:00048678 11397 0001:0004869F 11398 0001:000486A8
 11400 0001:000486B8 11401 0001:000486C7 11402 0001:000486D9 11407 0001:000486FC
 11408 0001:00048703 11410 0001:00048707 11412 0001:00048728 11413 0001:00048738
 11415 0001:0004874A 11417 0001:0004875B 11418 0001:0004876C 11420 0001:0004877D
 11422 0001:00048784 11423 0001:0004878B 11424 0001:00048798 11426 0001:000487A1
 11427 0001:000487AF 11430 0001:000487B4 11431 0001:000487BA 11432 0001:000487C6
 11435 0001:000487CC 11436 0001:000487D2 11438 0001:000487E7 11439 0001:000487FA
 11442 0001:00048800 11443 0001:0004880F 11444 0001:00048812 11445 0001:00048826
 11446 0001:00048833 11448 0001:00048843 11449 0001:00048850 11450 0001:00048857
 11453 0001:00048860 11454 0001:00048863 11455 0001:0004886F 11456 0001:00048876
 11457 0001:00048883 11458 0001:0004888F 11459 0001:000488A3 11460 0001:000488B5
 11461 0001:000488C2 11462 0001:000488D5 11463 0001:000488DA 11466 0001:000488DC
 11467 0001:000488DF 11468 0001:000488F1 11469 0001:00048900 11473 0001:00048904
 11474 0001:00048911 11477 0001:00048914 11478 0001:0004891A 11479 0001:00048923
 11485 0001:00048928 11486 0001:0004892F 11490 0001:0004893A 11492 0001:00048943
 11493 0001:00048952 11494 0001:00048965 11495 0001:00048979 11498 0001:00048986
 11499 0001:00048998 11500 0001:000489A8 11501 0001:000489B2 11504 0001:000489C7
 11505 0001:000489DB 11507 0001:00048A01 11509 0001:00048A0B 11516 0001:00048A14
 11517 0001:00048A1C 11521 0001:00048A64 11522 0001:00048A7D 11523 0001:00048A8E
 11524 0001:00048A9F 11526 0001:00048AA4 11527 0001:00048AB1 11528 0001:00048ABB
 11530 0001:00048AC7 11531 0001:00048ADE 11532 0001:00048AEB 11533 0001:00048AEE
 11541 0001:00048AF4 11542 0001:00048B01 11543 0001:00048B03 11545 0001:00048B07
 11546 0001:00048B11 11547 0001:00048B1B 11549 0001:00048B33 11550 0001:00048B37
 11552 0001:00048B4F 11553 0001:00048B53 11554 0001:00048B65 11556 0001:00048B67
 11559 0001:00048B70 11560 0001:00048B77 11561 0001:00048B82 11563 0001:00048B93
 11565 0001:00048B98 11566 0001:00048BAA 11568 0001:00048BB7 11569 0001:00048BC2
 11570 0001:00048BD1 11571 0001:00048BEB 11577 0001:00048BF0 11578 0001:00048BF9
 11580 0001:00048C15 11581 0001:00048C22 11582 0001:00048C33 11585 0001:00048C3A
 11586 0001:00048C3C 11587 0001:00048C54 11588 0001:00048C5F 11590 0001:00048C68
 11592 0001:00048C82 11596 0001:00048C86 11598 0001:00048C99 11599 0001:00048CAC
 11602 0001:00048CBA 11604 0001:00048CC5 11606 0001:00048CD9 11610 0001:00048CDD
 11611 0001:00048CF0 11615 0001:00048CFC 11616 0001:00048D00 11617 0001:00048D08
 11618 0001:00048D22 11624 0001:00048D28 11625 0001:00048D37 11626 0001:00048D41
 11628 0001:00048D45 11629 0001:00048D49 11631 0001:00048D52 11632 0001:00048D59
 11635 0001:00048D69 11637 0001:00048D6D 11638 0001:00048D89 11639 0001:00048D8D
 11641 0001:00048D92 11642 0001:00048D94 11644 0001:00048DAA 11654 0001:00048DB0
 11655 0001:00048DBB 11656 0001:00048DC0 11659 0001:00048E2A 11660 0001:00048E39
 11662 0001:00048E4B 11665 0001:00048E70 11668 0001:00048E9E 11671 0001:00048ECC
 11674 0001:00048EF4 11677 0001:00048F1C 11680 0001:00048F44 11684 0001:00048F6C
 11685 0001:00048F72 11687 0001:00048F8F 11690 0001:00048FB3 11691 0001:00048FC2
 11693 0001:00048FCD 11694 0001:00048FEE 11695 0001:00048FF5 11702 0001:00048FFC
 11703 0001:00049004 11704 0001:0004900A 11705 0001:0004901E 11708 0001:00049023
 11709 0001:00049031 11710 0001:00049039 11716 0001:00049048 11717 0001:00049051
 11718 0001:0004906C 11721 0001:00049078 11722 0001:00049081 11723 0001:00049085
 11725 0001:000490A2 11726 0001:000490A4 11730 0001:000490B0 11731 0001:000490B5
 11733 0001:000490C7 11734 0001:000490D8 11739 0001:000490DC 11741 0001:000490DD
 11742 0001:000490E6 11743 0001:000490F1 11744 0001:00049102 11745 0001:00049111
 11746 0001:00049115 11747 0001:00049118 11755 0001:0004911C 11756 0001:00049129
 11758 0001:00049131 11760 0001:00049137 11761 0001:00049154 11763 0001:0004915C
 11765 0001:00049170 11766 0001:00049175 11771 0001:00049188 11772 0001:000491A5
 11774 0001:000491AD 11776 0001:000491B3 11778 0001:000491CF 11780 0001:000491D5
 11783 0001:00049209 11785 0001:00049214 11787 0001:00049226 11788 0001:00049230
 11793 0001:00049236 11802 0001:00049240 11803 0001:0004924C 11804 0001:00049251
 11806 0001:0004925F 11807 0001:0004926D 11808 0001:00049279 11809 0001:00049287
 11812 0001:00049295 11813 0001:000492A3 11814 0001:000492AF 11815 0001:000492BD
 11817 0001:000492C9 11818 0001:000492D0 11819 0001:000492DC 11821 0001:000492E5
 11822 0001:000492ED 11823 0001:00049309 11824 0001:00049310 11827 0001:00049318
 11834 0001:00049320 11835 0001:0004932A 11837 0001:0004932E 11839 0001:00049334
 11840 0001:00049351 11842 0001:0004935B 11843 0001:0004936F 11845 0001:00049378
 11849 0001:00049383 11851 0001:0004938A 11858 0001:00049394 11859 0001:000493BC
 11860 0001:000493CB 11861 0001:000493D1 11862 0001:000493DE 11864 0001:000493EF
 11865 0001:000493F9 11866 0001:00049404 11867 0001:0004940F 11868 0001:0004941A
 11869 0001:0004942C 11870 0001:0004943E 11871 0001:00049453 11873 0001:0004945F
 11878 0001:00049488 11879 0001:0004949A 11880 0001:000494A3 11881 0001:000494A7
 11884 0001:000494AE 11889 0001:000494F3 11890 0001:000494FC 11893 0001:00049518
 11894 0001:0004951B 11895 0001:0004951D 11897 0001:00049529 11898 0001:00049532
 11899 0001:0004953C 11901 0001:0004953F 11904 0001:00049544 11905 0001:0004954F
 11906 0001:00049558 11907 0001:00049564 11911 0001:00049574 11912 0001:00049579
 11915 0001:0004957C 11917 0001:0004957F 11919 0001:0004958A 11923 0001:0004958C
 11924 0001:00049596 11927 0001:00049598 11928 0001:0004959C 11929 0001:000495B8
 11932 0001:000495BC 11933 0001:000495BF 11934 0001:000495D3 11937 0001:000495D8
 11938 0001:000495DC 11939 0001:000495F0 11940 0001:000495F4 11941 0001:00049603
 11946 0001:00049608 11947 0001:0004960C 11949 0001:00049622 11950 0001:0004962C
 11953 0001:00049630 11954 0001:00049636 11956 0001:00049641 11957 0001:0004964C
 11959 0001:00049652 11969 0001:00049658 11970 0001:0004965E 11972 0001:00049665
 11973 0001:00049669 11974 0001:00049671 11976 0001:00049674 11979 0001:00049678
 11980 0001:0004967B 11983 0001:00049687 11984 0001:0004968E 11985 0001:0004969D
 11988 0001:000496A6 11990 0001:000496AC 11991 0001:000496B2 11993 0001:000496C3
 11996 0001:000496D7 12027 0001:000496DC 12028 0001:000496E1 12029 0001:000496F0
 12030 0001:000496FD 12031 0001:0004970B 12033 0001:00049714 12035 0001:00049720
 12042 0001:00049730 12044 0001:0004973D 12045 0001:0004974C 12048 0001:00049759
 12049 0001:0004976E 12050 0001:00049783 12051 0001:00049798 12052 0001:000497AD
 12053 0001:000497C2 12054 0001:000497D7 12055 0001:000497EC 12056 0001:00049801
 12057 0001:00049816 12074 0001:00049838 12076 0001:00049849 12080 0001:00049944
 12081 0001:0004994D 12083 0001:0004995C 12084 0001:0004995E 12100 0001:00049960
 12101 0001:0004996A 12103 0001:00049982 12105 0001:00049986 12106 0001:0004998F
 12109 0001:00049994 12111 0001:0004999D 12113 0001:000499AA 12114 0001:000499B3
 12116 0001:000499B7 12118 0001:000499C8 12119 0001:000499D4 12120 0001:000499DF
 12122 0001:000499EA 12123 0001:000499F3 12124 0001:00049A04 12127 0001:00049A19
 12128 0001:00049A2A 12129 0001:00049A32 12212 0001:00049A38 12213 0001:00049A41
 12215 0001:00049A49 12216 0001:00049A4B 12279 0001:00049A4C 12280 0001:00049A58
 12281 0001:00049A61 12282 0001:00049A6D 12283 0001:00049A76 12284 0001:00049A80
 12285 0001:00049A87 12286 0001:00049A91 12287 0001:00049A9E 12288 0001:00049AA8
 12289 0001:00049AB5 12290 0001:00049ABF 12291 0001:00049AD3 12296 0001:00049AD4
 12297 0001:00049AF1 12298 0001:00049B1D 12299 0001:00049B33 12300 0001:00049B6E
 12301 0001:00049B84 12302 0001:00049B99 12303 0001:00049BAA 12304 0001:00049BAF
 12305 0001:00049BC0 12306 0001:00049BD6 12307 0001:00049BEC 12308 0001:00049BFA
 12309 0001:00049C0E 12310 0001:00049C1A 12311 0001:00049C1E 12312 0001:00049C2E
 12465 0001:00049CA0 12466 0001:00049CB5 12467 0001:00049CBE 12468 0001:00049CC1
 12469 0001:00049CC8 12472 0001:00049CE4 12473 0001:00049CEA 12476 0001:00049CFB
 12477 0001:00049D03 12478 0001:00049D09 12479 0001:00049D0F 12480 0001:00049D15
 12483 0001:00049D1D 12484 0001:00049D26 12487 0001:00049D2C 12488 0001:00049D2D
 12489 0001:00049D34 12490 0001:00049D3E 12496 0001:00049D40 12497 0001:00049D47
 12498 0001:00049D4E 12499 0001:00049D55 12501 0001:00049D5C 12504 0001:00049D60
 12505 0001:00049D63 12507 0001:00049D72 12509 0001:00049D77 12510 0001:00049D7A
 12513 0001:00049D83 12515 0001:00049D88 12516 0001:00049D8B 12519 0001:00049D94
 12521 0001:00049D99 12522 0001:00049D9C 12525 0001:00049DA5 12527 0001:00049DAA
 12528 0001:00049DAD 12531 0001:00049DB4 12534 0001:00049DB8 12535 0001:00049DC6
 12537 0001:00049DD4 12539 0001:00049DDA 12540 0001:00049DE1 12542 0001:00049DE7
 12543 0001:00049DF5 12544 0001:00049E10 12546 0001:00049E52 12548 0001:00049E79
 12550 0001:00049E7F 12551 0001:00049E8C 12555 0001:00049E9A 12575 0001:00049EA4
 12576 0001:00049EA7 12577 0001:00049EA9 12578 0001:00049EB3 12580 0001:00049EE3
 12581 0001:00049EF8 12583 0001:00049F06 12585 0001:00049F11 12586 0001:00049F26
 12588 0001:00049F34 12590 0001:00049F3F 12591 0001:00049F54 12593 0001:00049F65
 12595 0001:00049F70 12596 0001:00049F85 12598 0001:00049F96 12600 0001:00049FA1
 12601 0001:00049FB6 12603 0001:00049FC7 12605 0001:00049FD5 12606 0001:00049FEA
 12608 0001:00049FF8 12610 0001:0004A003 12611 0001:0004A018 12613 0001:0004A029
 12615 0001:0004A034 12616 0001:0004A049 12618 0001:0004A05A 12620 0001:0004A063
 12627 0001:0004A068 12639 0001:0004A06C 12640 0001:0004A08F 12642 0001:0004A094

Line numbers for Controls(Controls.pas) segment .itext

 12629 0002:00000594 12630 0002:000005AE 12631 0002:000005C3 12632 0002:000005C8
 12633 0002:000005D2 12634 0002:000005DC 12635 0002:000005EC 12636 0002:000005FC
 12638 0002:0000060C

Line numbers for Menus(Menus.pas) segment .text

   460 0001:0004B00C   461 0001:0004B011   462 0001:0004B013   463 0001:0004B01C
   465 0001:0004B020   466 0001:0004B031   468 0001:0004B037   474 0001:0004B040
   475 0001:0004B044   477 0001:0004B048   478 0001:0004B04B   479 0001:0004B064
   484 0001:0004B068   485 0001:0004B073   486 0001:0004B075   487 0001:0004B07B
   488 0001:0004B07F   489 0001:0004B089   490 0001:0004B093   491 0001:0004B09D
   517 0001:0004B0A0   518 0001:0004B0B0   519 0001:0004B0B7   520 0001:0004B0C6
   522 0001:0004B0CA   523 0001:0004B0DC   525 0001:0004B0EE   530 0001:0004B0F4
   531 0001:0004B113   533 0001:0004B18F   534 0001:0004B1A6   535 0001:0004B1B9
   537 0001:0004B1CC   539 0001:0004B1E3   540 0001:0004B1FA   541 0001:0004B20D
   542 0001:0004B220   543 0001:0004B233   545 0001:0004B253   547 0001:0004B25F
   549 0001:0004B265   550 0001:0004B26C   551 0001:0004B27F   552 0001:0004B292
   553 0001:0004B2A5   555 0001:0004B2B1   556 0001:0004B2B8   567 0001:0004B2EC
   568 0001:0004B2F9   569 0001:0004B2FD   572 0001:0004B349   573 0001:0004B34D
   575 0001:0004B368   580 0001:0004B374   581 0001:0004B39B   582 0001:0004B3A1
   585 0001:0004B3A7   586 0001:0004B3C1   587 0001:0004B3DA   588 0001:0004B3F4
   583 0001:0004B40C   591 0001:0004B40E   592 0001:0004B414   593 0001:0004B418
   595 0001:0004B467   596 0001:0004B46F   597 0001:0004B471   592 0001:0004B472
   598 0001:0004B479   606 0001:0004B4B8   607 0001:0004B4B9   608 0001:0004B4C5
   609 0001:0004B4D4   623 0001:0004B4D8   624 0001:0004B4E7   625 0001:0004B4EB
   628 0001:0004B4F1   629 0001:0004B4FD   631 0001:0004B50C   632 0001:0004B50F
   633 0001:0004B512   634 0001:0004B514   635 0001:0004B517   636 0001:0004B51A
   638 0001:0004B51D   626 0001:0004B51F   640 0001:0004B530   642 0001:0004B53C
   643 0001:0004B54D   644 0001:0004B552   645 0001:0004B557   646 0001:0004B559
   647 0001:0004B55B   648 0001:0004B568   649 0001:0004B578   652 0001:0004B581
   653 0001:0004B585   654 0001:0004B589   655 0001:0004B59F   656 0001:0004B5B6
   659 0001:0004B5D3   660 0001:0004B5DA   662 0001:0004B5EF   663 0001:0004B60C
   650 0001:0004B628   665 0001:0004B640   670 0001:0004B648   671 0001:0004B64E
   672 0001:0004B65E   675 0001:0004B664   676 0001:0004B667   677 0001:0004B688
   680 0001:0004B68C   681 0001:0004B68F   683 0001:0004B6C0   686 0001:0004B6C4
   687 0001:0004B6C7   689 0001:0004B6F2   692 0001:0004B6F4   693 0001:0004B6F7
   695 0001:0004B722   698 0001:0004B724   699 0001:0004B727   701 0001:0004B751
   704 0001:0004B754   705 0001:0004B757   707 0001:0004B786   710 0001:0004B788
   711 0001:0004B78B   713 0001:0004B7C1   716 0001:0004B7C4   717 0001:0004B7C7
   719 0001:0004B7F4   722 0001:0004B7F8   723 0001:0004B7FB   725 0001:0004B82A
   728 0001:0004B82C   729 0001:0004B82F   731 0001:0004B85D   734 0001:0004B860
   735 0001:0004B863   737 0001:0004B885   740 0001:0004B888   741 0001:0004B88E
   742 0001:0004B8A2   745 0001:0004B8A8   746 0001:0004B8AE   747 0001:0004B8C3
   750 0001:0004B8C8   751 0001:0004B8CE   752 0001:0004B8E3   755 0001:0004B8E8
   756 0001:0004B8EE   757 0001:0004B903   760 0001:0004B908   761 0001:0004B90E
   762 0001:0004B91F   765 0001:0004B924   766 0001:0004B92A   767 0001:0004B942
   770 0001:0004B948   771 0001:0004B94E   772 0001:0004B963   775 0001:0004B968
   776 0001:0004B96E   777 0001:0004B983   780 0001:0004B988   781 0001:0004B98E
   782 0001:0004B9A3   785 0001:0004B9A8   786 0001:0004B9AE   787 0001:0004B9CE
   813 0001:0004B9D4   814 0001:0004B9EB   815 0001:0004B9F4   816 0001:0004B9F8
   817 0001:0004B9FC   818 0001:0004BA00   819 0001:0004BA04   820 0001:0004BA0D
   821 0001:0004BA14   822 0001:0004BA25   823 0001:0004BA2F   826 0001:0004BA50
   827 0001:0004BA5B   828 0001:0004BA67   830 0001:0004BA6E   831 0001:0004BA75
   833 0001:0004BA7C   834 0001:0004BA95   836 0001:0004BA9B   837 0001:0004BAA4
   839 0001:0004BAAD   840 0001:0004BAB5   841 0001:0004BABD   842 0001:0004BAC5
   843 0001:0004BADD   844 0001:0004BAE9   845 0001:0004BAF5   869 0001:0004BB04
   870 0001:0004BB2A   872 0001:0004BB34   873 0001:0004BB3F   874 0001:0004BB4A
   875 0001:0004BB56   877 0001:0004BB7C   878 0001:0004BBA0   880 0001:0004BBB4
   881 0001:0004BBBB   883 0001:0004BBC2   885 0001:0004BBCB   888 0001:0004BBFB
   891 0001:0004BC46   893 0001:0004BC6A   894 0001:0004BC71   895 0001:0004BC76
   896 0001:0004BC7B   897 0001:0004BC80   898 0001:0004BC8B   899 0001:0004BC96
   900 0001:0004BCA0   904 0001:0004BCB3   906 0001:0004BCF6   907 0001:0004BD01
   910 0001:0004BD20   913 0001:0004BD37   920 0001:0004BD7C   921 0001:0004BD7F
   922 0001:0004BD94   923 0001:0004BD96   925 0001:0004BD98   926 0001:0004BDA2
   929 0001:0004BDBD   930 0001:0004BDC7   934 0001:0004BDD1   935 0001:0004BDEF
   936 0001:0004BE02   939 0001:0004BE08   940 0001:0004BE21   941 0001:0004BE3C
   944 0001:0004BE60   945 0001:0004BE63   946 0001:0004BE6D   948 0001:0004BE74
   949 0001:0004BE78   950 0001:0004BE7D   951 0001:0004BE82   953 0001:0004BE86
   954 0001:0004BE89   956 0001:0004BE90   958 0001:0004BE97   961 0001:0004BE9C
   962 0001:0004BEA0   963 0001:0004BEA7   964 0001:0004BEC8   965 0001:0004BED5
   971 0001:0004BED8   972 0001:0004BEDE   973 0001:0004BEE8   974 0001:0004BEEE
   977 0001:0004BEF7   978 0001:0004BEFE   981 0001:0004BF08   982 0001:0004BF17
   983 0001:0004BF1C   985 0001:0004BF20   987 0001:0004BF3A   988 0001:0004BF4D
   990 0001:0004BF4F   983 0001:0004BF50   992 0001:0004BF54   994 0001:0004BF58
   997 0001:0004BF81   998 0001:0004BF8A  1001 0001:0004BF91  1002 0001:0004BF98
  1006 0001:0004BFA1  1011 0001:0004BFA8  1012 0001:0004BFB4  1013 0001:0004BFC5
  1015 0001:0004BFCA  1019 0001:0004BFE4  1012 0001:0004BFFF  1020 0001:0004C002
  1023 0001:0004C008  1024 0001:0004C00B  1026 0001:0004C011  1027 0001:0004C023
  1029 0001:0004C02D  1030 0001:0004C035  1031 0001:0004C045  1033 0001:0004C04C
  1034 0001:0004C04F  1037 0001:0004C054  1038 0001:0004C05A  1039 0001:0004C063
  1040 0001:0004C07B  1048 0001:0004C098  1049 0001:0004C0BF  1050 0001:0004C0C8
  1052 0001:0004C0D7  1053 0001:0004C0DC  1054 0001:0004C0E4  1055 0001:0004C0EE
  1056 0001:0004C0F4  1058 0001:0004C0FA  1059 0001:0004C105  1060 0001:0004C121
  1063 0001:0004C12E  1065 0001:0004C13D  1067 0001:0004C146  1068 0001:0004C152
  1069 0001:0004C156  1074 0001:0004C171  1075 0001:0004C17E  1076 0001:0004C184
  1077 0001:0004C1A0  1079 0001:0004C1AA  1081 0001:0004C1B0  1082 0001:0004C1BD
  1083 0001:0004C1CD  1084 0001:0004C1F6  1086 0001:0004C203  1087 0001:0004C223
  1088 0001:0004C235  1090 0001:0004C245  1093 0001:0004C26E  1096 0001:0004C2B0
  1097 0001:0004C2C2  1098 0001:0004C2CC  1099 0001:0004C2E7  1122 0001:0004C2F0
  1125 0001:0004C306  1127 0001:0004C333  1129 0001:0004C345  1130 0001:0004C353
  1132 0001:0004C368  1133 0001:0004C37B  1135 0001:0004C390  1136 0001:0004C399
  1140 0001:0004C3AC  1141 0001:0004C3BE  1142 0001:0004C3CF  1143 0001:0004C3D8
  1144 0001:0004C3E1  1145 0001:0004C3F6  1147 0001:0004C408  1148 0001:0004C40F
  1149 0001:0004C41C  1150 0001:0004C429  1152 0001:0004C43E  1153 0001:0004C44F
  1154 0001:0004C457  1155 0001:0004C461  1159 0001:0004C46D  1162 0001:0004C4C9
  1164 0001:0004C4F5  1166 0001:0004C4FC  1168 0001:0004C505  1169 0001:0004C51A
  1175 0001:0004C531  1176 0001:0004C540  1180 0001:0004C54F  1182 0001:0004C56C
  1183 0001:0004C572  1184 0001:0004C578  1185 0001:0004C58C  1187 0001:0004C595
  1188 0001:0004C5A9  1189 0001:0004C5C8  1193 0001:0004C5DB  1194 0001:0004C5EE
  1196 0001:0004C5FF  1197 0001:0004C613  1198 0001:0004C619  1201 0001:0004C61F
  1203 0001:0004C62C  1204 0001:0004C64C  1209 0001:0004C684  1210 0001:0004C696
  1211 0001:0004C6A4  1212 0001:0004C6B1  1213 0001:0004C6CA  1214 0001:0004C6DC
  1215 0001:0004C6EF  1217 0001:0004C753  1219 0001:0004C774  1225 0001:0004C787
  1227 0001:0004C797  1230 0001:0004C7B5  1231 0001:0004C7E5  1233 0001:0004C7FF
  1236 0001:0004C81D  1237 0001:0004C84D  1239 0001:0004C867  1240 0001:0004C881
  1243 0001:0004C891  1245 0001:0004C89D  1246 0001:0004C8A3  1251 0001:0004C8AB
  1253 0001:0004C8BD  1254 0001:0004C8D2  1258 0001:0004C8E9  1259 0001:0004C8F5
  1261 0001:0004C901  1266 0001:0004C908  1267 0001:0004C90E  1268 0001:0004C914
  1269 0001:0004C91B  1272 0001:0004C922  1273 0001:0004C940  1274 0001:0004C949
  1276 0001:0004C975  1278 0001:0004C97E  1279 0001:0004C994  1280 0001:0004C9A6
  1281 0001:0004C9B9  1283 0001:0004C9CA  1285 0001:0004C9F2  1286 0001:0004C9FB
  1287 0001:0004CA19  1288 0001:0004CA22  1289 0001:0004CA3E  1290 0001:0004CA47
  1293 0001:0004CA57  1294 0001:0004CA69  1295 0001:0004CA76  1296 0001:0004CA7D
  1298 0001:0004CA83  1299 0001:0004CA9F  1300 0001:0004CAB1  1302 0001:0004CABB
  1303 0001:0004CACB  1304 0001:0004CAD4  1305 0001:0004CAE9  1306 0001:0004CB23
  1307 0001:0004CB53  1308 0001:0004CB77  1310 0001:0004CB87  1311 0001:0004CBB7
  1313 0001:0004CBCF  1314 0001:0004CBDB  1315 0001:0004CBEA  1319 0001:0004CC1C
  1324 0001:0004CC50  1327 0001:0004CC66  1329 0001:0004CC93  1331 0001:0004CCA5
  1332 0001:0004CCB3  1334 0001:0004CCC8  1335 0001:0004CCDB  1337 0001:0004CCF0
  1338 0001:0004CCF9  1342 0001:0004CD0C  1343 0001:0004CD2A  1344 0001:0004CD3B
  1345 0001:0004CD44  1346 0001:0004CD4D  1347 0001:0004CD62  1349 0001:0004CD74
  1350 0001:0004CD7B  1351 0001:0004CD88  1352 0001:0004CD95  1354 0001:0004CDAA
  1355 0001:0004CDBB  1356 0001:0004CDCA  1357 0001:0004CDD2  1361 0001:0004CDDE
  1364 0001:0004CE3A  1366 0001:0004CE66  1368 0001:0004CE6D  1370 0001:0004CE76
  1371 0001:0004CE8B  1377 0001:0004CEA2  1378 0001:0004CEB1  1382 0001:0004CEC0
  1384 0001:0004CED0  1385 0001:0004CED6  1386 0001:0004CEDC  1387 0001:0004CEF0
  1389 0001:0004CEF9  1390 0001:0004CF0D  1391 0001:0004CF2C  1395 0001:0004CF3F
  1396 0001:0004CF52  1398 0001:0004CF63  1399 0001:0004CF77  1400 0001:0004CF7D
  1403 0001:0004CF83  1405 0001:0004CF90  1406 0001:0004CFB0  1411 0001:0004CFE8
  1412 0001:0004CFFA  1413 0001:0004D008  1414 0001:0004D015  1415 0001:0004D02E
  1416 0001:0004D040  1417 0001:0004D053  1419 0001:0004D0B7  1421 0001:0004D0D8
  1427 0001:0004D0EB  1429 0001:0004D0FB  1432 0001:0004D119  1433 0001:0004D14B
  1435 0001:0004D167  1438 0001:0004D185  1439 0001:0004D1B5  1441 0001:0004D1CF
  1442 0001:0004D1E9  1445 0001:0004D1F9  1447 0001:0004D205  1448 0001:0004D20B
  1453 0001:0004D213  1455 0001:0004D225  1456 0001:0004D23A  1460 0001:0004D251
  1461 0001:0004D25D  1463 0001:0004D269  1468 0001:0004D270  1469 0001:0004D276
  1470 0001:0004D27C  1471 0001:0004D283  1474 0001:0004D28A  1475 0001:0004D2B1
  1477 0001:0004D2DD  1479 0001:0004D2E6  1480 0001:0004D2FC  1481 0001:0004D30E
  1482 0001:0004D321  1484 0001:0004D332  1486 0001:0004D35A  1487 0001:0004D363
  1488 0001:0004D381  1489 0001:0004D38A  1490 0001:0004D3A6  1491 0001:0004D3AF
  1493 0001:0004D3BF  1494 0001:0004D3D1  1495 0001:0004D3DE  1496 0001:0004D3E5
  1497 0001:0004D3EB  1498 0001:0004D407  1499 0001:0004D419  1501 0001:0004D423
  1502 0001:0004D433  1503 0001:0004D43C  1504 0001:0004D451  1506 0001:0004D48B
  1507 0001:0004D497  1508 0001:0004D4A3  1509 0001:0004D4D3  1510 0001:0004D4EE
  1511 0001:0004D4FE  1512 0001:0004D52E  1514 0001:0004D546  1515 0001:0004D553
  1516 0001:0004D55D  1517 0001:0004D577  1520 0001:0004D59C  1522 0001:0004D5D0
  1523 0001:0004D5E8  1524 0001:0004D5F3  1525 0001:0004D5FE  1526 0001:0004D608
  1528 0001:0004D62F  1529 0001:0004D64C  1530 0001:0004D65E  1531 0001:0004D66F
  1533 0001:0004D68A  1534 0001:0004D68E  1537 0001:0004D6BD  1538 0001:0004D6D0
  1539 0001:0004D6DD  1541 0001:0004D6FD  1542 0001:0004D70F  1544 0001:0004D718
  1545 0001:0004D71F  1556 0001:0004D728  1557 0001:0004D729  1558 0001:0004D72B
  1560 0001:0004D730  1559 0001:0004D733  1561 0001:0004D73D  1562 0001:0004D741
  1565 0001:0004D746  1566 0001:0004D74B  1567 0001:0004D74F  1569 0001:0004D752
  1587 0001:0004D758  1588 0001:0004D761  1589 0001:0004D76B  1591 0001:0004D781
  1592 0001:0004D78F  1594 0001:0004D79D  1596 0001:0004D7A4  1597 0001:0004D7CB
  1599 0001:0004D7E5  1600 0001:0004D7E7  1602 0001:0004D7F0  1603 0001:0004D7F2
  1604 0001:0004D7FB  1605 0001:0004D805  1607 0001:0004D814  1608 0001:0004D81D
  1609 0001:0004D826  1611 0001:0004D82A  1613 0001:0004D83A  1614 0001:0004D845
  1615 0001:0004D849  1616 0001:0004D854  1618 0001:0004D858  1620 0001:0004D86A
  1621 0001:0004D873  1622 0001:0004D877  1623 0001:0004D880  1627 0001:0004D884
  1628 0001:0004D88D  1630 0001:0004D88F  1631 0001:0004D897  1632 0001:0004D89D
  1633 0001:0004D8A1  1634 0001:0004D8A7  1635 0001:0004D8B6  1636 0001:0004D8BA
  1637 0001:0004D8BE  1638 0001:0004D8CF  1640 0001:0004D8D5  1641 0001:0004D8D7
  1642 0001:0004D8E0  1643 0001:0004D8FA  1644 0001:0004D905  1646 0001:0004D923
  1647 0001:0004D937  1648 0001:0004D945  1649 0001:0004D968  1653 0001:0004D9A4
  1654 0001:0004D9A6  1658 0001:0004D9A8  1660 0001:0004D9AD  1661 0001:0004D9B0
  1663 0001:0004D9B7  1666 0001:0004D9B8  1667 0001:0004D9BE  1669 0001:0004D9CA
  1670 0001:0004D9D4  1672 0001:0004D9DD  1678 0001:0004D9E0  1679 0001:0004D9E5
  1680 0001:0004D9EC  1682 0001:0004D9FD  1683 0001:0004DA07  1684 0001:0004DA1A
  1685 0001:0004DA21  1680 0001:0004DA22  1686 0001:0004DA25  1689 0001:0004DA2C
  1690 0001:0004DA33  1692 0001:0004DA38  1693 0001:0004DA3B  1694 0001:0004DA48
  1695 0001:0004DA68  1696 0001:0004DA72  1698 0001:0004DA79  1701 0001:0004DA80
  1702 0001:0004DA87  1704 0001:0004DA8C  1705 0001:0004DA8F  1707 0001:0004DAB1
  1710 0001:0004DABC  1711 0001:0004DAC9  1712 0001:0004DAE9  1715 0001:0004DAF2
  1718 0001:0004DAF8  1719 0001:0004DAFF  1721 0001:0004DB04  1722 0001:0004DB1F
  1723 0001:0004DB22  1724 0001:0004DB2E  1726 0001:0004DB35  1730 0001:0004DB3C
  1731 0001:0004DB43  1732 0001:0004DB47  1733 0001:0004DB49  1737 0001:0004DB4C
  1738 0001:0004DB51  1742 0001:0004DB54  1743 0001:0004DB5E  1744 0001:0004DB61
  1747 0001:0004DB64  1748 0001:0004DB6A  1749 0001:0004DB7A  1750 0001:0004DB84
  1754 0001:0004DB88  1756 0001:0004DB8E  1757 0001:0004DB92  1759 0001:0004DB99
  1763 0001:0004DB9C  1765 0001:0004DBA1  1766 0001:0004DBA4  1768 0001:0004DBAB
  1772 0001:0004DBAC  1774 0001:0004DBB1  1775 0001:0004DBB4  1777 0001:0004DBBB
  1781 0001:0004DBBC  1782 0001:0004DBBF  1783 0001:0004DBD1  1789 0001:0004DBD4
  1790 0001:0004DBDB  1792 0001:0004DBE2  1793 0001:0004DBE7  1794 0001:0004DBED
  1795 0001:0004DBF4  1797 0001:0004DBFF  1798 0001:0004DC02  1799 0001:0004DC0B
  1802 0001:0004DC16  1807 0001:0004DC1C  1808 0001:0004DC25  1809 0001:0004DC4D
  1812 0001:0004DC54  1813 0001:0004DC5A  1814 0001:0004DC6E  1819 0001:0004DC74
  1820 0001:0004DC7C  1822 0001:0004DC81  1823 0001:0004DC8B  1824 0001:0004DC9D
  1823 0001:0004DCBC  1825 0001:0004DCBF  1826 0001:0004DCC2  1828 0001:0004DCCB
  1832 0001:0004DCD0  1833 0001:0004DCDE  1836 0001:0004DCE0  1837 0001:0004DCEA
  1838 0001:0004DCFA  1839 0001:0004DD0F  1840 0001:0004DD1E  1841 0001:0004DD31
  1842 0001:0004DD46  1843 0001:0004DD53  1844 0001:0004DD5F  1845 0001:0004DD62
  1846 0001:0004DD72  1847 0001:0004DD7F  1848 0001:0004DD91  1853 0001:0004DD98
  1854 0001:0004DD9F  1855 0001:0004DDBE  1856 0001:0004DDCA  1857 0001:0004DDD4
  1858 0001:0004DDD9  1859 0001:0004DDE7  1860 0001:0004DDF4  1861 0001:0004DE07
  1864 0001:0004DE0C  1865 0001:0004DE10  1867 0001:0004DE1A  1869 0001:0004DE44
  1873 0001:0004DE52  1874 0001:0004DE79  1875 0001:0004DE89  1876 0001:0004DE95
  1877 0001:0004DEA1  1878 0001:0004DEAB  1880 0001:0004DEB9  1883 0001:0004DEBC
  1884 0001:0004DEBD  1885 0001:0004DEC0  1886 0001:0004DED0  1889 0001:0004DED4
  1890 0001:0004DEDA  1891 0001:0004DEEC  1896 0001:0004DEF0  1897 0001:0004DEF4
  1898 0001:0004DEFD  1899 0001:0004DF0C  1900 0001:0004DF15  1905 0001:0004DF18
  1906 0001:0004DF1E  1907 0001:0004DF36  1908 0001:0004DF3A  1909 0001:0004DF3C
  1910 0001:0004DF57  1913 0001:0004DF5C  1914 0001:0004DF65  1915 0001:0004DF7E
  1916 0001:0004DF92  1917 0001:0004DFAD  1920 0001:0004DFB4  1921 0001:0004DFB7
  1922 0001:0004DFCC  1923 0001:0004DFD6  1924 0001:0004DFD9  1927 0001:0004DFDC
  1928 0001:0004DFE3  1930 0001:0004DFE7  1931 0001:0004DFEF  1935 0001:0004DFF6
  1936 0001:0004DFFC  1937 0001:0004E011  1938 0001:0004E01B  1939 0001:0004E028
  1940 0001:0004E03C  1942 0001:0004E045  1945 0001:0004E04C  1946 0001:0004E052
  1947 0001:0004E067  1948 0001:0004E071  1949 0001:0004E07A  1954 0001:0004E080
  1955 0001:0004E085  1956 0001:0004E096  1955 0001:0004E0A5  1957 0001:0004E0A8
  1961 0001:0004E0AC  1962 0001:0004E0B9  1963 0001:0004E0BD  1964 0001:0004E0BF
  1967 0001:0004E0C0  1968 0001:0004E0C6  1969 0001:0004E0D4  1970 0001:0004E0D8
  1971 0001:0004E0E9  1972 0001:0004E0F5  1973 0001:0004E106  1974 0001:0004E10F
  1980 0001:0004E114  1981 0001:0004E116  1982 0001:0004E11F  1983 0001:0004E122
  1986 0001:0004E124  1987 0001:0004E127  1989 0001:0004E12C  1990 0001:0004E12F
  1991 0001:0004E13B  1992 0001:0004E142  1994 0001:0004E14B  1997 0001:0004E150
  1998 0001:0004E159  2001 0001:0004E16E  2002 0001:0004E17B  2003 0001:0004E188
  2004 0001:0004E192  2005 0001:0004E19C  2006 0001:0004E1A6  2007 0001:0004E1B1
  2008 0001:0004E1BB  2009 0001:0004E1C6  2010 0001:0004E1D0  2011 0001:0004E1D6
  2012 0001:0004E1E0  2013 0001:0004E1EB  2014 0001:0004E1FB  2015 0001:0004E206
  2016 0001:0004E210  2017 0001:0004E21D  2018 0001:0004E228  2019 0001:0004E236
  2020 0001:0004E240  2021 0001:0004E24E  2022 0001:0004E25C  2024 0001:0004E26E
  2027 0001:0004E274  2028 0001:0004E27A  2029 0001:0004E294  2032 0001:0004E298
  2033 0001:0004E29C  2034 0001:0004E2B5  2037 0001:0004E2B8  2038 0001:0004E2BC
  2039 0001:0004E2D5  2042 0001:0004E2D8  2043 0001:0004E2DC  2044 0001:0004E2F5
  2047 0001:0004E2F8  2048 0001:0004E2FC  2049 0001:0004E315  2052 0001:0004E318
  2053 0001:0004E31C  2054 0001:0004E335  2057 0001:0004E338  2058 0001:0004E33C
  2059 0001:0004E355  2062 0001:0004E358  2063 0001:0004E35C  2064 0001:0004E375
  2067 0001:0004E378  2068 0001:0004E37C  2069 0001:0004E395  2072 0001:0004E398
  2073 0001:0004E39C  2074 0001:0004E3B5  2077 0001:0004E3B8  2078 0001:0004E3BF
  2081 0001:0004E3D0  2082 0001:0004E3DD  2083 0001:0004E3E7  2084 0001:0004E3F1
  2085 0001:0004E3FB  2086 0001:0004E405  2087 0001:0004E410  2089 0001:0004E425
  2090 0001:0004E42E  2094 0001:0004E434  2095 0001:0004E43D  2096 0001:0004E448
  2097 0001:0004E44D  2098 0001:0004E458  2099 0001:0004E463  2100 0001:0004E468
  2101 0001:0004E473  2102 0001:0004E478  2103 0001:0004E481  2106 0001:0004E488
  2107 0001:0004E48E  2108 0001:0004E49D  2109 0001:0004E4A2  2111 0001:0004E4A6
  2112 0001:0004E4AE  2114 0001:0004E4B8  2115 0001:0004E4BF  2119 0001:0004E4C4
  2120 0001:0004E4CE  2125 0001:0004E4D0  2126 0001:0004E4D4  2127 0001:0004E4D6
  2128 0001:0004E4E5  2129 0001:0004E4F2  2132 0001:0004E4F8  2133 0001:0004E508
  2159 0001:0004E50C  2160 0001:0004E510  2161 0001:0004E51B  2162 0001:0004E520
  2163 0001:0004E524  2164 0001:0004E535  2168 0001:0004E53C  2169 0001:0004E542
  2170 0001:0004E553  2171 0001:0004E564  2172 0001:0004E579  2171 0001:0004E5A4
  2173 0001:0004E5A7  2174 0001:0004E5B8  2179 0001:0004E5C0  2180 0001:0004E5E6
  2181 0001:0004E5EA  2182 0001:0004E604  2184 0001:0004E619  2185 0001:0004E61D
  2186 0001:0004E61F  2181 0001:0004E620  2187 0001:0004E623  2189 0001:0004E62D
  2190 0001:0004E663  2193 0001:0004E6B1  2195 0001:0004E6D3  2196 0001:0004E6D9
  2197 0001:0004E6E8  2198 0001:0004E740  2199 0001:0004E766  2200 0001:0004E76A
  2203 0001:0004E789  2204 0001:0004E797  2205 0001:0004E79C  2206 0001:0004E7A1
  2207 0001:0004E7A6  2208 0001:0004E7AB  2209 0001:0004E7B0  2210 0001:0004E7BE
  2211 0001:0004E7CD  2212 0001:0004E7DC  2213 0001:0004E7EB  2214 0001:0004E7FA
  2215 0001:0004E810  2219 0001:0004E852  2220 0001:0004E871  2221 0001:0004E877
  2222 0001:0004E899  2225 0001:0004E8B9  2226 0001:0004E8E3  2228 0001:0004E903
  2214 0001:0004E904  2229 0001:0004E90D  2230 0001:0004E918  2232 0001:0004E92D
  2233 0001:0004E938  2234 0001:0004E943  2235 0001:0004E94B  2237 0001:0004E95F
  2238 0001:0004E96C  2241 0001:0004E976  2242 0001:0004E98C  2245 0001:0004E98F
  2246 0001:0004E9AD  2248 0001:0004E9BB  2249 0001:0004E9C6  2251 0001:0004E9D5
  2252 0001:0004E9E4  2253 0001:0004E9FB  2254 0001:0004EA05  2257 0001:0004EA07
  2239 0001:0004EA08  2259 0001:0004EA18  2235 0001:0004EA19  2260 0001:0004EA22
  2261 0001:0004EA2F  2262 0001:0004EA36  2263 0001:0004EA42  2265 0001:0004EA54
  2266 0001:0004EA6A  2268 0001:0004EA7F  2263 0001:0004EA80  2230 0001:0004EA83
  2271 0001:0004EA8C  2272 0001:0004EA92  2273 0001:0004EA99  2274 0001:0004EAA7
  2276 0001:0004EABE  2277 0001:0004EACB  2280 0001:0004EAED  2282 0001:0004EAFE
  2283 0001:0004EB2A  2286 0001:0004EB44  2287 0001:0004EB59  2274 0001:0004EB5A
  2289 0001:0004EB70  2290 0001:0004EB78  2291 0001:0004EB80  2292 0001:0004EB88
  2295 0001:0004EB98  2306 0001:0004EBF4  2308 0001:0004EBF9  2309 0001:0004EBFC
  2311 0001:0004EC03  2314 0001:0004EC04  2315 0001:0004EC07  2316 0001:0004EC17
  2398 0001:0004EC28  2399 0001:0004EC33  2400 0001:0004EC37  2403 0001:0004EC54
  2404 0001:0004EC5A  2405 0001:0004EC5C  2406 0001:0004EC6F  2407 0001:0004EC7E
  2409 0001:0004EC90  2410 0001:0004EC9D  2414 0001:0004ECA3  2415 0001:0004ECA7
  2416 0001:0004ECA9  2405 0001:0004ECAA  2417 0001:0004ECAD  2418 0001:0004ECC0
  2420 0001:0004ECD2  2422 0001:0004ECDC  2423 0001:0004ECE0  2425 0001:0004ECE4
  2427 0001:0004ECF1  2429 0001:0004ED00  2431 0001:0004ED0A  2432 0001:0004ED0E
  2434 0001:0004ED12  2435 0001:0004ED14  2436 0001:0004ED18  2417 0001:0004ED19
  2437 0001:0004ED1C  2438 0001:0004ED2F  2439 0001:0004ED3E  2441 0001:0004ED50
  2442 0001:0004ED5D  2445 0001:0004ED61  2437 0001:0004ED62  2447 0001:0004ED65
  2451 0001:0004ED70  2453 0001:0004ED75  2454 0001:0004ED78  2456 0001:0004ED7F
  2468 0001:0004ED80  2469 0001:0004ED83  2470 0001:0004ED87  2472 0001:0004ED91
  2473 0001:0004EDA3  2474 0001:0004EDAD  2479 0001:0004EDB0  2480 0001:0004EDB3
  2481 0001:0004EDB7  2483 0001:0004EDC1  2484 0001:0004EDD3  2485 0001:0004EDDD
  2490 0001:0004EDE0  2491 0001:0004EDFA  2492 0001:0004EE0D  2493 0001:0004EE1E
  2494 0001:0004EE21  2495 0001:0004EE32  2496 0001:0004EE3C  2497 0001:0004EE40
  2498 0001:0004EE4B  2499 0001:0004EE52  2500 0001:0004EE56  2501 0001:0004EE5D
  2505 0001:0004EE7C  2506 0001:0004EE8A  2509 0001:0004EE8C  2510 0001:0004EE97
  2511 0001:0004EE9F  2512 0001:0004EEA7  2513 0001:0004EEB3  2516 0001:0004EEC4
  2517 0001:0004EEC8  2518 0001:0004EEDA  2522 0001:0004EEE0  2523 0001:0004EEE8
  2526 0001:0004EEEC  2527 0001:0004EEEF  2528 0001:0004EEFB  2533 0001:0004EF00
  2534 0001:0004EF04  2535 0001:0004EF06  2536 0001:0004EF15  2537 0001:0004EF22
  2539 0001:0004EF28  2540 0001:0004EF29  2541 0001:0004EF3E  2550 0001:0004EF40
  2551 0001:0004EF49  2552 0001:0004EF4D  2556 0001:0004EF8F  2557 0001:0004EF95
  2558 0001:0004EF99  2561 0001:0004EF9B  2562 0001:0004EFAC  2564 0001:0004EFC3
  2565 0001:0004EFC7  2566 0001:0004EFC9  2561 0001:0004EFCA  2567 0001:0004EFCD
  2569 0001:0004EFD8  2570 0001:0004EFE5  2571 0001:0004EFEA  2572 0001:0004EFFF
  2573 0001:0004F002  2579 0001:0004F008  2580 0001:0004F014  2581 0001:0004F016
  2582 0001:0004F018  2583 0001:0004F020  2585 0001:0004F041  2588 0001:0004F04C
  2590 0001:0004F059  2589 0001:0004F05C  2591 0001:0004F066  2593 0001:0004F06D
  2598 0001:0004F078  2599 0001:0004F079  2600 0001:0004F07B  2601 0001:0004F085
  2603 0001:0004F089  2604 0001:0004F08E  2606 0001:0004F090  2612 0001:0004F094
  2613 0001:0004F099  2614 0001:0004F09B  2615 0001:0004F0A6  2617 0001:0004F0AE
  2618 0001:0004F0B4  2619 0001:0004F0BB  2620 0001:0004F0C2  2621 0001:0004F0CD
  2622 0001:0004F0D8  2623 0001:0004F0DC  2624 0001:0004F0E3  2625 0001:0004F0F1
  2626 0001:0004F0F9  2629 0001:0004F123  2630 0001:0004F130  2632 0001:0004F134
  2633 0001:0004F14B  2634 0001:0004F153  2638 0001:0004F15C  2639 0001:0004F16D
  2677 0001:0004F170  2678 0001:0004F190  2679 0001:0004F194  2680 0001:0004F19D
  2681 0001:0004F1AC  2682 0001:0004F1BA  2683 0001:0004F1C7  2684 0001:0004F1F2
  2685 0001:0004F202  2686 0001:0004F212  2687 0001:0004F220  2688 0001:0004F22E
  2690 0001:0004F232  2692 0001:0004F252  2695 0001:0004F270  2697 0001:0004F280
  2701 0001:0004F314  2702 0001:0004F315  2703 0001:0004F317  2705 0001:0004F326
  2706 0001:0004F32F  2708 0001:0004F337  2709 0001:0004F33C  2711 0001:0004F342
  2713 0001:0004F349  2722 0001:0004F350  2723 0001:0004F35F  2724 0001:0004F364
  2726 0001:0004F369  2727 0001:0004F37A  2728 0001:0004F38B  2733 0001:0004F397
  2746 0001:0004F3A0  2749 0001:0004F3A2  2750 0001:0004F3A5  2747 0001:0004F3A6
  2752 0001:0004F3AE  2757 0001:0004F3B0  2758 0001:0004F3BD  2759 0001:0004F3C1
  2761 0001:0004F3C9  2762 0001:0004F3CF  2763 0001:0004F3E2  2765 0001:0004F3F6
  2769 0001:0004F3FC  2771 0001:0004F418  2772 0001:0004F432  2774 0001:0004F43B
  2775 0001:0004F43F  2778 0001:0004F444  2779 0001:0004F453  2781 0001:0004F46A
  2783 0001:0004F472  2784 0001:0004F47A  2785 0001:0004F488  2786 0001:0004F49B
  2787 0001:0004F4A2  2789 0001:0004F4C8  2791 0001:0004F4DB  2793 0001:0004F4F4
  2794 0001:0004F4F8  2796 0001:0004F504  2797 0001:0004F511  2798 0001:0004F513
  2799 0001:0004F520  2800 0001:0004F52B  2801 0001:0004F534  2802 0001:0004F541
  2804 0001:0004F54F  2805 0001:0004F553  2806 0001:0004F564  2808 0001:0004F56A
  2809 0001:0004F577  2810 0001:0004F585  2812 0001:0004F5A1  2815 0001:0004F5B3
  2817 0001:0004F5CC  2819 0001:0004F5DE  2820 0001:0004F5F0  2824 0001:0004F5F8
  2825 0001:0004F5FE  2832 0001:0004F600  2833 0001:0004F607  2834 0001:0004F620
  2835 0001:0004F629  2836 0001:0004F630  2837 0001:0004F638  2838 0001:0004F640
  2839 0001:0004F648  2841 0001:0004F657  2844 0001:0004F672  2846 0001:0004F692
  2847 0001:0004F69A  2848 0001:0004F6A9  2850 0001:0004F6B2  2861 0001:0004F6BC
  2862 0001:0004F6C8  2863 0001:0004F6D4  2864 0001:0004F6DD  2865 0001:0004F6E6
  2868 0001:0004F6EA  2869 0001:0004F709  2870 0001:0004F712  2871 0001:0004F723
  2873 0001:0004F72A  2874 0001:0004F72D  2875 0001:0004F72E  2877 0001:0004F731
  2879 0001:0004F738  2880 0001:0004F73B  2881 0001:0004F73C  2883 0001:0004F73F
  2885 0001:0004F746  2886 0001:0004F749  2887 0001:0004F74A  2889 0001:0004F74D
  2890 0001:0004F750  2891 0001:0004F751  2892 0001:0004F754  2866 0001:0004F755
  2894 0001:0004F75F  2896 0001:0004F768  2897 0001:0004F778  2898 0001:0004F77A
  2899 0001:0004F781  2900 0001:0004F79F  2902 0001:0004F7C8  2903 0001:0004F7CA
  2905 0001:0004F7E3  2909 0001:0004F7EC  2911 0001:0004F7F1  2912 0001:0004F7F4
  2914 0001:0004F7F9  2920 0001:0004F7FC  2921 0001:0004F805  2922 0001:0004F810
  2923 0001:0004F81A  2924 0001:0004F824  2925 0001:0004F832  2926 0001:0004F836
  2928 0001:0004F842  2930 0001:0004F859  2931 0001:0004F865  2933 0001:0004F877
  2936 0001:0004F87C  2937 0001:0004F882  2938 0001:0004F885  2942 0001:0004F88C
  2943 0001:0004F89B  2944 0001:0004F8A1  2946 0001:0004F8AA  2947 0001:0004F8B1
  2950 0001:0004F8B4  2951 0001:0004F8B5  2952 0001:0004F8C9  2955 0001:0004F8CC
  2956 0001:0004F8CF  2957 0001:0004F8D6  2958 0001:0004F8E1  2961 0001:0004F8E4
  2962 0001:0004F8ED  2963 0001:0004F911  2967 0001:0004F920  2968 0001:0004F92A
  2971 0001:0004F92C  2972 0001:0004F932  2973 0001:0004F941  2974 0001:0004F946
  2976 0001:0004F94A  2977 0001:0004F952  2979 0001:0004F95C  2980 0001:0004F963
  2984 0001:0004F968  2985 0001:0004F971  2986 0001:0004F97C  2987 0001:0004F98F
  2991 0001:0004F994  2992 0001:0004F9AB  3003 0001:0004F9AC  3004 0001:0004F9B0
  3005 0001:0004F9B2  3007 0001:0004F9B7  3008 0001:0004F9BE  3012 0001:0004F9D0
  3013 0001:0004F9D7  3014 0001:0004F9DC  3016 0001:0004F9EC  3017 0001:0004F9F0
  3018 0001:0004F9FE  3019 0001:0004FA00  3024 0001:0004FA08  3025 0001:0004FA2E
  3027 0001:0004FA34  3028 0001:0004FA3B  3032 0001:0004FA4D  3033 0001:0004FA5D
  3034 0001:0004FA6C  3038 0001:0004FA77  3039 0001:0004FA89  3042 0001:0004FB16
  3043 0001:0004FB18  3045 0001:0004FB48  3048 0001:0004FB56  3049 0001:0004FB5B
  3050 0001:0004FB62  3051 0001:0004FB69  3052 0001:0004FB70  3053 0001:0004FB7C
  3055 0001:0004FB8A  3056 0001:0004FB9B  3058 0001:0004FBB2  3062 0001:0004FBB9
  3063 0001:0004FBC6  3065 0001:0004FBC8  3067 0001:0004FBCE  3068 0001:0004FBD1
  3071 0001:0004FBDA  3072 0001:0004FBE1  3073 0001:0004FBE8  3074 0001:0004FBED
  3075 0001:0004FBF3  3077 0001:0004FBF6  3053 0001:0004FBF7  3079 0001:0004FBFC
  3081 0001:0004FC02  3082 0001:0004FC09  3086 0001:0004FC0E  3087 0001:0004FC14
  3089 0001:0004FC22  3090 0001:0004FC33  3092 0001:0004FC4A  3094 0001:0004FC51
  3095 0001:0004FC58  3097 0001:0004FC5A  3099 0001:0004FC60  3100 0001:0004FC63
  3103 0001:0004FC6C  3104 0001:0004FC73  3105 0001:0004FC7A  3106 0001:0004FC7F
  3107 0001:0004FC85  3109 0001:0004FC88  3087 0001:0004FC89  3111 0001:0004FC8E
  3112 0001:0004FC96  3113 0001:0004FCA1  3115 0001:0004FCA6  3116 0001:0004FCAC
  3117 0001:0004FCB2  3120 0001:0004FCBB  3128 0001:0004FCC4  3129 0001:0004FCD1
  3131 0001:0004FCDC  3132 0001:0004FCE1  3133 0001:0004FCEC  3135 0001:0004FCF0
  3136 0001:0004FCF9  3140 0001:0004FD09  3141 0001:0004FD12  3142 0001:0004FD17
  3144 0001:0004FD25  3146 0001:0004FD2B  3147 0001:0004FD31  3148 0001:0004FD42
  3151 0001:0004FD4C  3154 0001:0004FD50  3155 0001:0004FD63  3159 0001:0004FD6C
  3161 0001:0004FD71  3162 0001:0004FD74  3163 0001:0004FD78  3165 0001:0004FD7D
  3169 0001:0004FD80  3171 0001:0004FD85  3172 0001:0004FD88  3174 0001:0004FD8D
  3179 0001:0004FD90  3180 0001:0004FD93  3182 0001:0004FD99  3183 0001:0004FDA1
  3185 0001:0004FDA5  3186 0001:0004FDB0  3189 0001:0004FDB4  3192 0001:0004FDB8
  3193 0001:0004FDBE  3195 0001:0004FDC4  3196 0001:0004FDDC  3198 0001:0004FDE0
  3202 0001:0004FDE4  3203 0001:0004FDF2  3207 0001:0004FDF4  3208 0001:0004FE04
  3212 0001:0004FE08  3213 0001:0004FE16  3217 0001:0004FE18  3218 0001:0004FE28
  3224 0001:0004FE2C  3226 0001:0004FE31  3227 0001:0004FE34  3228 0001:0004FE3B
  3230 0001:0004FE4A  3235 0001:0004FE4C  3236 0001:0004FE5A  3238 0001:0004FE60
  3239 0001:0004FE69  3240 0001:0004FE6D  3241 0001:0004FE7F  3242 0001:0004FE83
  3244 0001:0004FE8C  3245 0001:0004FE9D  3249 0001:0004FEA8  3250 0001:0004FEAC
  3251 0001:0004FEB8  3252 0001:0004FEC2  3256 0001:0004FEC4  3257 0001:0004FED3
  3258 0001:0004FEDD  3261 0001:0004FEE0  3262 0001:0004FEE4  3263 0001:0004FEF1
  3264 0001:0004FEF8  3265 0001:0004FF07  3269 0001:0004FF0C  3270 0001:0004FF13
  3271 0001:0004FF16  3272 0001:0004FF1B  3372 0001:0004FF1C  3373 0001:0004FF26
  3374 0001:0004FF34  3376 0001:0004FF4B  3378 0001:0004FF5F  3389 0001:0004FF68
  3390 0001:0004FF89  3392 0001:0004FFCA  3393 0001:0004FFDC  3392 0001:0004FFF8
  3395 0001:00050000  3397 0001:00050012  3395 0001:0005002D  3401 0001:00050035
  3402 0001:00050039  3403 0001:00050043  3405 0001:00050051  3407 0001:00050057
  3408 0001:0005005E  3409 0001:0005006E  3412 0001:00050077  3413 0001:0005007E
  3414 0001:00050097  3416 0001:0005009D  3417 0001:000500BA  3419 0001:000500BF
  3403 0001:000500C0  3420 0001:000500C3  3423 0001:000500D6  3425 0001:000500DC
  3427 0001:000500EE  3428 0001:00050105  3430 0001:00050117  3431 0001:00050131
  3433 0001:0005013B  3434 0001:00050152  3435 0001:00050156  3436 0001:0005016D
  3437 0001:00050180  3438 0001:00050184  3439 0001:0005018F  3440 0001:0005019E
  3442 0001:000501B8  3443 0001:000501C6  3445 0001:000501CB  3425 0001:000501CC
  3448 0001:000501D8  3450 0001:000501DE  3452 0001:000501F0  3453 0001:0005020A
  3455 0001:00050214  3456 0001:00050223  3458 0001:00050231  3459 0001:00050240
  3460 0001:0005024E  3461 0001:0005025C  3462 0001:00050271  3464 0001:00050297
  3465 0001:000502A1  3468 0001:000502C6  3472 0001:000502D6  3450 0001:000502D7
  3475 0001:000502E3  3477 0001:000502E9  3479 0001:000502FB  3480 0001:00050315
  3482 0001:0005031F  3483 0001:0005032E  3484 0001:0005033C  3485 0001:0005034B
  3487 0001:00050359  3488 0001:00050365  3489 0001:00050373  3490 0001:0005037E
  3491 0001:00050393  3494 0001:000503B8  3495 0001:000503C2  3498 0001:000503E4
  3501 0001:00050401  3505 0001:00050419  3477 0001:0005041A  3508 0001:00050423
  3509 0001:00050431  3510 0001:0005043E  3513 0001:0005045C  3514 0001:00050466
  3515 0001:00050468  3508 0001:00050469  3517 0001:0005046C  3518 0001:00050486
  3521 0001:000504AC  3523 0001:000504B2  3528 0001:000504C6  3529 0001:000504CF
  3532 0001:000504D4  3533 0001:000504D7  3535 0001:000504DE  3540 0001:000504EC
  3545 0001:000504F0  3546 0001:00050502  3547 0001:0005050B  3548 0001:00050512
  3549 0001:00050519  3550 0001:0005052D  3551 0001:0005053A  3552 0001:0005053E
  3553 0001:0005054A  3556 0001:00050564  3557 0001:0005056F  3558 0001:0005057B
  3559 0001:00050587  3562 0001:00050598  3563 0001:00050599  3564 0001:000505A8
  3568 0001:000505AC  3569 0001:000505B2  3573 0001:000505B4  3574 0001:000505BA
  3579 0001:000505BC  3580 0001:000505BF  3581 0001:000505CA  3585 0001:000505D0
  3586 0001:000505D8  3588 0001:000505DC  3589 0001:000505E7  3593 0001:000505ED
  3594 0001:000505FF  3597 0001:00050603  3602 0001:00050608  3603 0001:00050609
  3604 0001:0005060B  3605 0001:00050617  3609 0001:0005061D  3610 0001:00050625
  3611 0001:00050629  3613 0001:00050636  3616 0001:00050646  3617 0001:0005064D
  3627 0001:00050654  3628 0001:00050661  3629 0001:00050675  3630 0001:0005067C
  3631 0001:00050685  3632 0001:0005068F  3633 0001:00050699  3634 0001:000506A1
  3635 0001:000506A8  3637 0001:000506DC  3638 0001:000506FA  3641 0001:00050704
  3642 0001:00050710  3643 0001:0005071D  3650 0001:00050724  3651 0001:0005072C
  3652 0001:0005073A  3653 0001:00050748  3651 0001:00050757  3654 0001:0005075A
  3738 0001:00050760  3741 0001:00050777  3743 0001:0005079B  3744 0001:000507B5
  3746 0001:000507CB  3747 0001:000507D8  3749 0001:000507E7  3751 0001:000507F1
  3752 0001:000507FE  3756 0001:0005080D  3757 0001:0005081A  3759 0001:00050827
  3761 0001:0005083E  3766 0001:00050848  3767 0001:00050853  3768 0001:0005085C
  3771 0001:00050866  3772 0001:0005087B  3773 0001:00050881  3774 0001:0005088E
  3777 0001:00050902  3779 0001:00050913  3780 0001:00050921  3769 0001:00050922
  3782 0001:00050931  3787 0001:00050938  3788 0001:00050940  3789 0001:00050947
  3790 0001:0005094C  3791 0001:00050959  3793 0001:0005095D  3794 0001:0005096F
  3795 0001:00050972  3798 0001:00050980  3799 0001:00050981  3800 0001:00050988
  3802 0001:00050994  3791 0001:00050995  3804 0001:00050999  3807 0001:000509A0
  3808 0001:000509C3  3809 0001:00050A28  3822 0001:00050AE8  3823 0001:00050B0B
  3824 0001:00050B15  3826 0001:00050B1F

Line numbers for Menus(Menus.pas) segment .itext

  3811 0002:00000624  3812 0002:00000637  3813 0002:00000641  3814 0002:0000064B
  3815 0002:0000065B  3816 0002:0000066B  3817 0002:00000675  3818 0002:00000686
  3819 0002:00000697  3821 0002:000006A8

Line numbers for ActnList(ActnList.pas) segment .text

   306 0001:00051050   307 0001:0005105B   308 0001:00051069   309 0001:00051075
   313 0001:00051084   314 0001:0005108B   315 0001:00051095   316 0001:00051098
   320 0001:0005109C   321 0001:0005109E   325 0001:000510A0   326 0001:000510A7
   327 0001:000510AA   328 0001:000510AF   332 0001:000510B0   333 0001:000510B6
   334 0001:000510B9   335 0001:000510BE   338 0001:000510C0   339 0001:000510C7
   340 0001:000510D0   341 0001:000510E4   342 0001:000510ED   347 0001:000510F4
   348 0001:000510FB   349 0001:00051102   351 0001:00051106   352 0001:0005110F
   353 0001:00051115   354 0001:0005111C   356 0001:00051120   357 0001:00051128
   360 0001:00051137   363 0001:0005113C   364 0001:00051142   366 0001:0005114E
   367 0001:00051158   368 0001:0005115F   370 0001:00051164   373 0001:00051168
   374 0001:0005116E   376 0001:00051175   377 0001:00051180   379 0001:0005118D
   382 0001:00051190   383 0001:00051196   384 0001:000511AD   385 0001:000511B6
   388 0001:000511BC   389 0001:000511C1   392 0001:0005120D   395 0001:00051214
   396 0001:00051219   399 0001:00051265   425 0001:0005126C   426 0001:00051283
   427 0001:0005128C   428 0001:0005129B   429 0001:000512AC   430 0001:000512B6
   431 0001:000512BA   434 0001:000512D8   435 0001:000512E4   436 0001:000512EE
   437 0001:00051303   438 0001:0005130B   439 0001:00051317   445 0001:00051328
   446 0001:00051336   448 0001:00051347   449 0001:00051353   450 0001:00051363
   446 0001:00051364   451 0001:00051367   454 0001:00051370   455 0001:00051379
   456 0001:00051387   457 0001:0005139B   460 0001:000513A0   461 0001:000513A6
   462 0001:000513B0   466 0001:000513B4   467 0001:000513BA   480 0001:000513BC
   481 0001:000513C2   482 0001:000513D1   483 0001:000513D6   485 0001:000513DA
   486 0001:000513E2   488 0001:000513EC   492 0001:000513F0   493 0001:000513FA
   497 0001:000513FC   498 0001:00051405   499 0001:00051410   500 0001:00051415
   501 0001:0005141A   502 0001:00051425   503 0001:00051436   504 0001:0005143F
   507 0001:00051444   508 0001:0005144A   509 0001:00051454   510 0001:00051457
   511 0001:00051460   514 0001:00051464   515 0001:0005146A   516 0001:00051478
   517 0001:0005147D   522 0001:00051480   523 0001:00051485   524 0001:00051494
   525 0001:000514A2   524 0001:000514B1   526 0001:000514B4   528 0001:000514BA
   529 0001:000514D7   531 0001:000514E2   539 0001:000514E8   540 0001:000514F4
   541 0001:000514F9   542 0001:00051502   543 0001:0005150C   544 0001:00051519
   545 0001:0005151E   547 0001:0005152F   548 0001:0005153B   549 0001:0005154C
   552 0001:0005156F   553 0001:0005157A   555 0001:0005157C   545 0001:0005157D
   556 0001:00051580   559 0001:0005158C   560 0001:0005158E   561 0001:00051592
   562 0001:000515A3   565 0001:000515AC   566 0001:000515AE   567 0001:000515B2
   568 0001:000515C3   575 0001:000515CC   576 0001:000515D6   578 0001:000515E3
   579 0001:000515E7   580 0001:000515EE   581 0001:000515F2   583 0001:00051600
   584 0001:00051609   587 0001:00051617   588 0001:0005161B   589 0001:00051622
   591 0001:00051630   594 0001:00051639   595 0001:0005163D   598 0001:00051643
   599 0001:0005164D   602 0001:00051656   581 0001:00051657   603 0001:0005165A
   604 0001:00051661   606 0001:00051669   611 0001:00051670   612 0001:00051673
   613 0001:00051681   616 0001:00051684   617 0001:00051687   618 0001:00051695
   621 0001:00051698   622 0001:0005169B   623 0001:000516A9   626 0001:000516AC
   627 0001:000516AF   628 0001:000516BD   631 0001:000516C0   632 0001:000516C3
   633 0001:000516D1   636 0001:000516D4   637 0001:000516D7   638 0001:000516E5
   641 0001:000516E8   642 0001:000516EB   643 0001:000516F9   646 0001:000516FC
   647 0001:000516FF   648 0001:0005170D   651 0001:00051710   652 0001:00051713
   653 0001:00051721   656 0001:00051724   657 0001:00051727   658 0001:00051735
   662 0001:00051738   666 0001:0005173C   670 0001:00051740   674 0001:00051744
   678 0001:00051748   682 0001:0005174C   686 0001:00051750   690 0001:00051754
   694 0001:00051758   698 0001:0005175C   702 0001:00051760   706 0001:00051764
   711 0001:00051768   712 0001:0005177A   713 0001:00051783   714 0001:00051787
   715 0001:00051791   716 0001:00051798   717 0001:000517A0   720 0001:000517BC
   721 0001:000517C7   722 0001:000517D2   723 0001:000517DD   724 0001:000517E6
   725 0001:000517F1   726 0001:000517FD   729 0001:0005180C   730 0001:00051813
   733 0001:00051828   734 0001:00051834   735 0001:0005183F   736 0001:0005184A
   737 0001:00051854   738 0001:0005185E   739 0001:0005186B   740 0001:00051879
   741 0001:00051887   742 0001:00051894   743 0001:000518A0   744 0001:000518AE
   745 0001:000518B7   765 0001:000518BC   766 0001:000518C5   768 0001:000518D2
   770 0001:000518E0   771 0001:000518F4   772 0001:000518F8   773 0001:00051900
   768 0001:00051901   774 0001:00051904   775 0001:0005190F   777 0001:00051916
   784 0001:0005191C   785 0001:00051928   786 0001:00051935   787 0001:0005193C
   788 0001:0005194A   790 0001:00051956   792 0001:00051967   793 0001:0005197E
   794 0001:00051982   795 0001:00051989   790 0001:0005198A   796 0001:0005198D
   797 0001:00051993   798 0001:000519A5   800 0001:000519BA   801 0001:000519C9
   804 0001:000519EA   805 0001:000519F3   798 0001:000519F4   806 0001:000519F7
   809 0001:00051A0C   811 0001:00051A1B   817 0001:00051A24   818 0001:00051A2D
   820 0001:00051A36   821 0001:00051A3D   823 0001:00051A46   824 0001:00051A4D
   827 0001:00051A4F   828 0001:00051A54   829 0001:00051A58   831 0001:00051A66
   832 0001:00051A7A   833 0001:00051A7E   834 0001:00051A87   829 0001:00051A88
   835 0001:00051A8B   836 0001:00051A92   838 0001:00051A99   875 0001:00051AA0
   876 0001:00051AA8   878 0001:00051AB4   879 0001:00051AC2   880 0001:00051ADB
   878 0001:00051AED   881 0001:00051AF0   882 0001:00051AFA   884 0001:00051B01
   890 0001:00051B08   891 0001:00051B11   893 0001:00051B19   895 0001:00051B27
   896 0001:00051B3B   897 0001:00051B3F   898 0001:00051B47   893 0001:00051B48
   899 0001:00051B4B   900 0001:00051B51   902 0001:00051B58   908 0001:00051B60
   909 0001:00051B69   911 0001:00051B76   913 0001:00051B84   914 0001:00051B98
   915 0001:00051B9C   916 0001:00051BA4   911 0001:00051BA5   917 0001:00051BA8
   918 0001:00051BB3   920 0001:00051BBA   926 0001:00051BC0   927 0001:00051BC9
   929 0001:00051BD4   931 0001:00051BE2   932 0001:00051BF6   933 0001:00051BFA
   934 0001:00051C02   929 0001:00051C03   935 0001:00051C06   936 0001:00051C0F
   938 0001:00051C16   944 0001:00051C1C   945 0001:00051C26   947 0001:00051C33
   949 0001:00051C41   950 0001:00051C55   951 0001:00051C59   952 0001:00051C62
   947 0001:00051C63   953 0001:00051C66   954 0001:00051C71   956 0001:00051C78
   962 0001:00051C80   963 0001:00051C89   965 0001:00051C95   967 0001:00051CA3
   968 0001:00051CB7   969 0001:00051CBB   970 0001:00051CC4   965 0001:00051CC5
   971 0001:00051CC8   972 0001:00051CD2   974 0001:00051CD9   979 0001:00051CE0
   980 0001:00051CE7   982 0001:00051D09   984 0001:00051D12   985 0001:00051D28
   988 0001:00051D2C   989 0001:00051D2E   990 0001:00051D32   991 0001:00051D4C
   994 0001:00051D54   995 0001:00051D57   996 0001:00051D59   997 0001:00051D66
   998 0001:00051D6D   999 0001:00051D7C  1000 0001:00051D8E  1001 0001:00051D9C
  1002 0001:00051DB3  1005 0001:00051DB8  1006 0001:00051DBB  1007 0001:00051DC4
  1008 0001:00051DD6  1009 0001:00051DDC  1024 0001:00051DE0  1025 0001:00051DE1
  1026 0001:00051DEA  1031 0001:00051DEC  1032 0001:00051DF3  1033 0001:00051DFE
  1034 0001:00051E11  1052 0001:00051E18  1053 0001:00051E21  1054 0001:00051E28
  1055 0001:00051E39  1057 0001:00051E47  1058 0001:00051E4A  1059 0001:00051E4C
  1054 0001:00051E4D  1060 0001:00051E50

Line numbers for ActnList(ActnList.pas) segment .itext

  1062 0002:000006AC  1063 0002:000006B5  1064 0002:000006C5  1066 0002:000006D5

Line numbers for ImgList(ImgList.pas) segment .text

   181 0001:00051FE0   182 0001:00051FE5   183 0001:00051FF4   184 0001:00051FF8
   186 0001:00051FFD   190 0001:00052000   191 0001:00052012   192 0001:00052018
   196 0001:0005201D   199 0001:00052020   200 0001:00052032   201 0001:0005203B
   202 0001:00052042   203 0001:00052049   204 0001:00052050   215 0001:0005206C
   217 0001:0005207A   216 0001:0005208A   218 0001:00052093   219 0001:0005209B
   220 0001:000520A2   221 0001:000520AA   222 0001:000520AF   223 0001:000520BB
   224 0001:000520C7   229 0001:000520D8   230 0001:000520EE   231 0001:000520FD
   232 0001:00052112   233 0001:00052133   234 0001:0005213A   235 0001:0005213E
   236 0001:00052147   237 0001:0005214B   238 0001:00052152   239 0001:00052159
   240 0001:00052168   241 0001:0005216F   245 0001:00052190   246 0001:00052197
   250 0001:00052198   251 0001:000521A3   256 0001:000521A4   257 0001:000521AE
   258 0001:000521B8   259 0001:000521C6   261 0001:000521CC   262 0001:000521EC
   263 0001:000521FD   266 0001:00052239   268 0001:0005224C   270 0001:00052256
   271 0001:0005225B   273 0001:00052263   278 0001:00052268   279 0001:0005226E
   280 0001:00052275   281 0001:0005227B   282 0001:00052287   283 0001:0005228E
   284 0001:00052294   285 0001:0005229B   312 0001:000522A0   313 0001:000522A6
   314 0001:000522AD   316 0001:000522B1   317 0001:000522BA   318 0001:000522BD
   320 0001:000522C8   330 0001:000522CC   331 0001:000522CF   332 0001:000522D6
   333 0001:000522D9   336 0001:000522DC   337 0001:000522E5   338 0001:000522EE
   339 0001:000522F2   340 0001:000522FD   343 0001:00052306   344 0001:0005230F
   345 0001:00052318   347 0001:00052321   348 0001:00052329   351 0001:00052330
   352 0001:00052334   353 0001:00052345   354 0001:00052352   355 0001:00052357
   356 0001:00052362   361 0001:00052368   362 0001:0005237F   364 0001:000523A5
   365 0001:000523D1   366 0001:000523E4   395 0001:00052408   396 0001:00052417
   397 0001:00052426   398 0001:00052434   399 0001:00052443   400 0001:00052451
   401 0001:00052459   404 0001:00052491   407 0001:000524AE   409 0001:000524BE
   410 0001:000524CA   476 0001:000524D4   477 0001:000524D7   478 0001:000524F1
   479 0001:000524F3   558 0001:000524F8   559 0001:00052511   560 0001:0005253D
   561 0001:00052556   562 0001:00052561   566 0001:00052584   567 0001:0005258C
   570 0001:00052590   571 0001:00052596   572 0001:000525B4   573 0001:000525B7
   574 0001:000525C2   577 0001:000525C8   578 0001:000525CB   579 0001:000525EA
   580 0001:000525ED   589 0001:000525F0   590 0001:00052600   592 0001:0005260F
   593 0001:00052615   597 0001:00052659   599 0001:0005265F   602 0001:00052670
   603 0001:00052679   604 0001:00052683   608 0001:0005268D   609 0001:000526A2
   610 0001:000526C8   612 0001:000526F5   613 0001:00052711   615 0001:00052721
   616 0001:0005272E   617 0001:00052737   618 0001:00052742   619 0001:0005274A
   621 0001:0005276F   622 0001:0005277C   623 0001:00052785   624 0001:00052790
   625 0001:00052798   628 0001:000527BB   632 0001:000527C4   633 0001:000527C8
   634 0001:000527E4   638 0001:000527EC   639 0001:000527F8   640 0001:00052803
   642 0001:00052830   676 0001:00052838   677 0001:00052849   678 0001:00052863
   679 0001:0005286B   680 0001:00052879   681 0001:00052888   684 0001:00052896
   685 0001:000528A4   687 0001:000528B2   688 0001:000528C1   691 0001:000528CF
   692 0001:000528D9   693 0001:000528E7   695 0001:000528F5   696 0001:00052908
   698 0001:00052911   700 0001:0005291C   701 0001:00052927   703 0001:00052940
   705 0001:0005294B   706 0001:00052956   708 0001:0005296F   709 0001:0005297D
   695 0001:0005297E   711 0001:0005298E   714 0001:000529AB   717 0001:000529C8
   719 0001:000529D8   884 0001:000529E0   885 0001:000529E6   886 0001:000529FD
   891 0001:00052A00   892 0001:00052A06   893 0001:00052A14   895 0001:00052A29
   897 0001:00052A30   898 0001:00052A37   899 0001:00052A3E   900 0001:00052A49
   901 0001:00052A50   902 0001:00052A60   903 0001:00052A74   904 0001:00052A89
   905 0001:00052AA4   906 0001:00052AAA   908 0001:00052AB5   909 0001:00052ABE
   914 0001:00052AC4   915 0001:00052ACA   918 0001:00052ADF   919 0001:00052AE6
   920 0001:00052AED   921 0001:00052AF8   922 0001:00052AFF   925 0001:00052B05
   926 0001:00052B0C   927 0001:00052B1C   928 0001:00052B30   929 0001:00052B45
   930 0001:00052B60   933 0001:00052B6C   934 0001:00052B75   937 0001:00052B78
   938 0001:00052B91   940 0001:00052B95   941 0001:00052BAD   942 0001:00052BCE
   945 0001:00052BF0   946 0001:00052BF3   948 0001:00052BF8   949 0001:00052BFB
   951 0001:00052C06   954 0001:00052C08   955 0001:00052C0B   956 0001:00052C16
  1045 0001:00052C18  1046 0001:00052C1E  1047 0001:00052C22  1048 0001:00052C28
  1049 0001:00052C2F  1050 0001:00052C3A  1049 0001:00052C4E  1051 0001:00052C51
  1052 0001:00052C60  1057 0001:00052C68  1058 0001:00052C70  1059 0001:00052C77
  1060 0001:00052C82  1062 0001:00052C90  1063 0001:00052C95  1064 0001:00052C9F
  1065 0001:00052CA1  1059 0001:00052CA2  1066 0001:00052CA5  1070 0001:00052CAC
  1071 0001:00052CAF  1072 0001:00052CBD  1077 0001:00052CC0  1078 0001:00052CC6
  1079 0001:00052CFF  1083 0001:00052D04  1084 0001:00052D11  1086 0001:00052D29
  1087 0001:00052D2D  1089 0001:00052D32  1091 0001:00052D48  1092 0001:00052D4C
  1094 0001:00052D51  1095 0001:00052D60  1096 0001:00052D6E  1097 0001:00052D78
  1098 0001:00052D87  1099 0001:00052D95  1100 0001:00052D9F  1102 0001:00052DBA
  1105 0001:00052DD7  1107 0001:00052DE7  1112 0001:00052DF4  1113 0001:00052DF8
  1114 0001:00052E04  1117 0001:00052E3B  1118 0001:00052E4B  1120 0001:00052E50
  1121 0001:00052E5D  1122 0001:00052E68  1123 0001:00052E92  1130 0001:00052EA8
  1131 0001:00052EB6  1132 0001:00052EC5  1133 0001:00052ED4  1134 0001:00052EE3
  1135 0001:00052EF1  1136 0001:00052EFA  1137 0001:00052F04  1138 0001:00052F13
  1139 0001:00052F22  1140 0001:00052F30  1141 0001:00052F3A  1142 0001:00052F49
  1143 0001:00052F57  1144 0001:00052F65  1145 0001:00052F74  1146 0001:00052F7E
  1147 0001:00052F8C  1148 0001:00052F9A  1149 0001:00052FB4  1150 0001:00052FBC
  1151 0001:00052FCA  1153 0001:00052FEA  1154 0001:00052FF4  1156 0001:00053013
  1157 0001:0005301D  1159 0001:00053063  1161 0001:000530A9  1162 0001:000530B7
  1163 0001:000530BA  1154 0001:000530BB  1164 0001:000530C2  1151 0001:000530C3
  1166 0001:000530D9  1167 0001:000530E1  1168 0001:000530E9  1171 0001:00053106
  1174 0001:00053123  1176 0001:00053133  1184 0001:0005313C  1186 0001:0005314A
  1187 0001:0005315E  1188 0001:0005316C  1190 0001:00053193  1194 0001:000531A3
  1198 0001:000531B3  1199 0001:000531B5  1200 0001:000531C4  1201 0001:000531D2
  1202 0001:000531DE  1205 0001:000531E9  1206 0001:000531F5  1210 0001:0005320E
  1211 0001:0005321A  1215 0001:0005322D  1218 0001:00053234  1219 0001:00053240
  1224 0001:00053254  1226 0001:00053258  1227 0001:00053264  1228 0001:00053278
  1229 0001:00053286  1231 0001:000532AD  1236 0001:000532CA  1240 0001:000532DA
  1241 0001:000532E6  1243 0001:000532FD  1250 0001:00053304  1251 0001:0005330E
  1252 0001:00053315  1253 0001:00053320  1254 0001:0005332E  1255 0001:0005333E
  1256 0001:00053345  1257 0001:00053351  1258 0001:0005335F  1259 0001:00053374
  1261 0001:0005337F  1262 0001:00053388  1276 0001:00053390  1277 0001:0005339B
  1279 0001:000533A4  1280 0001:000533B3  1282 0001:000533BF  1283 0001:000533CB
  1284 0001:000533CF  1288 0001:000533DF  1289 0001:000533F2  1292 0001:00053400
  1294 0001:00053409  1295 0001:00053428  1297 0001:00053441  1298 0001:0005345D
  1300 0001:00053481  1302 0001:00053491  1377 0001:000534D4  1378 0001:000534D7
  1381 0001:000534D8  1382 0001:000534D9  1383 0001:000534E2  1385 0001:000534E8
  1386 0001:000534EC  1388 0001:000534F5  1393 0001:000534F8  1394 0001:00053503
  1395 0001:00053511  1396 0001:0005351D  1399 0001:0005352C  1400 0001:0005352D
  1401 0001:0005353F  1403 0001:0005356F

Line numbers for KeyboardLED_D90(..\KeyboardLED_D90.pas) segment .text

    51 0001:0005356C    52 0001:00053572    53 0001:00053580    55 0001:00053587
    57 0001:00053593    62 0001:00053595    63 0001:0005359F    64 0001:000535A3
    66 0001:000535A7    68 0001:000535A9    73 0001:000535B0    75 0001:000535CF
    76 0001:000535F1    77 0001:00053621    82 0001:00053648    83 0001:0005364B
    84 0001:0005364C    95 0001:00053650    96 0001:00053652    97 0001:00053653
   107 0001:00053654   108 0001:00053658   109 0001:0005366B   118 0001:00053670
   119 0001:00053676   120 0001:00053678   122 0001:00053686   123 0001:0005368F
   126 0001:00053691   127 0001:00053694   128 0001:0005369B   130 0001:0005369F
   138 0001:000536D0   141 0001:000536D4   150 0001:000536DC   151 0001:000536E0
   152 0001:000536EE   154 0001:000536F5   155 0001:000536F7   156 0001:000536FB
   157 0001:000536FE   159 0001:00053702   169 0001:00053732   180 0001:00053738
   181 0001:0005374D   182 0001:0005375B   183 0001:00053760   186 0001:00053764
   188 0001:00053772   189 0001:00053780   190 0001:00053792   193 0001:00053796
   195 0001:000537A6   196 0001:000537AC   205 0001:000537B3   206 0001:000537C5
   208 0001:000537C9   210 0001:000537D9   212 0001:000537E1   213 0001:000537E7
   217 0001:000537EE   218 0001:000537F4   222 0001:000537F6   241 0001:00053828
   242 0001:00053853   243 0001:00053864   244 0001:0005387B   246 0001:00053883
   248 0001:00053891   250 0001:00053899   252 0001:000538A2   254 0001:000538A8
   256 0001:000538D1   264 0001:000538F0   266 0001:000538F4   267 0001:000538F9
   268 0001:00053905   269 0001:00053918   275 0001:0005391E   276 0001:0005392E
   279 0001:00053932   284 0001:0005393C   300 0001:00053968   302 0001:00053973
   303 0001:00053979   305 0001:0005397F   306 0001:00053981   310 0001:00053A1C
   318 0001:00053A3D   320 0001:00053A46   322 0001:00053A4F   323 0001:00053A54
   325 0001:00053A59   336 0001:00053A7A   337 0001:00053A7C   344 0001:00053A90
   345 0001:00053A95   347 0001:00053A99   350 0001:00053A9D   351 0001:00053AA4
   353 0001:00053AAA   356 0001:00053AB5   357 0001:00053ABC   359 0001:00053AC2
   360 0001:00053AC9   362 0001:00053ACD   363 0001:00053ACF   347 0001:00053AD1
   366 0001:00053AD6   367 0001:00053AD8   372 0001:00053ADC   373 0001:00053AE1
   374 0001:00053AE6   376 0001:00053AE8   377 0001:00053AEE   379 0001:00053AF1
   380 0001:00053AF7   382 0001:00053AFA   383 0001:00053B00   385 0001:00053B03
   386 0001:00053B0F   387 0001:00053B1A   393 0001:00053B24   394 0001:00053B2B
   395 0001:00053B35   396 0001:00053B43   397 0001:00053B4E   399 0001:00053B5C
   401 0001:00053B67   403 0001:00053B72   405 0001:00053B7D   406 0001:00053B84
   414 0001:00053B9C   415 0001:00053BBE   417 0001:00053BC9

Line numbers for KeyboardLED_D90(..\KeyboardLED_D90.pas) segment .itext

   408 0002:000006D8   409 0002:000006E1   410 0002:000006EE   411 0002:000006F7
   413 0002:000006FC

Line numbers for Unit1(Unit1.pas) segment .text

    40 0001:00053DE0    41 0001:00053DE4    43 0001:00053DEB    44 0001:00053DFD
    46 0001:00053E08    47 0001:00053E1A    49 0001:00053E25    50 0001:00053E37
    52 0001:00053E42    53 0001:00053E49    58 0001:00053E5C    59 0001:00053E61
    61 0001:00053E90

Line numbers for KeybLEDDemo_D90(d:\Documents\Borland Studio-Projekte\TUO\Components\KeyboardLED\Demo_D90\KeybLEDDemo_D90.dpr) segment .itext

    12 0002:00000700    13 0002:00000718    14 0002:00000724    15 0002:0000073C
    16 0002:00000748

Bound resource files

c:\program files (x86)\borland\bds\4.0\lib\Controls.res
hwint.res
Unit1.dfm
KeybLEDDemo_D90.res
KeybLEDDemo_D90.drf


Program entry point at 0002:00000700
